(dp0
VNone
p1
ccopy_reg
_reconstructor
p2
(cnilutility.datatypes
DataObject
p3
c__builtin__
dict
p4
(dp5
S'AC_COMMENT'
p6
NsS'AC_ARTIFACT_CORRECTION'
p7
g1
sS'SYSTIME'
p8
g2
(cnilutility.datetime_helper
DatetimeInterval
p9
c__builtin__
list
p10
(lp11
cdatetime
datetime
p12
(S'\x07\xde\x05\x01\x00\x00\x00\x00\x00\x00'
p13
tp14
Rp15
aNatp16
Rp17
(dp18
S'bounds'
p19
S'[)'
p20
sbsS'AC_DESC'
p21
Nstp22
Rp23
sVPositive only
p24
g2
(g3
g4
(dp25
S'AC_COMMENT'
p26
NsS'AC_ARTIFACT_CORRECTION'
p27
g24
sS'SYSTIME'
p28
g2
(g9
g10
(lp29
g12
(S'\x07\xde\x05\x01\x00\x00\x00\x00\x00\x00'
p30
tp31
Rp32
aNatp33
Rp34
(dp35
g19
S'[)'
p36
sbsS'AC_DESC'
p37
Nstp38
Rp39
sVPositive and negative
p40
g2
(g3
g4
(dp41
S'AC_COMMENT'
p42
NsS'AC_ARTIFACT_CORRECTION'
p43
g40
sS'SYSTIME'
p44
g2
(g9
g10
(lp45
g12
(S'\x07\xde\x05\x01\x00\x00\x00\x00\x00\x00'
p46
tp47
Rp48
aNatp49
Rp50
(dp51
g19
S'[)'
p52
sbsS'AC_DESC'
p53
Nstp54
Rp55
s.