(dp0
(Vconductivity_meter
p1
VHANNA
p2
VHI 2030
p3
tp4
ccopy_reg
_reconstructor
p5
(cnilutility.datatypes
DataObject
p6
c__builtin__
dict
p7
(dp8
S'AM_COMMENT'
p9
NsS'AM_MANUFACTURER'
p10
g2
sS'SYSTIME'
p11
g5
(cnilutility.datetime_helper
DatetimeInterval
p12
c__builtin__
list
p13
(lp14
cdatetime
datetime
p15
(S'\x07\xde\x05\x01\x00\x00\x00\x00\x00\x00'
p16
tp17
Rp18
aNatp19
Rp20
(dp21
S'bounds'
p22
S'[)'
p23
sbsS'AM_DESC'
p24
NsS'AM_MODEL'
p25
g3
sS'AY_TYPE'
p26
g1
stp27
Rp28
s(Vby_volume
p29
VEigenbrodt
p30
VNSA181KS
p31
tp32
g5
(g6
g7
(dp33
S'AM_COMMENT'
p34
NsS'AM_MANUFACTURER'
p35
g30
sS'SYSTIME'
p36
g5
(g12
g13
(lp37
g15
(S'\x07\xde\x05\x01\x00\x00\x00\x00\x00\x00'
p38
tp39
Rp40
aNatp41
Rp42
(dp43
g22
S'[)'
p44
sbsS'AM_DESC'
p45
Vwet_only_sampler with precipitation sensor
p46
sS'AM_MODEL'
p47
g31
sS'AY_TYPE'
p48
g29
stp49
Rp50
s(VICP-MS
p51
VPerkinElmer
p52
VELAN DRC-e
p53
tp54
g5
(g6
g7
(dp55
S'AM_COMMENT'
p56
NsS'AM_MANUFACTURER'
p57
g52
sS'SYSTIME'
p58
g5
(g12
g13
(lp59
g15
(S'\x07\xde\x05\x01\x00\x00\x00\x00\x00\x00'
p60
tp61
Rp62
aNatp63
Rp64
(dp65
g22
S'[)'
p66
sbsS'AM_DESC'
p67
NsS'AM_MODEL'
p68
g53
sS'AY_TYPE'
p69
g51
stp70
Rp71
s(VpH_meter
p72
VWTW
p73
VProfiLine pH 3110
p74
tp75
g5
(g6
g7
(dp76
S'AM_COMMENT'
p77
NsS'AM_MANUFACTURER'
p78
g73
sS'SYSTIME'
p79
g5
(g12
g13
(lp80
g15
(S'\x07\xde\x05\x01\x00\x00\x00\x00\x00\x00'
p81
tp82
Rp83
aNatp84
Rp85
(dp86
g22
S'[)'
p87
sbsS'AM_DESC'
p88
NsS'AM_MODEL'
p89
g74
sS'AY_TYPE'
p90
g72
stp91
Rp92
s(VICP-AES
p93
VPerkinElmer
p94
VOptima 3000RL
p95
tp96
g5
(g6
g7
(dp97
S'AM_COMMENT'
p98
NsS'AM_MANUFACTURER'
p99
g94
sS'SYSTIME'
p100
g5
(g12
g13
(lp101
g15
(S'\x07\xde\x05\x01\x00\x00\x00\x00\x00\x00'
p102
tp103
Rp104
aNatp105
Rp106
(dp107
g22
S'[)'
p108
sbsS'AM_DESC'
p109
NsS'AM_MODEL'
p110
g95
sS'AY_TYPE'
p111
g93
stp112
Rp113
s(VICP-MS
p114
VPerkinElmer
p115
VELAN 500
p116
tp117
g5
(g6
g7
(dp118
S'AM_COMMENT'
p119
NsS'AM_MANUFACTURER'
p120
g115
sS'SYSTIME'
p121
g5
(g12
g13
(lp122
g15
(S'\x07\xde\x05\x01\x00\x00\x00\x00\x00\x00'
p123
tp124
Rp125
aNatp126
Rp127
(dp128
g22
S'[)'
p129
sbsS'AM_DESC'
p130
NsS'AM_MODEL'
p131
g116
sS'AY_TYPE'
p132
g114
stp133
Rp134
s(Vspectrophotometric
p135
VThermo Scientific
p136
VGallery
p137
tp138
g5
(g6
g7
(dp139
S'AM_COMMENT'
p140
NsS'AM_MANUFACTURER'
p141
g136
sS'SYSTIME'
p142
g5
(g12
g13
(lp143
g15
(S'\x07\xe6\x0c\x01\x0b\x08\x00\x07\n\x00'
p144
tp145
Rp146
aNatp147
Rp148
(dp149
g22
S'[)'
p150
sbsS'AM_DESC'
p151
NsS'AM_MODEL'
p152
g137
sS'AY_TYPE'
p153
g135
stp154
Rp155
s(VGC-MS
p156
VAgilent
p157
V5975B
p158
tp159
g5
(g6
g7
(dp160
S'AM_COMMENT'
p161
NsS'AM_MANUFACTURER'
p162
g157
sS'SYSTIME'
p163
g5
(g12
g13
(lp164
g15
(S'\x07\xde\x05\x01\x00\x00\x00\x00\x00\x00'
p165
tp166
Rp167
aNatp168
Rp169
(dp170
g22
S'[)'
p171
sbsS'AM_DESC'
p172
NsS'AM_MODEL'
p173
g158
sS'AY_TYPE'
p174
g156
stp175
Rp176
s(VICP-AES
p177
VAgilent Technologies
p178
VAgilent 715 ICP-OES
p179
tp180
g5
(g6
g7
(dp181
S'AM_COMMENT'
p182
NsS'AM_MANUFACTURER'
p183
g178
sS'SYSTIME'
p184
g5
(g12
g13
(lp185
g15
(S'\x07\xde\x05\x01\x00\x00\x00\x00\x00\x00'
p186
tp187
Rp188
aNatp189
Rp190
(dp191
g22
S'[)'
p192
sbsS'AM_DESC'
p193
NsS'AM_MODEL'
p194
g179
sS'AY_TYPE'
p195
g177
stp196
Rp197
s(VpH_meter
p198
VOMEGA
p199
VPHB21
p200
tp201
g5
(g6
g7
(dp202
S'AM_COMMENT'
p203
NsS'AM_MANUFACTURER'
p204
g199
sS'SYSTIME'
p205
g5
(g12
g13
(lp206
g15
(S'\x07\xde\x05\x01\x00\x00\x00\x00\x00\x00'
p207
tp208
Rp209
aNatp210
Rp211
(dp212
g22
S'[)'
p213
sbsS'AM_DESC'
p214
NsS'AM_MODEL'
p215
g200
sS'AY_TYPE'
p216
g198
stp217
Rp218
s(VpH_meter
p219
VSI Analytics
p220
Vlab 850 bnc
p221
tp222
g5
(g6
g7
(dp223
S'AM_COMMENT'
p224
NsS'AM_MANUFACTURER'
p225
g220
sS'SYSTIME'
p226
g5
(g12
g13
(lp227
g15
(S'\x07\xde\x05\x01\x00\x00\x00\x00\x00\x00'
p228
tp229
Rp230
aNatp231
Rp232
(dp233
g22
S'[)'
p234
sbsS'AM_DESC'
p235
NsS'AM_MODEL'
p236
g221
sS'AY_TYPE'
p237
g219
stp238
Rp239
s(VCV-AFS
p240
VTekran
p241
VModel 2500
p242
tp243
g5
(g6
g7
(dp244
S'AM_COMMENT'
p245
NsS'AM_MANUFACTURER'
p246
g241
sS'SYSTIME'
p247
g5
(g12
g13
(lp248
g15
(S'\x07\xde\x05\x01\x00\x00\x00\x00\x00\x00'
p249
tp250
Rp251
aNatp252
Rp253
(dp254
g22
S'[)'
p255
sbsS'AM_DESC'
p256
NsS'AM_MODEL'
p257
g242
sS'AY_TYPE'
p258
g240
stp259
Rp260
s(Vspectrophotometric
p261
VSEAL Analytical
p262
VAA500 AutoAnalyzer
p263
tp264
g5
(g6
g7
(dp265
S'AM_COMMENT'
p266
NsS'AM_MANUFACTURER'
p267
g262
sS'SYSTIME'
p268
g5
(g12
g13
(lp269
g15
(S'\x07\xde\x05\x01\x00\x00\x00\x00\x00\x00'
p270
tp271
Rp272
aNatp273
Rp274
(dp275
g22
S'[)'
p276
sbsS'AM_DESC'
p277
NsS'AM_MODEL'
p278
g263
sS'AY_TYPE'
p279
g261
stp280
Rp281
s(VICP-MS
p282
VPerkinElmer
p283
VNexION 300
p284
tp285
g5
(g6
g7
(dp286
S'AM_COMMENT'
p287
NsS'AM_MANUFACTURER'
p288
g283
sS'SYSTIME'
p289
g5
(g12
g13
(lp290
g15
(S'\x07\xde\x05\x01\x00\x00\x00\x00\x00\x00'
p291
tp292
Rp293
aNatp294
Rp295
(dp296
g22
S'[)'
p297
sbsS'AM_DESC'
p298
NsS'AM_MODEL'
p299
g284
sS'AY_TYPE'
p300
g282
stp301
Rp302
s(VpH_meter
p303
VHANNA
p304
VHI-991301
p305
tp306
g5
(g6
g7
(dp307
S'AM_COMMENT'
p308
NsS'AM_MANUFACTURER'
p309
g304
sS'SYSTIME'
p310
g5
(g12
g13
(lp311
g15
(S'\x07\xde\x05\x01\x00\x00\x00\x00\x00\x00'
p312
tp313
Rp314
aNatp315
Rp316
(dp317
g22
S'[)'
p318
sbsS'AM_DESC'
p319
NsS'AM_MODEL'
p320
g305
sS'AY_TYPE'
p321
g303
stp322
Rp323
s(Vconductivity_meter
p324
VHANNA
p325
VHI 2314
p326
tp327
g5
(g6
g7
(dp328
S'AM_COMMENT'
p329
NsS'AM_MANUFACTURER'
p330
g325
sS'SYSTIME'
p331
g5
(g12
g13
(lp332
g15
(S'\x07\xde\x05\x01\x00\x00\x00\x00\x00\x00'
p333
tp334
Rp335
aNatp336
Rp337
(dp338
g22
S'[)'
p339
sbsS'AM_DESC'
p340
NsS'AM_MODEL'
p341
g326
sS'AY_TYPE'
p342
g324
stp343
Rp344
s(VICP-AES
p345
VAgilent Technologies
p346
VAgilent 730 ICP-OES
p347
tp348
g5
(g6
g7
(dp349
S'AM_COMMENT'
p350
NsS'AM_MANUFACTURER'
p351
g346
sS'SYSTIME'
p352
g5
(g12
g13
(lp353
g15
(S'\x07\xde\x05\x01\x00\x00\x00\x00\x00\x00'
p354
tp355
Rp356
aNatp357
Rp358
(dp359
g22
S'[)'
p360
sbsS'AM_DESC'
p361
NsS'AM_MODEL'
p362
g347
sS'AY_TYPE'
p363
g345
stp364
Rp365
s(Vcrds
p366
VPicarro
p367
VG2401
p368
tp369
g5
(g6
g7
(dp370
S'AM_COMMENT'
p371
NsS'AM_MANUFACTURER'
p372
g367
sS'SYSTIME'
p373
g5
(g12
g13
(lp374
g15
(S'\x07\xe7\x02\x0f\x0c\x12!\x05ri'
p375
tp376
Rp377
aNatp378
Rp379
(dp380
g22
S'[)'
p381
sbsS'AM_DESC'
p382
NsS'AM_MODEL'
p383
g368
sS'AY_TYPE'
p384
g366
stp385
Rp386
s(Vconductivity_meter
p387
VYSI
p388
V3100 Conductivity
p389
tp390
g5
(g6
g7
(dp391
S'AM_COMMENT'
p392
NsS'AM_MANUFACTURER'
p393
g388
sS'SYSTIME'
p394
g5
(g12
g13
(lp395
g15
(S'\x07\xde\x05\x01\x00\x00\x00\x00\x00\x00'
p396
tp397
Rp398
aNatp399
Rp400
(dp401
g22
S'[)'
p402
sbsS'AM_DESC'
p403
NsS'AM_MODEL'
p404
g389
sS'AY_TYPE'
p405
g387
stp406
Rp407
s(VICP-AES
p408
VVarian (Agilent)
p409
VVarian Vista-MPX
p410
tp411
g5
(g6
g7
(dp412
S'AM_COMMENT'
p413
NsS'AM_MANUFACTURER'
p414
g409
sS'SYSTIME'
p415
g5
(g12
g13
(lp416
g15
(S'\x07\xde\x05\x01\x00\x00\x00\x00\x00\x00'
p417
tp418
Rp419
aNatp420
Rp421
(dp422
g22
S'[)'
p423
sbsS'AM_DESC'
p424
NsS'AM_MODEL'
p425
g410
sS'AY_TYPE'
p426
g408
stp427
Rp428
s(VICP-MS
p429
VThermo
p430
VELEMENT2
p431
tp432
g5
(g6
g7
(dp433
S'AM_COMMENT'
p434
NsS'AM_MANUFACTURER'
p435
g430
sS'SYSTIME'
p436
g5
(g12
g13
(lp437
g15
(S'\x07\xde\x05\x01\x00\x00\x00\x00\x00\x00'
p438
tp439
Rp440
aNatp441
Rp442
(dp443
g22
S'[)'
p444
sbsS'AM_DESC'
p445
NsS'AM_MODEL'
p446
g431
sS'AY_TYPE'
p447
g429
stp448
Rp449
s(VCV-AFS
p450
VTeledyne
p451
VQuickTrace M-8000
p452
tp453
g5
(g6
g7
(dp454
S'AM_COMMENT'
p455
NsS'AM_MANUFACTURER'
p456
g451
sS'SYSTIME'
p457
g5
(g12
g13
(lp458
g15
(S'\x07\xde\x05\x01\x00\x00\x00\x00\x00\x00'
p459
tp460
Rp461
aNatp462
Rp463
(dp464
g22
S'[)'
p465
sbsS'AM_DESC'
p466
NsS'AM_MODEL'
p467
g452
sS'AY_TYPE'
p468
g450
stp469
Rp470
s(VpH_meter
p471
VHANNA
p472
VPH 20
p473
tp474
g5
(g6
g7
(dp475
S'AM_COMMENT'
p476
NsS'AM_MANUFACTURER'
p477
g472
sS'SYSTIME'
p478
g5
(g12
g13
(lp479
g15
(S'\x07\xde\x05\x01\x00\x00\x00\x00\x00\x00'
p480
tp481
Rp482
aNatp483
Rp484
(dp485
g22
S'[)'
p486
sbsS'AM_DESC'
p487
NsS'AM_MODEL'
p488
g473
sS'AY_TYPE'
p489
g471
stp490
Rp491
s(Vspectrophotometric
p492
VPerkinElmer
p493
VLambda 18 UV/Vis
p494
tp495
g5
(g6
g7
(dp496
S'AM_COMMENT'
p497
NsS'AM_MANUFACTURER'
p498
g493
sS'SYSTIME'
p499
g5
(g12
g13
(lp500
g15
(S'\x07\xde\x05\x01\x00\x00\x00\x00\x00\x00'
p501
tp502
Rp503
aNatp504
Rp505
(dp506
g22
S'[)'
p507
sbsS'AM_DESC'
p508
NsS'AM_MODEL'
p509
g494
sS'AY_TYPE'
p510
g492
stp511
Rp512
s(VIC
p513
VThermo Scientific
p514
VICS-1000
p515
tp516
g5
(g6
g7
(dp517
S'AM_COMMENT'
p518
NsS'AM_MANUFACTURER'
p519
g514
sS'SYSTIME'
p520
g5
(g12
g13
(lp521
g15
(S'\x07\xde\x05\x01\x00\x00\x00\x00\x00\x00'
p522
tp523
Rp524
aNatp525
Rp526
(dp527
g22
S'[)'
p528
sbsS'AM_DESC'
p529
NsS'AM_MODEL'
p530
g515
sS'AY_TYPE'
p531
g513
stp532
Rp533
s(Vconductivity_meter
p534
VOMEGA
p535
VCDB-387
p536
tp537
g5
(g6
g7
(dp538
S'AM_COMMENT'
p539
NsS'AM_MANUFACTURER'
p540
g535
sS'SYSTIME'
p541
g5
(g12
g13
(lp542
g15
(S'\x07\xde\x05\x01\x00\x00\x00\x00\x00\x00'
p543
tp544
Rp545
aNatp546
Rp547
(dp548
g22
S'[)'
p549
sbsS'AM_DESC'
p550
NsS'AM_MODEL'
p551
g536
sS'AY_TYPE'
p552
g534
stp553
Rp554
s(Vconductivity_meter
p555
VAMS Alliance
p556
VSmartChem 600
p557
tp558
g5
(g6
g7
(dp559
S'AM_COMMENT'
p560
NsS'AM_MANUFACTURER'
p561
g556
sS'SYSTIME'
p562
g5
(g12
g13
(lp563
g15
(S'\x07\xe9\t\x02\n\x10;\x00k\xbb'
p564
tp565
Rp566
aNatp567
Rp568
(dp569
g22
S'[)'
p570
sbsS'AM_DESC'
p571
NsS'AM_MODEL'
p572
g557
sS'AY_TYPE'
p573
g555
stp574
Rp575
s(VpH_meter
p576
VHANNA
p577
VHI 4222
p578
tp579
g5
(g6
g7
(dp580
S'AM_COMMENT'
p581
NsS'AM_MANUFACTURER'
p582
g577
sS'SYSTIME'
p583
g5
(g12
g13
(lp584
g15
(S'\x07\xde\x05\x01\x00\x00\x00\x00\x00\x00'
p585
tp586
Rp587
aNatp588
Rp589
(dp590
g22
S'[)'
p591
sbsS'AM_DESC'
p592
NsS'AM_MODEL'
p593
g578
sS'AY_TYPE'
p594
g576
stp595
Rp596
s(VIC
p597
VThermo Scientific
p598
VICS-5000
p599
tp600
g5
(g6
g7
(dp601
S'AM_COMMENT'
p602
NsS'AM_MANUFACTURER'
p603
g598
sS'SYSTIME'
p604
g5
(g12
g13
(lp605
g15
(S'\x07\xde\x05\x01\x00\x00\x00\x00\x00\x00'
p606
tp607
Rp608
aNatp609
Rp610
(dp611
g22
S'[)'
p612
sbsS'AM_DESC'
p613
NsS'AM_MODEL'
p614
g599
sS'AY_TYPE'
p615
g597
stp616
Rp617
s(VIC
p618
VThermo Scientific
p619
VICS-600
p620
tp621
g5
(g6
g7
(dp622
S'AM_COMMENT'
p623
NsS'AM_MANUFACTURER'
p624
g619
sS'SYSTIME'
p625
g5
(g12
g13
(lp626
g15
(S'\x07\xde\x05\x01\x00\x00\x00\x00\x00\x00'
p627
tp628
Rp629
aNatp630
Rp631
(dp632
g22
S'[)'
p633
sbsS'AM_DESC'
p634
NsS'AM_MODEL'
p635
g620
sS'AY_TYPE'
p636
g618
stp637
Rp638
s(VpH_meter
p639
VYSI
p640
VpH 5000
p641
tp642
g5
(g6
g7
(dp643
S'AM_COMMENT'
p644
NsS'AM_MANUFACTURER'
p645
g640
sS'SYSTIME'
p646
g5
(g12
g13
(lp647
g15
(S'\x07\xde\x05\x01\x00\x00\x00\x00\x00\x00'
p648
tp649
Rp650
aNatp651
Rp652
(dp653
g22
S'[)'
p654
sbsS'AM_DESC'
p655
NsS'AM_MODEL'
p656
g641
sS'AY_TYPE'
p657
g639
stp658
Rp659
s(VGC-HRMS
p660
VAgilent
p661
V7200 Accurate Mass Q-TOF
p662
tp663
g5
(g6
g7
(dp664
S'AM_COMMENT'
p665
NsS'AM_MANUFACTURER'
p666
g661
sS'SYSTIME'
p667
g5
(g12
g13
(lp668
g15
(S'\x07\xde\x05\x01\x00\x00\x00\x00\x00\x00'
p669
tp670
Rp671
aNatp672
Rp673
(dp674
g22
S'[)'
p675
sbsS'AM_DESC'
p676
NsS'AM_MODEL'
p677
g662
sS'AY_TYPE'
p678
g660
stp679
Rp680
s(VpH_meter
p681
VWTW
p682
VINOLAB PH 7310 P
p683
tp684
g5
(g6
g7
(dp685
S'AM_COMMENT'
p686
NsS'AM_MANUFACTURER'
p687
g682
sS'SYSTIME'
p688
g5
(g12
g13
(lp689
g15
(S'\x07\xde\x05\x01\x00\x00\x00\x00\x00\x00'
p690
tp691
Rp692
aNatp693
Rp694
(dp695
g22
S'[)'
p696
sbsS'AM_DESC'
p697
NsS'AM_MODEL'
p698
g683
sS'AY_TYPE'
p699
g681
stp700
Rp701
s(Vconductivity_meter
p702
VThermo Scientific
p703
VCyberScan CON 510
p704
tp705
g5
(g6
g7
(dp706
S'AM_COMMENT'
p707
NsS'AM_MANUFACTURER'
p708
g703
sS'SYSTIME'
p709
g5
(g12
g13
(lp710
g15
(S'\x07\xde\x05\x01\x00\x00\x00\x00\x00\x00'
p711
tp712
Rp713
aNatp714
Rp715
(dp716
g22
S'[)'
p717
sbsS'AM_DESC'
p718
NsS'AM_MODEL'
p719
g704
sS'AY_TYPE'
p720
g702
stp721
Rp722
s(Vconductivity_meter
p723
VWTW
p724
VProfiLine Cond 3310
p725
tp726
g5
(g6
g7
(dp727
S'AM_COMMENT'
p728
NsS'AM_MANUFACTURER'
p729
g724
sS'SYSTIME'
p730
g5
(g12
g13
(lp731
g15
(S'\x07\xde\x05\x01\x00\x00\x00\x00\x00\x00'
p732
tp733
Rp734
aNatp735
Rp736
(dp737
g22
S'[)'
p738
sbsS'AM_DESC'
p739
NsS'AM_MODEL'
p740
g725
sS'AY_TYPE'
p741
g723
stp742
Rp743
s(VIC-MS
p744
VThermo Scientific
p745
VIntegrion + ISQ EC MS
p746
tp747
g5
(g6
g7
(dp748
S'AM_COMMENT'
p749
NsS'AM_MANUFACTURER'
p750
g745
sS'SYSTIME'
p751
g5
(g12
g13
(lp752
g15
(S'\x07\xe8\x05\x1e\x0b!\x00\x0c<\xb3'
p753
tp754
Rp755
aNatp756
Rp757
(dp758
g22
S'[)'
p759
sbsS'AM_DESC'
p760
NsS'AM_MODEL'
p761
g746
sS'AY_TYPE'
p762
g744
stp763
Rp764
s(VGC
p765
VPerkinElmer
p766
VClarus 580
p767
tp768
g5
(g6
g7
(dp769
S'AM_COMMENT'
p770
NsS'AM_MANUFACTURER'
p771
g766
sS'SYSTIME'
p772
g5
(g12
g13
(lp773
g15
(S'\x07\xde\x05\x01\x00\x00\x00\x00\x00\x00'
p774
tp775
Rp776
aNatp777
Rp778
(dp779
g22
S'[)'
p780
sbsS'AM_DESC'
p781
NsS'AM_MODEL'
p782
g767
sS'AY_TYPE'
p783
g765
stp784
Rp785
s(VICP-MS
p786
VThermo
p787
ViCAP
p788
tp789
g5
(g6
g7
(dp790
S'AM_COMMENT'
p791
NsS'AM_MANUFACTURER'
p792
g787
sS'SYSTIME'
p793
g5
(g12
g13
(lp794
g15
(S'\x07\xde\x05\x01\x00\x00\x00\x00\x00\x00'
p795
tp796
Rp797
aNatp798
Rp799
(dp800
g22
S'[)'
p801
sbsS'AM_DESC'
p802
NsS'AM_MODEL'
p803
g788
sS'AY_TYPE'
p804
g786
stp805
Rp806
s(VpH_meter
p807
VYSI
p808
VMultiLab 4010-1
p809
tp810
g5
(g6
g7
(dp811
S'AM_COMMENT'
p812
NsS'AM_MANUFACTURER'
p813
g808
sS'SYSTIME'
p814
g5
(g12
g13
(lp815
g15
(S'\x07\xde\x05\x01\x00\x00\x00\x00\x00\x00'
p816
tp817
Rp818
aNatp819
Rp820
(dp821
g22
S'[)'
p822
sbsS'AM_DESC'
p823
NsS'AM_MODEL'
p824
g809
sS'AY_TYPE'
p825
g807
stp826
Rp827
s(VpH_meter
p828
VKNICK
p829
VPH-METER 765
p830
tp831
g5
(g6
g7
(dp832
S'AM_COMMENT'
p833
NsS'AM_MANUFACTURER'
p834
g829
sS'SYSTIME'
p835
g5
(g12
g13
(lp836
g15
(S'\x07\xde\x05\x01\x00\x00\x00\x00\x00\x00'
p837
tp838
Rp839
aNatp840
Rp841
(dp842
g22
S'[)'
p843
sbsS'AM_DESC'
p844
NsS'AM_MODEL'
p845
g830
sS'AY_TYPE'
p846
g828
stp847
Rp848
s(VpH_meter
p849
VSI Analytics
p850
Vprolab 1000
p851
tp852
g5
(g6
g7
(dp853
S'AM_COMMENT'
p854
NsS'AM_MANUFACTURER'
p855
g850
sS'SYSTIME'
p856
g5
(g12
g13
(lp857
g15
(S'\x07\xde\x05\x01\x00\x00\x00\x00\x00\x00'
p858
tp859
Rp860
aNatp861
Rp862
(dp863
g22
S'[)'
p864
sbsS'AM_DESC'
p865
NsS'AM_MODEL'
p866
g851
sS'AY_TYPE'
p867
g849
stp868
Rp869
s(VpH_meter
p870
VMetrohm
p871
V913 pH Meter
p872
tp873
g5
(g6
g7
(dp874
S'AM_COMMENT'
p875
NsS'AM_MANUFACTURER'
p876
g871
sS'SYSTIME'
p877
g5
(g12
g13
(lp878
g15
(S'\x07\xde\x05\x01\x00\x00\x00\x00\x00\x00'
p879
tp880
Rp881
aNatp882
Rp883
(dp884
g22
S'[)'
p885
sbsS'AM_DESC'
p886
NsS'AM_MODEL'
p887
g872
sS'AY_TYPE'
p888
g870
stp889
Rp890
s(VICP-AES
p891
VGBC Scientific
p892
VIntegra XL
p893
tp894
g5
(g6
g7
(dp895
S'AM_COMMENT'
p896
NsS'AM_MANUFACTURER'
p897
g892
sS'SYSTIME'
p898
g5
(g12
g13
(lp899
g15
(S'\x07\xde\x05\x01\x00\x00\x00\x00\x00\x00'
p900
tp901
Rp902
aNatp903
Rp904
(dp905
g22
S'[)'
p906
sbsS'AM_DESC'
p907
NsS'AM_MODEL'
p908
g893
sS'AY_TYPE'
p909
g891
stp910
Rp911
s(VGF-AAS
p912
VPerkinElmer
p913
VAAnalyst 600
p914
tp915
g5
(g6
g7
(dp916
S'AM_COMMENT'
p917
NsS'AM_MANUFACTURER'
p918
g913
sS'SYSTIME'
p919
g5
(g12
g13
(lp920
g15
(S'\x07\xde\x05\x01\x00\x00\x00\x00\x00\x00'
p921
tp922
Rp923
aNatp924
Rp925
(dp926
g22
S'[)'
p927
sbsS'AM_DESC'
p928
NsS'AM_MODEL'
p929
g914
sS'AY_TYPE'
p930
g912
stp931
Rp932
s(Vconductivity_meter
p933
VOMEGA
p934
VPHB-550R
p935
tp936
g5
(g6
g7
(dp937
S'AM_COMMENT'
p938
NsS'AM_MANUFACTURER'
p939
g934
sS'SYSTIME'
p940
g5
(g12
g13
(lp941
g15
(S'\x07\xde\x05\x01\x00\x00\x00\x00\x00\x00'
p942
tp943
Rp944
aNatp945
Rp946
(dp947
g22
S'[)'
p948
sbsS'AM_DESC'
p949
NsS'AM_MODEL'
p950
g935
sS'AY_TYPE'
p951
g933
stp952
Rp953
s(VpH_meter
p954
VYSI
p955
VTruLab 1310P
p956
tp957
g5
(g6
g7
(dp958
S'AM_COMMENT'
p959
NsS'AM_MANUFACTURER'
p960
g955
sS'SYSTIME'
p961
g5
(g12
g13
(lp962
g15
(S'\x07\xde\x05\x01\x00\x00\x00\x00\x00\x00'
p963
tp964
Rp965
aNatp966
Rp967
(dp968
g22
S'[)'
p969
sbsS'AM_DESC'
p970
NsS'AM_MODEL'
p971
g956
sS'AY_TYPE'
p972
g954
stp973
Rp974
s(VUHPLC-MS/MS
p975
VThermo Scientific+Thermo Scientific
p976
VVanquish+Orbitrap Exploris 240
p977
tp978
g5
(g6
g7
(dp979
S'AM_COMMENT'
p980
NsS'AM_MANUFACTURER'
p981
g976
sS'SYSTIME'
p982
g5
(g12
g13
(lp983
g15
(S'\x07\xea\x01\x08\x088\x0f\x03[]'
p984
tp985
Rp986
aNatp987
Rp988
(dp989
g22
S'[)'
p990
sbsS'AM_DESC'
p991
NsS'AM_MODEL'
p992
g977
sS'AY_TYPE'
p993
g975
stp994
Rp995
s(VICP-MS
p996
VNu Instruments
p997
VNu Plasma
p998
tp999
g5
(g6
g7
(dp1000
S'AM_COMMENT'
p1001
NsS'AM_MANUFACTURER'
p1002
g997
sS'SYSTIME'
p1003
g5
(g12
g13
(lp1004
g15
(S'\x07\xde\x05\x01\x00\x00\x00\x00\x00\x00'
p1005
tp1006
Rp1007
aNatp1008
Rp1009
(dp1010
g22
S'[)'
p1011
sbsS'AM_DESC'
p1012
NsS'AM_MODEL'
p1013
g998
sS'AY_TYPE'
p1014
g996
stp1015
Rp1016
s(VpH_meter
p1017
VWWR
p1018
VPHENOMENAL IS 2100L
p1019
tp1020
g5
(g6
g7
(dp1021
S'AM_COMMENT'
p1022
NsS'AM_MANUFACTURER'
p1023
g1018
sS'SYSTIME'
p1024
g5
(g12
g13
(lp1025
g15
(S'\x07\xde\x05\x01\x00\x00\x00\x00\x00\x00'
p1026
tp1027
Rp1028
aNatp1029
Rp1030
(dp1031
g22
S'[)'
p1032
sbsS'AM_DESC'
p1033
NsS'AM_MODEL'
p1034
g1019
sS'AY_TYPE'
p1035
g1017
stp1036
Rp1037
s(Vconductivity_meter
p1038
VThermo Scientific
p1039
VTitration IC system
p1040
tp1041
g5
(g6
g7
(dp1042
S'AM_COMMENT'
p1043
NsS'AM_MANUFACTURER'
p1044
g1039
sS'SYSTIME'
p1045
g5
(g12
g13
(lp1046
g15
(S'\x07\xde\x05\x01\x00\x00\x00\x00\x00\x00'
p1047
tp1048
Rp1049
aNatp1050
Rp1051
(dp1052
g22
S'[)'
p1053
sbsS'AM_DESC'
p1054
NsS'AM_MODEL'
p1055
g1040
sS'AY_TYPE'
p1056
g1038
stp1057
Rp1058
s(VGC-MS/MS
p1059
VAgilent+Agilent
p1060
V7890B+7010B Triple Quadrupole
p1061
tp1062
g5
(g6
g7
(dp1063
S'AM_COMMENT'
p1064
NsS'AM_MANUFACTURER'
p1065
g1060
sS'SYSTIME'
p1066
g5
(g12
g13
(lp1067
g15
(S'\x07\xe9\x0c\x03\t\x10\x0b\n{8'
p1068
tp1069
Rp1070
aNatp1071
Rp1072
(dp1073
g22
S'[)'
p1074
sbsS'AM_DESC'
p1075
NsS'AM_MODEL'
p1076
g1061
sS'AY_TYPE'
p1077
g1059
stp1078
Rp1079
s(VpH_meter
p1080
VJENWAY
p1081
VPH METER Model 3510
p1082
tp1083
g5
(g6
g7
(dp1084
S'AM_COMMENT'
p1085
NsS'AM_MANUFACTURER'
p1086
g1081
sS'SYSTIME'
p1087
g5
(g12
g13
(lp1088
g15
(S'\x07\xde\x05\x01\x00\x00\x00\x00\x00\x00'
p1089
tp1090
Rp1091
aNatp1092
Rp1093
(dp1094
g22
S'[)'
p1095
sbsS'AM_DESC'
p1096
NsS'AM_MODEL'
p1097
g1082
sS'AY_TYPE'
p1098
g1080
stp1099
Rp1100
s(VpH_meter
p1101
VYSI
p1102
VPH 5100 BOD
p1103
tp1104
g5
(g6
g7
(dp1105
S'AM_COMMENT'
p1106
NsS'AM_MANUFACTURER'
p1107
g1102
sS'SYSTIME'
p1108
g5
(g12
g13
(lp1109
g15
(S'\x07\xde\x05\x01\x00\x00\x00\x00\x00\x00'
p1110
tp1111
Rp1112
aNatp1113
Rp1114
(dp1115
g22
S'[)'
p1116
sbsS'AM_DESC'
p1117
NsS'AM_MODEL'
p1118
g1103
sS'AY_TYPE'
p1119
g1101
stp1120
Rp1121
s(VpH_meter
p1122
VWTW
p1123
VINOLAB PH 3110
p1124
tp1125
g5
(g6
g7
(dp1126
S'AM_COMMENT'
p1127
NsS'AM_MANUFACTURER'
p1128
g1123
sS'SYSTIME'
p1129
g5
(g12
g13
(lp1130
g15
(S'\x07\xde\x05\x01\x00\x00\x00\x00\x00\x00'
p1131
tp1132
Rp1133
aNatp1134
Rp1135
(dp1136
g22
S'[)'
p1137
sbsS'AM_DESC'
p1138
NsS'AM_MODEL'
p1139
g1124
sS'AY_TYPE'
p1140
g1122
stp1141
Rp1142
s(VIC
p1143
VDionex
p1144
VDX-120
p1145
tp1146
g5
(g6
g7
(dp1147
S'AM_COMMENT'
p1148
NsS'AM_MANUFACTURER'
p1149
g1144
sS'SYSTIME'
p1150
g5
(g12
g13
(lp1151
g15
(S'\x07\xde\x05\x01\x00\x00\x00\x00\x00\x00'
p1152
tp1153
Rp1154
aNatp1155
Rp1156
(dp1157
g22
S'[)'
p1158
sbsS'AM_DESC'
p1159
NsS'AM_MODEL'
p1160
g1145
sS'AY_TYPE'
p1161
g1143
stp1162
Rp1163
s(VGC-MS
p1164
VAgilent
p1165
V7000B Triple Quadrupole
p1166
tp1167
g5
(g6
g7
(dp1168
S'AM_COMMENT'
p1169
NsS'AM_MANUFACTURER'
p1170
g1165
sS'SYSTIME'
p1171
g5
(g12
g13
(lp1172
g15
(S'\x07\xde\x05\x01\x00\x00\x00\x00\x00\x00'
p1173
tp1174
Rp1175
aNatp1176
Rp1177
(dp1178
g22
S'[)'
p1179
sbsS'AM_DESC'
p1180
Vhttps://www.agilent.com/cs/library/datasheets/Public/5989-9625EN.pdf
p1181
sS'AM_MODEL'
p1182
g1166
sS'AY_TYPE'
p1183
g1164
stp1184
Rp1185
s(VpH_meter
p1186
VWWR
p1187
VPHENOMENAL 6100L
p1188
tp1189
g5
(g6
g7
(dp1190
S'AM_COMMENT'
p1191
NsS'AM_MANUFACTURER'
p1192
g1187
sS'SYSTIME'
p1193
g5
(g12
g13
(lp1194
g15
(S'\x07\xde\x05\x01\x00\x00\x00\x00\x00\x00'
p1195
tp1196
Rp1197
aNatp1198
Rp1199
(dp1200
g22
S'[)'
p1201
sbsS'AM_DESC'
p1202
NsS'AM_MODEL'
p1203
g1188
sS'AY_TYPE'
p1204
g1186
stp1205
Rp1206
s(VpH_meter
p1207
VSI Analytics
p1208
Vprolab 2000
p1209
tp1210
g5
(g6
g7
(dp1211
S'AM_COMMENT'
p1212
NsS'AM_MANUFACTURER'
p1213
g1208
sS'SYSTIME'
p1214
g5
(g12
g13
(lp1215
g15
(S'\x07\xde\x05\x01\x00\x00\x00\x00\x00\x00'
p1216
tp1217
Rp1218
aNatp1219
Rp1220
(dp1221
g22
S'[)'
p1222
sbsS'AM_DESC'
p1223
NsS'AM_MODEL'
p1224
g1209
sS'AY_TYPE'
p1225
g1207
stp1226
Rp1227
s(VICP-MS
p1228
VAgilent (HP)
p1229
VHewlett Packard-HP 4500
p1230
tp1231
g5
(g6
g7
(dp1232
S'AM_COMMENT'
p1233
NsS'AM_MANUFACTURER'
p1234
g1229
sS'SYSTIME'
p1235
g5
(g12
g13
(lp1236
g15
(S'\x07\xde\x05\x01\x00\x00\x00\x00\x00\x00'
p1237
tp1238
Rp1239
aNatp1240
Rp1241
(dp1242
g22
S'[)'
p1243
sbsS'AM_DESC'
p1244
NsS'AM_MODEL'
p1245
g1230
sS'AY_TYPE'
p1246
g1228
stp1247
Rp1248
s(VpH_meter
p1249
VHACH
p1250
VHQ440d
p1251
tp1252
g5
(g6
g7
(dp1253
S'AM_COMMENT'
p1254
NsS'AM_MANUFACTURER'
p1255
g1250
sS'SYSTIME'
p1256
g5
(g12
g13
(lp1257
g15
(S'\x07\xde\x05\x01\x00\x00\x00\x00\x00\x00'
p1258
tp1259
Rp1260
aNatp1261
Rp1262
(dp1263
g22
S'[)'
p1264
sbsS'AM_DESC'
p1265
NsS'AM_MODEL'
p1266
g1251
sS'AY_TYPE'
p1267
g1249
stp1268
Rp1269
s(VpH_meter
p1270
VKNICK
p1271
VPH-METER 913
p1272
tp1273
g5
(g6
g7
(dp1274
S'AM_COMMENT'
p1275
NsS'AM_MANUFACTURER'
p1276
g1271
sS'SYSTIME'
p1277
g5
(g12
g13
(lp1278
g15
(S'\x07\xde\x05\x01\x00\x00\x00\x00\x00\x00'
p1279
tp1280
Rp1281
aNatp1282
Rp1283
(dp1284
g22
S'[)'
p1285
sbsS'AM_DESC'
p1286
NsS'AM_MODEL'
p1287
g1272
sS'AY_TYPE'
p1288
g1270
stp1289
Rp1290
s(VICP-MS
p1291
VThermo (VG)
p1292
ViCAP RQ
p1293
tp1294
g5
(g6
g7
(dp1295
S'AM_COMMENT'
p1296
NsS'AM_MANUFACTURER'
p1297
g1292
sS'SYSTIME'
p1298
g5
(g12
g13
(lp1299
g15
(S'\x07\xde\x05\x01\x00\x00\x00\x00\x00\x00'
p1300
tp1301
Rp1302
aNatp1303
Rp1304
(dp1305
g22
S'[)'
p1306
sbsS'AM_DESC'
p1307
NsS'AM_MODEL'
p1308
g1293
sS'AY_TYPE'
p1309
g1291
stp1310
Rp1311
s(VICP-AES
p1312
VPerkinElmer
p1313
VPlasma 2000
p1314
tp1315
g5
(g6
g7
(dp1316
S'AM_COMMENT'
p1317
NsS'AM_MANUFACTURER'
p1318
g1313
sS'SYSTIME'
p1319
g5
(g12
g13
(lp1320
g15
(S'\x07\xde\x05\x01\x00\x00\x00\x00\x00\x00'
p1321
tp1322
Rp1323
aNatp1324
Rp1325
(dp1326
g22
S'[)'
p1327
sbsS'AM_DESC'
p1328
NsS'AM_MODEL'
p1329
g1314
sS'AY_TYPE'
p1330
g1312
stp1331
Rp1332
s(VGC-MS
p1333
VAgilent
p1334
V5977B
p1335
tp1336
g5
(g6
g7
(dp1337
S'AM_COMMENT'
p1338
NsS'AM_MANUFACTURER'
p1339
g1334
sS'SYSTIME'
p1340
g5
(g12
g13
(lp1341
g15
(S'\x07\xde\x05\x01\x00\x00\x00\x00\x00\x00'
p1342
tp1343
Rp1344
aNatp1345
Rp1346
(dp1347
g22
S'[)'
p1348
sbsS'AM_DESC'
p1349
NsS'AM_MODEL'
p1350
g1335
sS'AY_TYPE'
p1351
g1333
stp1352
Rp1353
s(Vconductivity_meter
p1354
VThermo Scientific
p1355
VOrion VERSA STAR
p1356
tp1357
g5
(g6
g7
(dp1358
S'AM_COMMENT'
p1359
NsS'AM_MANUFACTURER'
p1360
g1355
sS'SYSTIME'
p1361
g5
(g12
g13
(lp1362
g15
(S'\x07\xde\x05\x01\x00\x00\x00\x00\x00\x00'
p1363
tp1364
Rp1365
aNatp1366
Rp1367
(dp1368
g22
S'[)'
p1369
sbsS'AM_DESC'
p1370
NsS'AM_MODEL'
p1371
g1356
sS'AY_TYPE'
p1372
g1354
stp1373
Rp1374
s(VICP-AES
p1375
VAgilent Technologies
p1376
VAgilent 720 ICP-OES
p1377
tp1378
g5
(g6
g7
(dp1379
S'AM_COMMENT'
p1380
NsS'AM_MANUFACTURER'
p1381
g1376
sS'SYSTIME'
p1382
g5
(g12
g13
(lp1383
g15
(S'\x07\xde\x05\x01\x00\x00\x00\x00\x00\x00'
p1384
tp1385
Rp1386
aNatp1387
Rp1388
(dp1389
g22
S'[)'
p1390
sbsS'AM_DESC'
p1391
NsS'AM_MODEL'
p1392
g1377
sS'AY_TYPE'
p1393
g1375
stp1394
Rp1395
s(VpH_meter
p1396
VThermo Scientific
p1397
VOrion Star A111 pH
p1398
tp1399
g5
(g6
g7
(dp1400
S'AM_COMMENT'
p1401
NsS'AM_MANUFACTURER'
p1402
g1397
sS'SYSTIME'
p1403
g5
(g12
g13
(lp1404
g15
(S'\x07\xde\x05\x01\x00\x00\x00\x00\x00\x00'
p1405
tp1406
Rp1407
aNatp1408
Rp1409
(dp1410
g22
S'[)'
p1411
sbsS'AM_DESC'
p1412
NsS'AM_MODEL'
p1413
g1398
sS'AY_TYPE'
p1414
g1396
stp1415
Rp1416
s(Vconductivity_meter
p1417
VHANNA
p1418
VHI 23151
p1419
tp1420
g5
(g6
g7
(dp1421
S'AM_COMMENT'
p1422
NsS'AM_MANUFACTURER'
p1423
g1418
sS'SYSTIME'
p1424
g5
(g12
g13
(lp1425
g15
(S'\x07\xde\x05\x01\x00\x00\x00\x00\x00\x00'
p1426
tp1427
Rp1428
aNatp1429
Rp1430
(dp1431
g22
S'[)'
p1432
sbsS'AM_DESC'
p1433
NsS'AM_MODEL'
p1434
g1419
sS'AY_TYPE'
p1435
g1417
stp1436
Rp1437
s(VIC
p1438
VMetrohm
p1439
V881 Compact IC pro
p1440
tp1441
g5
(g6
g7
(dp1442
S'AM_COMMENT'
p1443
NsS'AM_MANUFACTURER'
p1444
g1439
sS'SYSTIME'
p1445
g5
(g12
g13
(lp1446
g15
(S'\x07\xde\x05\x01\x00\x00\x00\x00\x00\x00'
p1447
tp1448
Rp1449
aNatp1450
Rp1451
(dp1452
g22
S'[)'
p1453
sbsS'AM_DESC'
p1454
NsS'AM_MODEL'
p1455
g1440
sS'AY_TYPE'
p1456
g1438
stp1457
Rp1458
s(VpH_meter
p1459
VThermo Scientific
p1460
VOrion VERSA STAR
p1461
tp1462
g5
(g6
g7
(dp1463
S'AM_COMMENT'
p1464
NsS'AM_MANUFACTURER'
p1465
g1460
sS'SYSTIME'
p1466
g5
(g12
g13
(lp1467
g15
(S'\x07\xde\x05\x01\x00\x00\x00\x00\x00\x00'
p1468
tp1469
Rp1470
aNatp1471
Rp1472
(dp1473
g22
S'[)'
p1474
sbsS'AM_DESC'
p1475
NsS'AM_MODEL'
p1476
g1461
sS'AY_TYPE'
p1477
g1459
stp1478
Rp1479
s(VpH_meter
p1480
VRadiometer Analytical
p1481
VPHM210
p1482
tp1483
g5
(g6
g7
(dp1484
S'AM_COMMENT'
p1485
NsS'AM_MANUFACTURER'
p1486
g1481
sS'SYSTIME'
p1487
g5
(g12
g13
(lp1488
g15
(S'\x07\xde\x05\x01\x00\x00\x00\x00\x00\x00'
p1489
tp1490
Rp1491
aNatp1492
Rp1493
(dp1494
g22
S'[)'
p1495
sbsS'AM_DESC'
p1496
NsS'AM_MODEL'
p1497
g1482
sS'AY_TYPE'
p1498
g1480
stp1499
Rp1500
s(VIC
p1501
VThermo Scientific
p1502
VDionex Aquion
p1503
tp1504
g5
(g6
g7
(dp1505
S'AM_COMMENT'
p1506
NsS'AM_MANUFACTURER'
p1507
g1502
sS'SYSTIME'
p1508
g5
(g12
g13
(lp1509
g15
(S'\x07\xde\x05\x01\x00\x00\x00\x00\x00\x00'
p1510
tp1511
Rp1512
aNatp1513
Rp1514
(dp1515
g22
S'[)'
p1516
sbsS'AM_DESC'
p1517
NsS'AM_MODEL'
p1518
g1503
sS'AY_TYPE'
p1519
g1501
stp1520
Rp1521
s(VpH_meter
p1522
VWWR
p1523
VPHENOMENAL PH 1100L
p1524
tp1525
g5
(g6
g7
(dp1526
S'AM_COMMENT'
p1527
NsS'AM_MANUFACTURER'
p1528
g1523
sS'SYSTIME'
p1529
g5
(g12
g13
(lp1530
g15
(S'\x07\xde\x05\x01\x00\x00\x00\x00\x00\x00'
p1531
tp1532
Rp1533
aNatp1534
Rp1535
(dp1536
g22
S'[)'
p1537
sbsS'AM_DESC'
p1538
NsS'AM_MODEL'
p1539
g1524
sS'AY_TYPE'
p1540
g1522
stp1541
Rp1542
s(VpH_conductivity_meter
p1543
VWTW
p1544
VinoLab Multi 9420 IDS
p1545
tp1546
g5
(g6
g7
(dp1547
S'AM_COMMENT'
p1548
NsS'AM_MANUFACTURER'
p1549
g1544
sS'SYSTIME'
p1550
g5
(g12
g13
(lp1551
g15
(S'\x07\xe9\x05\x17\x0b\x10\x0f\x05\xc9\x13'
p1552
tp1553
Rp1554
aNatp1555
Rp1556
(dp1557
g22
S'[)'
p1558
sbsS'AM_DESC'
p1559
NsS'AM_MODEL'
p1560
g1545
sS'AY_TYPE'
p1561
g1543
stp1562
Rp1563
s(VpH_meter
p1564
VWTW
p1565
VINOLAB PH 7310 BNC
p1566
tp1567
g5
(g6
g7
(dp1568
S'AM_COMMENT'
p1569
NsS'AM_MANUFACTURER'
p1570
g1565
sS'SYSTIME'
p1571
g5
(g12
g13
(lp1572
g15
(S'\x07\xde\x05\x01\x00\x00\x00\x00\x00\x00'
p1573
tp1574
Rp1575
aNatp1576
Rp1577
(dp1578
g22
S'[)'
p1579
sbsS'AM_DESC'
p1580
NsS'AM_MODEL'
p1581
g1566
sS'AY_TYPE'
p1582
g1564
stp1583
Rp1584
s(VICP-AES
p1585
VPerkinElmer
p1586
VOptima 3100DV
p1587
tp1588
g5
(g6
g7
(dp1589
S'AM_COMMENT'
p1590
NsS'AM_MANUFACTURER'
p1591
g1586
sS'SYSTIME'
p1592
g5
(g12
g13
(lp1593
g15
(S'\x07\xde\x05\x01\x00\x00\x00\x00\x00\x00'
p1594
tp1595
Rp1596
aNatp1597
Rp1598
(dp1599
g22
S'[)'
p1600
sbsS'AM_DESC'
p1601
NsS'AM_MODEL'
p1602
g1587
sS'AY_TYPE'
p1603
g1585
stp1604
Rp1605
s(VICP-AES
p1606
VVarian
p1607
VAA-240
p1608
tp1609
g5
(g6
g7
(dp1610
S'AM_COMMENT'
p1611
NsS'AM_MANUFACTURER'
p1612
g1607
sS'SYSTIME'
p1613
g5
(g12
g13
(lp1614
g15
(S'\x07\xde\x05\x01\x00\x00\x00\x00\x00\x00'
p1615
tp1616
Rp1617
aNatp1618
Rp1619
(dp1620
g22
S'[)'
p1621
sbsS'AM_DESC'
p1622
NsS'AM_MODEL'
p1623
g1608
sS'AY_TYPE'
p1624
g1606
stp1625
Rp1626
s(VICP-AES
p1627
VSPECTRO
p1628
VSPECTRO ARCOS ICP-OES
p1629
tp1630
g5
(g6
g7
(dp1631
S'AM_COMMENT'
p1632
NsS'AM_MANUFACTURER'
p1633
g1628
sS'SYSTIME'
p1634
g5
(g12
g13
(lp1635
g15
(S'\x07\xde\x05\x01\x00\x00\x00\x00\x00\x00'
p1636
tp1637
Rp1638
aNatp1639
Rp1640
(dp1641
g22
S'[)'
p1642
sbsS'AM_DESC'
p1643
NsS'AM_MODEL'
p1644
g1629
sS'AY_TYPE'
p1645
g1627
stp1646
Rp1647
s(VICP-AES
p1648
VJarell Ash (Thermo)
p1649
VIris
p1650
tp1651
g5
(g6
g7
(dp1652
S'AM_COMMENT'
p1653
NsS'AM_MANUFACTURER'
p1654
g1649
sS'SYSTIME'
p1655
g5
(g12
g13
(lp1656
g15
(S'\x07\xde\x05\x01\x00\x00\x00\x00\x00\x00'
p1657
tp1658
Rp1659
aNatp1660
Rp1661
(dp1662
g22
S'[)'
p1663
sbsS'AM_DESC'
p1664
NsS'AM_MODEL'
p1665
g1650
sS'AY_TYPE'
p1666
g1648
stp1667
Rp1668
s(VF-AAS
p1669
VPerkinElmer
p1670
VAAnalyst 700
p1671
tp1672
g5
(g6
g7
(dp1673
S'AM_COMMENT'
p1674
NsS'AM_MANUFACTURER'
p1675
g1670
sS'SYSTIME'
p1676
g5
(g12
g13
(lp1677
g15
(S'\x07\xde\x05\x01\x00\x00\x00\x00\x00\x00'
p1678
tp1679
Rp1680
aNatp1681
Rp1682
(dp1683
g22
S'[)'
p1684
sbsS'AM_DESC'
p1685
NsS'AM_MODEL'
p1686
g1671
sS'AY_TYPE'
p1687
g1669
stp1688
Rp1689
s(VpH_meter
p1690
VHANNA
p1691
VHI 2210
p1692
tp1693
g5
(g6
g7
(dp1694
S'AM_COMMENT'
p1695
NsS'AM_MANUFACTURER'
p1696
g1691
sS'SYSTIME'
p1697
g5
(g12
g13
(lp1698
g15
(S'\x07\xde\x05\x01\x00\x00\x00\x00\x00\x00'
p1699
tp1700
Rp1701
aNatp1702
Rp1703
(dp1704
g22
S'[)'
p1705
sbsS'AM_DESC'
p1706
NsS'AM_MODEL'
p1707
g1692
sS'AY_TYPE'
p1708
g1690
stp1709
Rp1710
s(VpH_meter
p1711
VHACH
p1712
VHQ411d
p1713
tp1714
g5
(g6
g7
(dp1715
S'AM_COMMENT'
p1716
NsS'AM_MANUFACTURER'
p1717
g1712
sS'SYSTIME'
p1718
g5
(g12
g13
(lp1719
g15
(S'\x07\xde\x05\x01\x00\x00\x00\x00\x00\x00'
p1720
tp1721
Rp1722
aNatp1723
Rp1724
(dp1725
g22
S'[)'
p1726
sbsS'AM_DESC'
p1727
NsS'AM_MODEL'
p1728
g1713
sS'AY_TYPE'
p1729
g1711
stp1730
Rp1731
s(VGC-HRMS
p1732
VMicromass/Waters
p1733
VAutospec M
p1734
tp1735
g5
(g6
g7
(dp1736
S'AM_COMMENT'
p1737
NsS'AM_MANUFACTURER'
p1738
g1733
sS'SYSTIME'
p1739
g5
(g12
g13
(lp1740
g15
(S"\x07\xe9\x05\x1b\x0c00\x03'\x9a"
p1741
tp1742
Rp1743
aNatp1744
Rp1745
(dp1746
g22
S'[)'
p1747
sbsS'AM_DESC'
p1748
NsS'AM_MODEL'
p1749
g1734
sS'AY_TYPE'
p1750
g1732
stp1751
Rp1752
s(Vspectrophotometric_indophenol
p1753
VSkalar
p1754
VSan++
p1755
tp1756
g5
(g6
g7
(dp1757
S'AM_COMMENT'
p1758
NsS'AM_MANUFACTURER'
p1759
g1754
sS'SYSTIME'
p1760
g5
(g12
g13
(lp1761
g15
(S'\x07\xde\x05\x01\x00\x00\x00\x00\x00\x00'
p1762
tp1763
Rp1764
aNatp1765
Rp1766
(dp1767
g22
S'[)'
p1768
sbsS'AM_DESC'
p1769
NsS'AM_MODEL'
p1770
g1755
sS'AY_TYPE'
p1771
g1753
stp1772
Rp1773
s(VGC-MS
p1774
VAgilent+Agilent
p1775
V7890B+5977A
p1776
tp1777
g5
(g6
g7
(dp1778
S'AM_COMMENT'
p1779
NsS'AM_MANUFACTURER'
p1780
g1775
sS'SYSTIME'
p1781
g5
(g12
g13
(lp1782
g15
(S'\x07\xe9\x0b\n\n1-\r\xf6\x94'
p1783
tp1784
Rp1785
aNatp1786
Rp1787
(dp1788
g22
S'[)'
p1789
sbsS'AM_DESC'
p1790
NsS'AM_MODEL'
p1791
g1776
sS'AY_TYPE'
p1792
g1774
stp1793
Rp1794
s(VICP-AES
p1795
VPerkinElmer
p1796
VOptima 4000 DV Series
p1797
tp1798
g5
(g6
g7
(dp1799
S'AM_COMMENT'
p1800
NsS'AM_MANUFACTURER'
p1801
g1796
sS'SYSTIME'
p1802
g5
(g12
g13
(lp1803
g15
(S'\x07\xde\x05\x01\x00\x00\x00\x00\x00\x00'
p1804
tp1805
Rp1806
aNatp1807
Rp1808
(dp1809
g22
S'[)'
p1810
sbsS'AM_DESC'
p1811
NsS'AM_MODEL'
p1812
g1797
sS'AY_TYPE'
p1813
g1795
stp1814
Rp1815
s(VICP-MS
p1816
VBruker (Varian)
p1817
V800-MS
p1818
tp1819
g5
(g6
g7
(dp1820
S'AM_COMMENT'
p1821
NsS'AM_MANUFACTURER'
p1822
g1817
sS'SYSTIME'
p1823
g5
(g12
g13
(lp1824
g15
(S'\x07\xde\x05\x01\x00\x00\x00\x00\x00\x00'
p1825
tp1826
Rp1827
aNatp1828
Rp1829
(dp1830
g22
S'[)'
p1831
sbsS'AM_DESC'
p1832
NsS'AM_MODEL'
p1833
g1818
sS'AY_TYPE'
p1834
g1816
stp1835
Rp1836
s(VpH_meter
p1837
VHORIBA
p1838
VLAQUATWIN B-712
p1839
tp1840
g5
(g6
g7
(dp1841
S'AM_COMMENT'
p1842
NsS'AM_MANUFACTURER'
p1843
g1838
sS'SYSTIME'
p1844
g5
(g12
g13
(lp1845
g15
(S'\x07\xde\x05\x01\x00\x00\x00\x00\x00\x00'
p1846
tp1847
Rp1848
aNatp1849
Rp1850
(dp1851
g22
S'[)'
p1852
sbsS'AM_DESC'
p1853
NsS'AM_MODEL'
p1854
g1839
sS'AY_TYPE'
p1855
g1837
stp1856
Rp1857
s(VIC
p1858
VShimadzu
p1859
VCDD-10Avp
p1860
tp1861
g5
(g6
g7
(dp1862
S'AM_COMMENT'
p1863
NsS'AM_MANUFACTURER'
p1864
g1859
sS'SYSTIME'
p1865
g5
(g12
g13
(lp1866
g15
(S'\x07\xde\x05\x01\x00\x00\x00\x00\x00\x00'
p1867
tp1868
Rp1869
aNatp1870
Rp1871
(dp1872
g22
S'[)'
p1873
sbsS'AM_DESC'
p1874
NsS'AM_MODEL'
p1875
g1860
sS'AY_TYPE'
p1876
g1858
stp1877
Rp1878
s(Vconductivity_meter
p1879
VWTW
p1880
VProfiLine Cond 3210
p1881
tp1882
g5
(g6
g7
(dp1883
S'AM_COMMENT'
p1884
NsS'AM_MANUFACTURER'
p1885
g1880
sS'SYSTIME'
p1886
g5
(g12
g13
(lp1887
g15
(S'\x07\xde\x05\x01\x00\x00\x00\x00\x00\x00'
p1888
tp1889
Rp1890
aNatp1891
Rp1892
(dp1893
g22
S'[)'
p1894
sbsS'AM_DESC'
p1895
NsS'AM_MODEL'
p1896
g1881
sS'AY_TYPE'
p1897
g1879
stp1898
Rp1899
s(VICP-MS
p1900
VAgilent
p1901
V7900
p1902
tp1903
g5
(g6
g7
(dp1904
S'AM_COMMENT'
p1905
NsS'AM_MANUFACTURER'
p1906
g1901
sS'SYSTIME'
p1907
g5
(g12
g13
(lp1908
g15
(S'\x07\xde\x05\x01\x00\x00\x00\x00\x00\x00'
p1909
tp1910
Rp1911
aNatp1912
Rp1913
(dp1914
g22
S'[)'
p1915
sbsS'AM_DESC'
p1916
NsS'AM_MODEL'
p1917
g1902
sS'AY_TYPE'
p1918
g1900
stp1919
Rp1920
s(VIC
p1921
VThermo Scientific
p1922
VICS-90
p1923
tp1924
g5
(g6
g7
(dp1925
S'AM_COMMENT'
p1926
NsS'AM_MANUFACTURER'
p1927
g1922
sS'SYSTIME'
p1928
g5
(g12
g13
(lp1929
g15
(S'\x07\xde\x05\x01\x00\x00\x00\x00\x00\x00'
p1930
tp1931
Rp1932
aNatp1933
Rp1934
(dp1935
g22
S'[)'
p1936
sbsS'AM_DESC'
p1937
NsS'AM_MODEL'
p1938
g1923
sS'AY_TYPE'
p1939
g1921
stp1940
Rp1941
s(Vconductivity_meter
p1942
VMetrohm
p1943
V780 pH Meter
p1944
tp1945
g5
(g6
g7
(dp1946
S'AM_COMMENT'
p1947
NsS'AM_MANUFACTURER'
p1948
g1943
sS'SYSTIME'
p1949
g5
(g12
g13
(lp1950
g15
(S'\x07\xde\x05\x01\x00\x00\x00\x00\x00\x00'
p1951
tp1952
Rp1953
aNatp1954
Rp1955
(dp1956
g22
S'[)'
p1957
sbsS'AM_DESC'
p1958
NsS'AM_MODEL'
p1959
g1944
sS'AY_TYPE'
p1960
g1942
stp1961
Rp1962
s(Vspectrophotometric
p1963
VAMS Alliance
p1964
VSmartChem 600
p1965
tp1966
g5
(g6
g7
(dp1967
S'AM_COMMENT'
p1968
NsS'AM_MANUFACTURER'
p1969
g1964
sS'SYSTIME'
p1970
g5
(g12
g13
(lp1971
g15
(S'\x07\xe9\t\x02\t\x122\n\xd7j'
p1972
tp1973
Rp1974
aNatp1975
Rp1976
(dp1977
g22
S'[)'
p1978
sbsS'AM_DESC'
p1979
NsS'AM_MODEL'
p1980
g1965
sS'AY_TYPE'
p1981
g1963
stp1982
Rp1983
s(VICP-AES
p1984
VAgilent Technologies
p1985
VAgilent 710 ICP-OES
p1986
tp1987
g5
(g6
g7
(dp1988
S'AM_COMMENT'
p1989
NsS'AM_MANUFACTURER'
p1990
g1985
sS'SYSTIME'
p1991
g5
(g12
g13
(lp1992
g15
(S'\x07\xde\x05\x01\x00\x00\x00\x00\x00\x00'
p1993
tp1994
Rp1995
aNatp1996
Rp1997
(dp1998
g22
S'[)'
p1999
sbsS'AM_DESC'
p2000
NsS'AM_MODEL'
p2001
g1986
sS'AY_TYPE'
p2002
g1984
stp2003
Rp2004
s(VpH_meter
p2005
VYSI
p2006
VpH 1200
p2007
tp2008
g5
(g6
g7
(dp2009
S'AM_COMMENT'
p2010
NsS'AM_MANUFACTURER'
p2011
g2006
sS'SYSTIME'
p2012
g5
(g12
g13
(lp2013
g15
(S'\x07\xde\x05\x01\x00\x00\x00\x00\x00\x00'
p2014
tp2015
Rp2016
aNatp2017
Rp2018
(dp2019
g22
S'[)'
p2020
sbsS'AM_DESC'
p2021
NsS'AM_MODEL'
p2022
g2007
sS'AY_TYPE'
p2023
g2005
stp2024
Rp2025
s(VpH_meter
p2026
VWTW
p2027
VINOLAB PH/ION 7320P
p2028
tp2029
g5
(g6
g7
(dp2030
S'AM_COMMENT'
p2031
NsS'AM_MANUFACTURER'
p2032
g2027
sS'SYSTIME'
p2033
g5
(g12
g13
(lp2034
g15
(S'\x07\xde\x05\x01\x00\x00\x00\x00\x00\x00'
p2035
tp2036
Rp2037
aNatp2038
Rp2039
(dp2040
g22
S'[)'
p2041
sbsS'AM_DESC'
p2042
NsS'AM_MODEL'
p2043
g2028
sS'AY_TYPE'
p2044
g2026
stp2045
Rp2046
s(VpH_meter
p2047
VOMEGA
p2048
VPHB-550R
p2049
tp2050
g5
(g6
g7
(dp2051
S'AM_COMMENT'
p2052
NsS'AM_MANUFACTURER'
p2053
g2048
sS'SYSTIME'
p2054
g5
(g12
g13
(lp2055
g15
(S'\x07\xde\x05\x01\x00\x00\x00\x00\x00\x00'
p2056
tp2057
Rp2058
aNatp2059
Rp2060
(dp2061
g22
S'[)'
p2062
sbsS'AM_DESC'
p2063
NsS'AM_MODEL'
p2064
g2049
sS'AY_TYPE'
p2065
g2047
stp2066
Rp2067
s(VICP-AES
p2068
VGBC Scientific
p2069
VIntegra XP
p2070
tp2071
g5
(g6
g7
(dp2072
S'AM_COMMENT'
p2073
NsS'AM_MANUFACTURER'
p2074
g2069
sS'SYSTIME'
p2075
g5
(g12
g13
(lp2076
g15
(S'\x07\xde\x05\x01\x00\x00\x00\x00\x00\x00'
p2077
tp2078
Rp2079
aNatp2080
Rp2081
(dp2082
g22
S'[)'
p2083
sbsS'AM_DESC'
p2084
NsS'AM_MODEL'
p2085
g2070
sS'AY_TYPE'
p2086
g2068
stp2087
Rp2088
s(VIC
p2089
VThermo Scientific
p2090
VICS-900
p2091
tp2092
g5
(g6
g7
(dp2093
S'AM_COMMENT'
p2094
NsS'AM_MANUFACTURER'
p2095
g2090
sS'SYSTIME'
p2096
g5
(g12
g13
(lp2097
g15
(S'\x07\xde\x05\x01\x00\x00\x00\x00\x00\x00'
p2098
tp2099
Rp2100
aNatp2101
Rp2102
(dp2103
g22
S'[)'
p2104
sbsS'AM_DESC'
p2105
NsS'AM_MODEL'
p2106
g2091
sS'AY_TYPE'
p2107
g2089
stp2108
Rp2109
s(VICP-AES
p2110
VPerkinElmer
p2111
VPlasma 1000
p2112
tp2113
g5
(g6
g7
(dp2114
S'AM_COMMENT'
p2115
NsS'AM_MANUFACTURER'
p2116
g2111
sS'SYSTIME'
p2117
g5
(g12
g13
(lp2118
g15
(S'\x07\xde\x05\x01\x00\x00\x00\x00\x00\x00'
p2119
tp2120
Rp2121
aNatp2122
Rp2123
(dp2124
g22
S'[)'
p2125
sbsS'AM_DESC'
p2126
NsS'AM_MODEL'
p2127
g2112
sS'AY_TYPE'
p2128
g2110
stp2129
Rp2130
s(VpH_meter
p2131
VWTW
p2132
VINOLAB MULTI 9420 IDS SET
p2133
tp2134
g5
(g6
g7
(dp2135
S'AM_COMMENT'
p2136
NsS'AM_MANUFACTURER'
p2137
g2132
sS'SYSTIME'
p2138
g5
(g12
g13
(lp2139
g15
(S'\x07\xde\x05\x01\x00\x00\x00\x00\x00\x00'
p2140
tp2141
Rp2142
aNatp2143
Rp2144
(dp2145
g22
S'[)'
p2146
sbsS'AM_DESC'
p2147
NsS'AM_MODEL'
p2148
g2133
sS'AY_TYPE'
p2149
g2131
stp2150
Rp2151
s(VICP-AES
p2152
VVarian (Agilent)
p2153
VVarian 720-ES
p2154
tp2155
g5
(g6
g7
(dp2156
S'AM_COMMENT'
p2157
NsS'AM_MANUFACTURER'
p2158
g2153
sS'SYSTIME'
p2159
g5
(g12
g13
(lp2160
g15
(S'\x07\xde\x05\x01\x00\x00\x00\x00\x00\x00'
p2161
tp2162
Rp2163
aNatp2164
Rp2165
(dp2166
g22
S'[)'
p2167
sbsS'AM_DESC'
p2168
NsS'AM_MODEL'
p2169
g2154
sS'AY_TYPE'
p2170
g2152
stp2171
Rp2172
s(VICP-AES
p2173
VAgilent
p2174
V5900
p2175
tp2176
g5
(g6
g7
(dp2177
S'AM_COMMENT'
p2178
Vhttps://www.agilent.com/en/product/atomic-spectroscopy/inductively-coupled-plasma-optical-emission-spectroscopy-icp-oes/icp-oes-instruments/5900-icp-oes
p2179
sS'AM_MANUFACTURER'
p2180
g2174
sS'SYSTIME'
p2181
g5
(g12
g13
(lp2182
g15
(S'\x07\xe7\t\x0f\t\x1e\x16\x0eC\xcc'
p2183
tp2184
Rp2185
aNatp2186
Rp2187
(dp2188
g22
S'[)'
p2189
sbsS'AM_DESC'
p2190
NsS'AM_MODEL'
p2191
g2175
sS'AY_TYPE'
p2192
g2173
stp2193
Rp2194
s(VIC
p2195
VThermo Scientific
p2196
VICS-2000
p2197
tp2198
g5
(g6
g7
(dp2199
S'AM_COMMENT'
p2200
NsS'AM_MANUFACTURER'
p2201
g2196
sS'SYSTIME'
p2202
g5
(g12
g13
(lp2203
g15
(S'\x07\xde\x05\x01\x00\x00\x00\x00\x00\x00'
p2204
tp2205
Rp2206
aNatp2207
Rp2208
(dp2209
g22
S'[)'
p2210
sbsS'AM_DESC'
p2211
NsS'AM_MODEL'
p2212
g2197
sS'AY_TYPE'
p2213
g2195
stp2214
Rp2215
s(VGC-MS
p2216
VAgilent
p2217
V6890N
p2218
tp2219
g5
(g6
g7
(dp2220
S'AM_COMMENT'
p2221
NsS'AM_MANUFACTURER'
p2222
g2217
sS'SYSTIME'
p2223
g5
(g12
g13
(lp2224
g15
(S'\x07\xde\x05\x01\x00\x00\x00\x00\x00\x00'
p2225
tp2226
Rp2227
aNatp2228
Rp2229
(dp2230
g22
S'[)'
p2231
sbsS'AM_DESC'
p2232
NsS'AM_MODEL'
p2233
g2218
sS'AY_TYPE'
p2234
g2216
stp2235
Rp2236
s(VpH_meter
p2237
VHANNA
p2238
VHI 9829
p2239
tp2240
g5
(g6
g7
(dp2241
S'AM_COMMENT'
p2242
NsS'AM_MANUFACTURER'
p2243
g2238
sS'SYSTIME'
p2244
g5
(g12
g13
(lp2245
g15
(S'\x07\xde\x05\x01\x00\x00\x00\x00\x00\x00'
p2246
tp2247
Rp2248
aNatp2249
Rp2250
(dp2251
g22
S'[)'
p2252
sbsS'AM_DESC'
p2253
NsS'AM_MODEL'
p2254
g2239
sS'AY_TYPE'
p2255
g2237
stp2256
Rp2257
s(VpH_meter
p2258
VWTW
p2259
VINOLAB PH 7110
p2260
tp2261
g5
(g6
g7
(dp2262
S'AM_COMMENT'
p2263
NsS'AM_MANUFACTURER'
p2264
g2259
sS'SYSTIME'
p2265
g5
(g12
g13
(lp2266
g15
(S'\x07\xde\x05\x01\x00\x00\x00\x00\x00\x00'
p2267
tp2268
Rp2269
aNatp2270
Rp2271
(dp2272
g22
S'[)'
p2273
sbsS'AM_DESC'
p2274
NsS'AM_MODEL'
p2275
g2260
sS'AY_TYPE'
p2276
g2258
stp2277
Rp2278
s(VICP-AES
p2279
VVarian (Agilent)
p2280
VVarian 725-ES
p2281
tp2282
g5
(g6
g7
(dp2283
S'AM_COMMENT'
p2284
NsS'AM_MANUFACTURER'
p2285
g2280
sS'SYSTIME'
p2286
g5
(g12
g13
(lp2287
g15
(S'\x07\xde\x05\x01\x00\x00\x00\x00\x00\x00'
p2288
tp2289
Rp2290
aNatp2291
Rp2292
(dp2293
g22
S'[)'
p2294
sbsS'AM_DESC'
p2295
NsS'AM_MODEL'
p2296
g2281
sS'AY_TYPE'
p2297
g2279
stp2298
Rp2299
s(VGF-AAS
p2300
VVarian
p2301
VSpectrAA 880Z
p2302
tp2303
g5
(g6
g7
(dp2304
S'AM_COMMENT'
p2305
NsS'AM_MANUFACTURER'
p2306
g2301
sS'SYSTIME'
p2307
g5
(g12
g13
(lp2308
g15
(S'\x07\xde\x05\x01\x00\x00\x00\x00\x00\x00'
p2309
tp2310
Rp2311
aNatp2312
Rp2313
(dp2314
g22
S'[)'
p2315
sbsS'AM_DESC'
p2316
NsS'AM_MODEL'
p2317
g2302
sS'AY_TYPE'
p2318
g2300
stp2319
Rp2320
s(VICP-AES
p2321
VThermo Scientific
p2322
ViCAP 7400 ICP-OES
p2323
tp2324
g5
(g6
g7
(dp2325
S'AM_COMMENT'
p2326
NsS'AM_MANUFACTURER'
p2327
g2322
sS'SYSTIME'
p2328
g5
(g12
g13
(lp2329
g15
(S'\x07\xde\x05\x01\x00\x00\x00\x00\x00\x00'
p2330
tp2331
Rp2332
aNatp2333
Rp2334
(dp2335
g22
S'[)'
p2336
sbsS'AM_DESC'
p2337
NsS'AM_MODEL'
p2338
g2323
sS'AY_TYPE'
p2339
g2321
stp2340
Rp2341
s(VIC
p2342
VDionex
p2343
V2010i
p2344
tp2345
g5
(g6
g7
(dp2346
S'AM_COMMENT'
p2347
NsS'AM_MANUFACTURER'
p2348
g2343
sS'SYSTIME'
p2349
g5
(g12
g13
(lp2350
g15
(S'\x07\xde\x05\x01\x00\x00\x00\x00\x00\x00'
p2351
tp2352
Rp2353
aNatp2354
Rp2355
(dp2356
g22
S'[)'
p2357
sbsS'AM_DESC'
p2358
NsS'AM_MODEL'
p2359
g2344
sS'AY_TYPE'
p2360
g2342
stp2361
Rp2362
s(VIC
p2363
VWaters
p2364
VAlliance system
p2365
tp2366
g5
(g6
g7
(dp2367
S'AM_COMMENT'
p2368
NsS'AM_MANUFACTURER'
p2369
g2364
sS'SYSTIME'
p2370
g5
(g12
g13
(lp2371
g15
(S'\x07\xde\x05\x01\x00\x00\x00\x00\x00\x00'
p2372
tp2373
Rp2374
aNatp2375
Rp2376
(dp2377
g22
S'[)'
p2378
sbsS'AM_DESC'
p2379
NsS'AM_MODEL'
p2380
g2365
sS'AY_TYPE'
p2381
g2363
stp2382
Rp2383
s(Vspectrophotometric
p2384
VThermo Scientific
p2385
VAquakem 200
p2386
tp2387
g5
(g6
g7
(dp2388
S'AM_COMMENT'
p2389
NsS'AM_MANUFACTURER'
p2390
g2385
sS'SYSTIME'
p2391
g5
(g12
g13
(lp2392
g15
(S'\x07\xde\x05\x01\x00\x00\x00\x00\x00\x00'
p2393
tp2394
Rp2395
aNatp2396
Rp2397
(dp2398
g22
S'[)'
p2399
sbsS'AM_DESC'
p2400
NsS'AM_MODEL'
p2401
g2386
sS'AY_TYPE'
p2402
g2384
stp2403
Rp2404
s(VpH_meter
p2405
VWTW
p2406
VProfiLine pH 3310
p2407
tp2408
g5
(g6
g7
(dp2409
S'AM_COMMENT'
p2410
NsS'AM_MANUFACTURER'
p2411
g2406
sS'SYSTIME'
p2412
g5
(g12
g13
(lp2413
g15
(S'\x07\xde\x05\x01\x00\x00\x00\x00\x00\x00'
p2414
tp2415
Rp2416
aNatp2417
Rp2418
(dp2419
g22
S'[)'
p2420
sbsS'AM_DESC'
p2421
NsS'AM_MODEL'
p2422
g2407
sS'AY_TYPE'
p2423
g2405
stp2424
Rp2425
s(Vthermal-optical_analysis
p2426
VDRI/OGC
p2427
VTOR analyzer
p2428
tp2429
g5
(g6
g7
(dp2430
S'AM_COMMENT'
p2431
Vemail JPP
p2432
sS'AM_MANUFACTURER'
p2433
g2427
sS'SYSTIME'
p2434
g5
(g12
g13
(lp2435
g15
(S'\x07\xe6\n\r\x0f\x02\x08\x0by\x1e'
p2436
tp2437
Rp2438
aNatp2439
Rp2440
(dp2441
g22
S'[)'
p2442
sbsS'AM_DESC'
p2443
NsS'AM_MODEL'
p2444
g2428
sS'AY_TYPE'
p2445
g2426
stp2446
Rp2447
s(Vby_weight
p2448
VMettler Toledo
p2449
VSM6000
p2450
tp2451
g5
(g6
g7
(dp2452
S'AM_COMMENT'
p2453
NsS'AM_MANUFACTURER'
p2454
g2449
sS'SYSTIME'
p2455
g5
(g12
g13
(lp2456
g15
(S'\x07\xe9\x05\x17\x0b\x0e$\x06\x00+'
p2457
tp2458
Rp2459
aNatp2460
Rp2461
(dp2462
g22
S'[)'
p2463
sbsS'AM_DESC'
p2464
NsS'AM_MODEL'
p2465
g2450
sS'AY_TYPE'
p2466
g2448
stp2467
Rp2468
s(VICP-AES
p2469
VVarian (Agilent)
p2470
VVarian 730-ES
p2471
tp2472
g5
(g6
g7
(dp2473
S'AM_COMMENT'
p2474
NsS'AM_MANUFACTURER'
p2475
g2470
sS'SYSTIME'
p2476
g5
(g12
g13
(lp2477
g15
(S'\x07\xde\x05\x01\x00\x00\x00\x00\x00\x00'
p2478
tp2479
Rp2480
aNatp2481
Rp2482
(dp2483
g22
S'[)'
p2484
sbsS'AM_DESC'
p2485
NsS'AM_MODEL'
p2486
g2471
sS'AY_TYPE'
p2487
g2469
stp2488
Rp2489
s(VF-AAS
p2490
VPerkinElmer
p2491
VAAnalyst 800
p2492
tp2493
g5
(g6
g7
(dp2494
S'AM_COMMENT'
p2495
NsS'AM_MANUFACTURER'
p2496
g2491
sS'SYSTIME'
p2497
g5
(g12
g13
(lp2498
g15
(S'\x07\xde\x05\x01\x00\x00\x00\x00\x00\x00'
p2499
tp2500
Rp2501
aNatp2502
Rp2503
(dp2504
g22
S'[)'
p2505
sbsS'AM_DESC'
p2506
NsS'AM_MODEL'
p2507
g2492
sS'AY_TYPE'
p2508
g2490
stp2509
Rp2510
s(Vconductivity_meter
p2511
VOMEGA
p2512
VPHB-357
p2513
tp2514
g5
(g6
g7
(dp2515
S'AM_COMMENT'
p2516
NsS'AM_MANUFACTURER'
p2517
g2512
sS'SYSTIME'
p2518
g5
(g12
g13
(lp2519
g15
(S'\x07\xde\x05\x01\x00\x00\x00\x00\x00\x00'
p2520
tp2521
Rp2522
aNatp2523
Rp2524
(dp2525
g22
S'[)'
p2526
sbsS'AM_DESC'
p2527
NsS'AM_MODEL'
p2528
g2513
sS'AY_TYPE'
p2529
g2511
stp2530
Rp2531
s(VGC-MS
p2532
VPerkinElmer
p2533
VClarus 500
p2534
tp2535
g5
(g6
g7
(dp2536
S'AM_COMMENT'
p2537
Vhttps://resources.perkinelmer.com/corporate/content/relatedmaterials/brochures/bro_clarus500gcms.pdf
p2538
sS'AM_MANUFACTURER'
p2539
g2533
sS'SYSTIME'
p2540
g5
(g12
g13
(lp2541
g15
(S'\x07\xe7\x03\x0e\n\x07\x1f\x00D\xa3'
p2542
tp2543
Rp2544
aNatp2545
Rp2546
(dp2547
g22
S'[)'
p2548
sbsS'AM_DESC'
p2549
NsS'AM_MODEL'
p2550
g2534
sS'AY_TYPE'
p2551
g2532
stp2552
Rp2553
s(VIC
p2554
VDionex
p2555
VICS-2100
p2556
tp2557
g5
(g6
g7
(dp2558
S'AM_COMMENT'
p2559
NsS'AM_MANUFACTURER'
p2560
g2555
sS'SYSTIME'
p2561
g5
(g12
g13
(lp2562
g15
(S'\x07\xde\x05\x01\x00\x00\x00\x00\x00\x00'
p2563
tp2564
Rp2565
aNatp2566
Rp2567
(dp2568
g22
S'[)'
p2569
sbsS'AM_DESC'
p2570
NsS'AM_MODEL'
p2571
g2556
sS'AY_TYPE'
p2572
g2554
stp2573
Rp2574
s(VCV-AFS
p2575
VBrooks Rand
p2576
VMERX-T
p2577
tp2578
g5
(g6
g7
(dp2579
S'AM_COMMENT'
p2580
NsS'AM_MANUFACTURER'
p2581
g2576
sS'SYSTIME'
p2582
g5
(g12
g13
(lp2583
g15
(S'\x07\xde\x05\x01\x00\x00\x00\x00\x00\x00'
p2584
tp2585
Rp2586
aNatp2587
Rp2588
(dp2589
g22
S'[)'
p2590
sbsS'AM_DESC'
p2591
NsS'AM_MODEL'
p2592
g2577
sS'AY_TYPE'
p2593
g2575
stp2594
Rp2595
s(VpH_meter
p2596
VYSI
p2597
VTruLab 1320P
p2598
tp2599
g5
(g6
g7
(dp2600
S'AM_COMMENT'
p2601
NsS'AM_MANUFACTURER'
p2602
g2597
sS'SYSTIME'
p2603
g5
(g12
g13
(lp2604
g15
(S'\x07\xde\x05\x01\x00\x00\x00\x00\x00\x00'
p2605
tp2606
Rp2607
aNatp2608
Rp2609
(dp2610
g22
S'[)'
p2611
sbsS'AM_DESC'
p2612
NsS'AM_MODEL'
p2613
g2598
sS'AY_TYPE'
p2614
g2596
stp2615
Rp2616
s(VpH_meter
p2617
VRadiometer Analytical
p2618
VPHM220
p2619
tp2620
g5
(g6
g7
(dp2621
S'AM_COMMENT'
p2622
NsS'AM_MANUFACTURER'
p2623
g2618
sS'SYSTIME'
p2624
g5
(g12
g13
(lp2625
g15
(S'\x07\xde\x05\x01\x00\x00\x00\x00\x00\x00'
p2626
tp2627
Rp2628
aNatp2629
Rp2630
(dp2631
g22
S'[)'
p2632
sbsS'AM_DESC'
p2633
NsS'AM_MODEL'
p2634
g2619
sS'AY_TYPE'
p2635
g2617
stp2636
Rp2637
s(VICP-AES
p2638
VGBC Scientific
p2639
VIntegra XM2
p2640
tp2641
g5
(g6
g7
(dp2642
S'AM_COMMENT'
p2643
NsS'AM_MANUFACTURER'
p2644
g2639
sS'SYSTIME'
p2645
g5
(g12
g13
(lp2646
g15
(S'\x07\xde\x05\x01\x00\x00\x00\x00\x00\x00'
p2647
tp2648
Rp2649
aNatp2650
Rp2651
(dp2652
g22
S'[)'
p2653
sbsS'AM_DESC'
p2654
NsS'AM_MODEL'
p2655
g2640
sS'AY_TYPE'
p2656
g2638
stp2657
Rp2658
s(VpH_meter
p2659
VElmetron
p2660
VCX731
p2661
tp2662
g5
(g6
g7
(dp2663
S'AM_COMMENT'
p2664
NsS'AM_MANUFACTURER'
p2665
g2660
sS'SYSTIME'
p2666
g5
(g12
g13
(lp2667
g15
(S'\x07\xde\x05\x01\x00\x00\x00\x00\x00\x00'
p2668
tp2669
Rp2670
aNatp2671
Rp2672
(dp2673
g22
S'[)'
p2674
sbsS'AM_DESC'
p2675
NsS'AM_MODEL'
p2676
g2661
sS'AY_TYPE'
p2677
g2659
stp2678
Rp2679
s(VICP-MS
p2680
VAgilent
p2681
V7500
p2682
tp2683
g5
(g6
g7
(dp2684
S'AM_COMMENT'
p2685
NsS'AM_MANUFACTURER'
p2686
g2681
sS'SYSTIME'
p2687
g5
(g12
g13
(lp2688
g15
(S'\x07\xde\x05\x01\x00\x00\x00\x00\x00\x00'
p2689
tp2690
Rp2691
aNatp2692
Rp2693
(dp2694
g22
S'[)'
p2695
sbsS'AM_DESC'
p2696
NsS'AM_MODEL'
p2697
g2682
sS'AY_TYPE'
p2698
g2680
stp2699
Rp2700
s(VpH_meter
p2701
VHach Lange - Radiometer
p2702
VpH-meter sensION
p2703
tp2704
g5
(g6
g7
(dp2705
S'AM_COMMENT'
p2706
NsS'AM_MANUFACTURER'
p2707
g2702
sS'SYSTIME'
p2708
g5
(g12
g13
(lp2709
g15
(S'\x07\xde\x05\x01\x00\x00\x00\x00\x00\x00'
p2710
tp2711
Rp2712
aNatp2713
Rp2714
(dp2715
g22
S'[)'
p2716
sbsS'AM_DESC'
p2717
NsS'AM_MODEL'
p2718
g2703
sS'AY_TYPE'
p2719
g2701
stp2720
Rp2721
s(Vconductivity_meter
p2722
VRadiometer Analytical
p2723
VCDM210
p2724
tp2725
g5
(g6
g7
(dp2726
S'AM_COMMENT'
p2727
NsS'AM_MANUFACTURER'
p2728
g2723
sS'SYSTIME'
p2729
g5
(g12
g13
(lp2730
g15
(S'\x07\xde\x05\x01\x00\x00\x00\x00\x00\x00'
p2731
tp2732
Rp2733
aNatp2734
Rp2735
(dp2736
g22
S'[)'
p2737
sbsS'AM_DESC'
p2738
NsS'AM_MODEL'
p2739
g2724
sS'AY_TYPE'
p2740
g2722
stp2741
Rp2742
s(Vspectrophotometric
p2743
VBRAN+LUEBBE
p2744
VAutoanalyzer 3
p2745
tp2746
g5
(g6
g7
(dp2747
S'AM_COMMENT'
p2748
NsS'AM_MANUFACTURER'
p2749
g2744
sS'SYSTIME'
p2750
g5
(g12
g13
(lp2751
g15
(S'\x07\xde\x05\x01\x00\x00\x00\x00\x00\x00'
p2752
tp2753
Rp2754
aNatp2755
Rp2756
(dp2757
g22
S'[)'
p2758
sbsS'AM_DESC'
p2759
NsS'AM_MODEL'
p2760
g2745
sS'AY_TYPE'
p2761
g2743
stp2762
Rp2763
s(VICP-AES
p2764
VPerkinElmer
p2765
VPlasma 1
p2766
tp2767
g5
(g6
g7
(dp2768
S'AM_COMMENT'
p2769
NsS'AM_MANUFACTURER'
p2770
g2765
sS'SYSTIME'
p2771
g5
(g12
g13
(lp2772
g15
(S'\x07\xde\x05\x01\x00\x00\x00\x00\x00\x00'
p2773
tp2774
Rp2775
aNatp2776
Rp2777
(dp2778
g22
S'[)'
p2779
sbsS'AM_DESC'
p2780
NsS'AM_MODEL'
p2781
g2766
sS'AY_TYPE'
p2782
g2764
stp2783
Rp2784
s(VpH_meter
p2785
VOMEGA
p2786
VPHI-359
p2787
tp2788
g5
(g6
g7
(dp2789
S'AM_COMMENT'
p2790
NsS'AM_MANUFACTURER'
p2791
g2786
sS'SYSTIME'
p2792
g5
(g12
g13
(lp2793
g15
(S'\x07\xde\x05\x01\x00\x00\x00\x00\x00\x00'
p2794
tp2795
Rp2796
aNatp2797
Rp2798
(dp2799
g22
S'[)'
p2800
sbsS'AM_DESC'
p2801
NsS'AM_MODEL'
p2802
g2787
sS'AY_TYPE'
p2803
g2785
stp2804
Rp2805
s(VpH_meter
p2806
VSI Analytics
p2807
Vprolab 4000
p2808
tp2809
g5
(g6
g7
(dp2810
S'AM_COMMENT'
p2811
NsS'AM_MANUFACTURER'
p2812
g2807
sS'SYSTIME'
p2813
g5
(g12
g13
(lp2814
g15
(S'\x07\xde\x05\x01\x00\x00\x00\x00\x00\x00'
p2815
tp2816
Rp2817
aNatp2818
Rp2819
(dp2820
g22
S'[)'
p2821
sbsS'AM_DESC'
p2822
NsS'AM_MODEL'
p2823
g2808
sS'AY_TYPE'
p2824
g2806
stp2825
Rp2826
s(VIC
p2827
VDionex
p2828
VICS-5000+
p2829
tp2830
g5
(g6
g7
(dp2831
S'AM_COMMENT'
p2832
NsS'AM_MANUFACTURER'
p2833
g2828
sS'SYSTIME'
p2834
g5
(g12
g13
(lp2835
g15
(S'\x07\xde\x05\x01\x00\x00\x00\x00\x00\x00'
p2836
tp2837
Rp2838
aNatp2839
Rp2840
(dp2841
g22
S'[)'
p2842
sbsS'AM_DESC'
p2843
NsS'AM_MODEL'
p2844
g2829
sS'AY_TYPE'
p2845
g2827
stp2846
Rp2847
s(VICP-AES
p2848
VAgilent Technologies
p2849
VAgilent 735 ICP-OES
p2850
tp2851
g5
(g6
g7
(dp2852
S'AM_COMMENT'
p2853
NsS'AM_MANUFACTURER'
p2854
g2849
sS'SYSTIME'
p2855
g5
(g12
g13
(lp2856
g15
(S'\x07\xde\x05\x01\x00\x00\x00\x00\x00\x00'
p2857
tp2858
Rp2859
aNatp2860
Rp2861
(dp2862
g22
S'[)'
p2863
sbsS'AM_DESC'
p2864
NsS'AM_MODEL'
p2865
g2850
sS'AY_TYPE'
p2866
g2848
stp2867
Rp2868
s(VpH_meter
p2869
VJENWAY
p2870
V3540
p2871
tp2872
g5
(g6
g7
(dp2873
S'AM_COMMENT'
p2874
NsS'AM_MANUFACTURER'
p2875
g2870
sS'SYSTIME'
p2876
g5
(g12
g13
(lp2877
g15
(S'\x07\xde\x05\x01\x00\x00\x00\x00\x00\x00'
p2878
tp2879
Rp2880
aNatp2881
Rp2882
(dp2883
g22
S'[)'
p2884
sbsS'AM_DESC'
p2885
NsS'AM_MODEL'
p2886
g2871
sS'AY_TYPE'
p2887
g2869
stp2888
Rp2889
s(VICP-MS
p2890
VAgilent
p2891
V7800
p2892
tp2893
g5
(g6
g7
(dp2894
S'AM_COMMENT'
p2895
NsS'AM_MANUFACTURER'
p2896
g2891
sS'SYSTIME'
p2897
g5
(g12
g13
(lp2898
g15
(S'\x07\xde\x05\x01\x00\x00\x00\x00\x00\x00'
p2899
tp2900
Rp2901
aNatp2902
Rp2903
(dp2904
g22
S'[)'
p2905
sbsS'AM_DESC'
p2906
NsS'AM_MODEL'
p2907
g2892
sS'AY_TYPE'
p2908
g2890
stp2909
Rp2910
s(VpH_meter
p2911
VThermo Scientific
p2912
VOrion 320
p2913
tp2914
g5
(g6
g7
(dp2915
S'AM_COMMENT'
p2916
NsS'AM_MANUFACTURER'
p2917
g2912
sS'SYSTIME'
p2918
g5
(g12
g13
(lp2919
g15
(S'\x07\xde\x05\x01\x00\x00\x00\x00\x00\x00'
p2920
tp2921
Rp2922
aNatp2923
Rp2924
(dp2925
g22
S'[)'
p2926
sbsS'AM_DESC'
p2927
NsS'AM_MODEL'
p2928
g2913
sS'AY_TYPE'
p2929
g2911
stp2930
Rp2931
s(VHPLC
p2932
VShimadzu
p2933
VNEXERA X2
p2934
tp2935
g5
(g6
g7
(dp2936
S'AM_COMMENT'
p2937
NsS'AM_MANUFACTURER'
p2938
g2933
sS'SYSTIME'
p2939
g5
(g12
g13
(lp2940
g15
(S'\x07\xe8\t\x11\x0e\x04\x07\x0c+\xb0'
p2941
tp2942
Rp2943
aNatp2944
Rp2945
(dp2946
g22
S'[)'
p2947
sbsS'AM_DESC'
p2948
NsS'AM_MODEL'
p2949
g2934
sS'AY_TYPE'
p2950
g2932
stp2951
Rp2952
s(Vspectrophotometric
p2953
VThermo Scientific
p2954
VAquakem 250
p2955
tp2956
g5
(g6
g7
(dp2957
S'AM_COMMENT'
p2958
NsS'AM_MANUFACTURER'
p2959
g2954
sS'SYSTIME'
p2960
g5
(g12
g13
(lp2961
g15
(S'\x07\xde\x05\x01\x00\x00\x00\x00\x00\x00'
p2962
tp2963
Rp2964
aNatp2965
Rp2966
(dp2967
g22
S'[)'
p2968
sbsS'AM_DESC'
p2969
NsS'AM_MODEL'
p2970
g2955
sS'AY_TYPE'
p2971
g2953
stp2972
Rp2973
s(VICP-AES
p2974
VGBC Scientific
p2975
VIntegra XPM
p2976
tp2977
g5
(g6
g7
(dp2978
S'AM_COMMENT'
p2979
NsS'AM_MANUFACTURER'
p2980
g2975
sS'SYSTIME'
p2981
g5
(g12
g13
(lp2982
g15
(S'\x07\xde\x05\x01\x00\x00\x00\x00\x00\x00'
p2983
tp2984
Rp2985
aNatp2986
Rp2987
(dp2988
g22
S'[)'
p2989
sbsS'AM_DESC'
p2990
NsS'AM_MODEL'
p2991
g2976
sS'AY_TYPE'
p2992
g2974
stp2993
Rp2994
s(VGC-MS
p2995
VHewlett Packard+Hewlett Packard
p2996
V5890+5970
p2997
tp2998
g5
(g6
g7
(dp2999
S'AM_COMMENT'
p3000
NsS'AM_MANUFACTURER'
p3001
g2996
sS'SYSTIME'
p3002
g5
(g12
g13
(lp3003
g15
(S'\x07\xea\x01\x06\r\x04\x1b\x03+.'
p3004
tp3005
Rp3006
aNatp3007
Rp3008
(dp3009
g22
S'[)'
p3010
sbsS'AM_DESC'
p3011
NsS'AM_MODEL'
p3012
g2997
sS'AY_TYPE'
p3013
g2995
stp3014
Rp3015
s(VpH_meter
p3016
VMettler-Toledo
p3017
VFiveEasy Plus
p3018
tp3019
g5
(g6
g7
(dp3020
S'AM_COMMENT'
p3021
NsS'AM_MANUFACTURER'
p3022
g3017
sS'SYSTIME'
p3023
g5
(g12
g13
(lp3024
g15
(S'\x07\xde\x05\x01\x00\x00\x00\x00\x00\x00'
p3025
tp3026
Rp3027
aNatp3028
Rp3029
(dp3030
g22
S'[)'
p3031
sbsS'AM_DESC'
p3032
NsS'AM_MODEL'
p3033
g3018
sS'AY_TYPE'
p3034
g3016
stp3035
Rp3036
s(VCV-AFS
p3037
VTekran
p3038
V2600
p3039
tp3040
g5
(g6
g7
(dp3041
S'AM_COMMENT'
p3042
NsS'AM_MANUFACTURER'
p3043
g3038
sS'SYSTIME'
p3044
g5
(g12
g13
(lp3045
g15
(S'\x07\xde\x05\x01\x00\x00\x00\x00\x00\x00'
p3046
tp3047
Rp3048
aNatp3049
Rp3050
(dp3051
g22
S'[)'
p3052
sbsS'AM_DESC'
p3053
NsS'AM_MODEL'
p3054
g3039
sS'AY_TYPE'
p3055
g3037
stp3056
Rp3057
s(VpH_meter
p3058
VWTW
p3059
VGLP meter pH 540
p3060
tp3061
g5
(g6
g7
(dp3062
S'AM_COMMENT'
p3063
NsS'AM_MANUFACTURER'
p3064
g3059
sS'SYSTIME'
p3065
g5
(g12
g13
(lp3066
g15
(S'\x07\xde\x05\x01\x00\x00\x00\x00\x00\x00'
p3067
tp3068
Rp3069
aNatp3070
Rp3071
(dp3072
g22
S'[)'
p3073
sbsS'AM_DESC'
p3074
NsS'AM_MODEL'
p3075
g3060
sS'AY_TYPE'
p3076
g3058
stp3077
Rp3078
s(VICP-AES
p3079
VSPECTRO
p3080
VSPECTRO GENESIS
p3081
tp3082
g5
(g6
g7
(dp3083
S'AM_COMMENT'
p3084
NsS'AM_MANUFACTURER'
p3085
g3080
sS'SYSTIME'
p3086
g5
(g12
g13
(lp3087
g15
(S'\x07\xde\x05\x01\x00\x00\x00\x00\x00\x00'
p3088
tp3089
Rp3090
aNatp3091
Rp3092
(dp3093
g22
S'[)'
p3094
sbsS'AM_DESC'
p3095
NsS'AM_MODEL'
p3096
g3081
sS'AY_TYPE'
p3097
g3079
stp3098
Rp3099
s(VCF-IRMS
p3100
VThermo Fisher Scientific
p3101
VDelta Plus XP
p3102
tp3103
g5
(g6
g7
(dp3104
S'AM_COMMENT'
p3105
NsS'AM_MANUFACTURER'
p3106
g3101
sS'SYSTIME'
p3107
g5
(g12
g13
(lp3108
g15
(S'\x07\xe7\x06\x14\x0e\x1f8\x02\xa3\x8c'
p3109
tp3110
Rp3111
aNatp3112
Rp3113
(dp3114
g22
S'[)'
p3115
sbsS'AM_DESC'
p3116
NsS'AM_MODEL'
p3117
g3102
sS'AY_TYPE'
p3118
g3100
stp3119
Rp3120
s(VICP-MS
p3121
VPerkinElmer
p3122
VELAN 6000
p3123
tp3124
g5
(g6
g7
(dp3125
S'AM_COMMENT'
p3126
NsS'AM_MANUFACTURER'
p3127
g3122
sS'SYSTIME'
p3128
g5
(g12
g13
(lp3129
g15
(S'\x07\xde\x05\x01\x00\x00\x00\x00\x00\x00'
p3130
tp3131
Rp3132
aNatp3133
Rp3134
(dp3135
g22
S'[)'
p3136
sbsS'AM_DESC'
p3137
NsS'AM_MODEL'
p3138
g3123
sS'AY_TYPE'
p3139
g3121
stp3140
Rp3141
s(VICP-MS
p3142
VAgilent
p3143
V7700e
p3144
tp3145
g5
(g6
g7
(dp3146
S'AM_COMMENT'
p3147
NsS'AM_MANUFACTURER'
p3148
g3143
sS'SYSTIME'
p3149
g5
(g12
g13
(lp3150
g15
(S'\x07\xde\x05\x01\x00\x00\x00\x00\x00\x00'
p3151
tp3152
Rp3153
aNatp3154
Rp3155
(dp3156
g22
S'[)'
p3157
sbsS'AM_DESC'
p3158
NsS'AM_MODEL'
p3159
g3144
sS'AY_TYPE'
p3160
g3142
stp3161
Rp3162
s(Vspectrophotometric_griess
p3163
VBran+Luebbe
p3164
VAutoanalyzer 3
p3165
tp3166
g5
(g6
g7
(dp3167
S'AM_COMMENT'
p3168
NsS'AM_MANUFACTURER'
p3169
g3164
sS'SYSTIME'
p3170
g5
(g12
g13
(lp3171
g15
(S'\x07\xde\x05\x01\x00\x00\x00\x00\x00\x00'
p3172
tp3173
Rp3174
aNatp3175
Rp3176
(dp3177
g22
S'[)'
p3178
sbsS'AM_DESC'
p3179
NsS'AM_MODEL'
p3180
g3165
sS'AY_TYPE'
p3181
g3163
stp3182
Rp3183
s(VpH_meter
p3184
VYSI
p3185
VTruLab 1310
p3186
tp3187
g5
(g6
g7
(dp3188
S'AM_COMMENT'
p3189
NsS'AM_MANUFACTURER'
p3190
g3185
sS'SYSTIME'
p3191
g5
(g12
g13
(lp3192
g15
(S'\x07\xde\x05\x01\x00\x00\x00\x00\x00\x00'
p3193
tp3194
Rp3195
aNatp3196
Rp3197
(dp3198
g22
S'[)'
p3199
sbsS'AM_DESC'
p3200
NsS'AM_MODEL'
p3201
g3186
sS'AY_TYPE'
p3202
g3184
stp3203
Rp3204
s(VpH_meter
p3205
VHANNA
p3206
VHI 2215
p3207
tp3208
g5
(g6
g7
(dp3209
S'AM_COMMENT'
p3210
NsS'AM_MANUFACTURER'
p3211
g3206
sS'SYSTIME'
p3212
g5
(g12
g13
(lp3213
g15
(S'\x07\xde\x05\x01\x00\x00\x00\x00\x00\x00'
p3214
tp3215
Rp3216
aNatp3217
Rp3218
(dp3219
g22
S'[)'
p3220
sbsS'AM_DESC'
p3221
NsS'AM_MODEL'
p3222
g3207
sS'AY_TYPE'
p3223
g3205
stp3224
Rp3225
s(VHPLC
p3226
VThermo Scientific
p3227
VUltimate 3000
p3228
tp3229
g5
(g6
g7
(dp3230
S'AM_COMMENT'
p3231
NsS'AM_MANUFACTURER'
p3232
g3227
sS'SYSTIME'
p3233
g5
(g12
g13
(lp3234
g15
(S"\x07\xe6\x0c\r\r*'\x01\xe3\xa0"
p3235
tp3236
Rp3237
aNatp3238
Rp3239
(dp3240
g22
S'[)'
p3241
sbsS'AM_DESC'
p3242
NsS'AM_MODEL'
p3243
g3228
sS'AY_TYPE'
p3244
g3226
stp3245
Rp3246
s(VICP-AES
p3247
VPerkinElmer
p3248
VPlasma 400
p3249
tp3250
g5
(g6
g7
(dp3251
S'AM_COMMENT'
p3252
NsS'AM_MANUFACTURER'
p3253
g3248
sS'SYSTIME'
p3254
g5
(g12
g13
(lp3255
g15
(S'\x07\xde\x05\x01\x00\x00\x00\x00\x00\x00'
p3256
tp3257
Rp3258
aNatp3259
Rp3260
(dp3261
g22
S'[)'
p3262
sbsS'AM_DESC'
p3263
NsS'AM_MODEL'
p3264
g3249
sS'AY_TYPE'
p3265
g3247
stp3266
Rp3267
s(VICP-AES
p3268
VPerkinElmer
p3269
VOptima 3200XL
p3270
tp3271
g5
(g6
g7
(dp3272
S'AM_COMMENT'
p3273
NsS'AM_MANUFACTURER'
p3274
g3269
sS'SYSTIME'
p3275
g5
(g12
g13
(lp3276
g15
(S'\x07\xde\x05\x01\x00\x00\x00\x00\x00\x00'
p3277
tp3278
Rp3279
aNatp3280
Rp3281
(dp3282
g22
S'[)'
p3283
sbsS'AM_DESC'
p3284
NsS'AM_MODEL'
p3285
g3270
sS'AY_TYPE'
p3286
g3268
stp3287
Rp3288
s(VICP-AES
p3289
VPerkinElmer
p3290
VOptima 3000DV
p3291
tp3292
g5
(g6
g7
(dp3293
S'AM_COMMENT'
p3294
NsS'AM_MANUFACTURER'
p3295
g3290
sS'SYSTIME'
p3296
g5
(g12
g13
(lp3297
g15
(S'\x07\xde\x05\x01\x00\x00\x00\x00\x00\x00'
p3298
tp3299
Rp3300
aNatp3301
Rp3302
(dp3303
g22
S'[)'
p3304
sbsS'AM_DESC'
p3305
NsS'AM_MODEL'
p3306
g3291
sS'AY_TYPE'
p3307
g3289
stp3308
Rp3309
s(VpH_meter
p3310
VWTW
p3311
VINOLAB PH/ION 7320 BNC
p3312
tp3313
g5
(g6
g7
(dp3314
S'AM_COMMENT'
p3315
NsS'AM_MANUFACTURER'
p3316
g3311
sS'SYSTIME'
p3317
g5
(g12
g13
(lp3318
g15
(S'\x07\xde\x05\x01\x00\x00\x00\x00\x00\x00'
p3319
tp3320
Rp3321
aNatp3322
Rp3323
(dp3324
g22
S'[)'
p3325
sbsS'AM_DESC'
p3326
NsS'AM_MODEL'
p3327
g3312
sS'AY_TYPE'
p3328
g3310
stp3329
Rp3330
s(VpH_meter
p3331
VMetrohm
p3332
V780 pH Meter
p3333
tp3334
g5
(g6
g7
(dp3335
S'AM_COMMENT'
p3336
NsS'AM_MANUFACTURER'
p3337
g3332
sS'SYSTIME'
p3338
g5
(g12
g13
(lp3339
g15
(S'\x07\xde\x05\x01\x00\x00\x00\x00\x00\x00'
p3340
tp3341
Rp3342
aNatp3343
Rp3344
(dp3345
g22
S'[)'
p3346
sbsS'AM_DESC'
p3347
NsS'AM_MODEL'
p3348
g3333
sS'AY_TYPE'
p3349
g3331
stp3350
Rp3351
s(VpH_meter
p3352
VHach Lange - Radiometer
p3353
VpH-meter-H260GB-BNDL
p3354
tp3355
g5
(g6
g7
(dp3356
S'AM_COMMENT'
p3357
NsS'AM_MANUFACTURER'
p3358
g3353
sS'SYSTIME'
p3359
g5
(g12
g13
(lp3360
g15
(S'\x07\xde\x05\x01\x00\x00\x00\x00\x00\x00'
p3361
tp3362
Rp3363
aNatp3364
Rp3365
(dp3366
g22
S'[)'
p3367
sbsS'AM_DESC'
p3368
NsS'AM_MODEL'
p3369
g3354
sS'AY_TYPE'
p3370
g3352
stp3371
Rp3372
s(VpH_meter
p3373
VJENWAY
p3374
VPH METER Model 3520
p3375
tp3376
g5
(g6
g7
(dp3377
S'AM_COMMENT'
p3378
NsS'AM_MANUFACTURER'
p3379
g3374
sS'SYSTIME'
p3380
g5
(g12
g13
(lp3381
g15
(S'\x07\xde\x05\x01\x00\x00\x00\x00\x00\x00'
p3382
tp3383
Rp3384
aNatp3385
Rp3386
(dp3387
g22
S'[)'
p3388
sbsS'AM_DESC'
p3389
NsS'AM_MODEL'
p3390
g3375
sS'AY_TYPE'
p3391
g3373
stp3392
Rp3393
s(VGC-MS
p3394
VAGAGE+Agilent+Agilent
p3395
VMEDUSA+6890N+5975B
p3396
tp3397
g5
(g6
g7
(dp3398
S'AM_COMMENT'
p3399
V
p3400
sS'AM_MANUFACTURER'
p3401
g3395
sS'SYSTIME'
p3402
g5
(g12
g13
(lp3403
g15
(S'\x07\xe8\x04\x0f\x0b\t4\x0e=\x07'
p3404
tp3405
Rp3406
aNatp3407
Rp3408
(dp3409
g22
S'[)'
p3410
sbsS'AM_DESC'
p3411
g3400
sS'AM_MODEL'
p3412
g3396
sS'AY_TYPE'
p3413
g3394
stp3414
Rp3415
s(Vspectrophotometric
p3416
VSHIMADZU
p3417
VUV-1201
p3418
tp3419
g5
(g6
g7
(dp3420
S'AM_COMMENT'
p3421
NsS'AM_MANUFACTURER'
p3422
g3417
sS'SYSTIME'
p3423
g5
(g12
g13
(lp3424
g15
(S'\x07\xde\x05\x01\x00\x00\x00\x00\x00\x00'
p3425
tp3426
Rp3427
aNatp3428
Rp3429
(dp3430
g22
S'[)'
p3431
sbsS'AM_DESC'
p3432
NsS'AM_MODEL'
p3433
g3418
sS'AY_TYPE'
p3434
g3416
stp3435
Rp3436
s(VGF-AAS
p3437
VUnicam
p3438
VSolar 989 QZ
p3439
tp3440
g5
(g6
g7
(dp3441
S'AM_COMMENT'
p3442
NsS'AM_MANUFACTURER'
p3443
g3438
sS'SYSTIME'
p3444
g5
(g12
g13
(lp3445
g15
(S'\x07\xde\x05\x01\x00\x00\x00\x00\x00\x00'
p3446
tp3447
Rp3448
aNatp3449
Rp3450
(dp3451
g22
S'[)'
p3452
sbsS'AM_DESC'
p3453
NsS'AM_MODEL'
p3454
g3439
sS'AY_TYPE'
p3455
g3437
stp3456
Rp3457
s(VpH_meter
p3458
VOMEGA
p3459
VPHB-600R
p3460
tp3461
g5
(g6
g7
(dp3462
S'AM_COMMENT'
p3463
NsS'AM_MANUFACTURER'
p3464
g3459
sS'SYSTIME'
p3465
g5
(g12
g13
(lp3466
g15
(S'\x07\xde\x05\x01\x00\x00\x00\x00\x00\x00'
p3467
tp3468
Rp3469
aNatp3470
Rp3471
(dp3472
g22
S'[)'
p3473
sbsS'AM_DESC'
p3474
NsS'AM_MODEL'
p3475
g3460
sS'AY_TYPE'
p3476
g3458
stp3477
Rp3478
s(VICP-MS
p3479
VThermo
p3480
VX Series II
p3481
tp3482
g5
(g6
g7
(dp3483
S'AM_COMMENT'
p3484
NsS'AM_MANUFACTURER'
p3485
g3480
sS'SYSTIME'
p3486
g5
(g12
g13
(lp3487
g15
(S'\x07\xde\x05\x01\x00\x00\x00\x00\x00\x00'
p3488
tp3489
Rp3490
aNatp3491
Rp3492
(dp3493
g22
S'[)'
p3494
sbsS'AM_DESC'
p3495
NsS'AM_MODEL'
p3496
g3481
sS'AY_TYPE'
p3497
g3479
stp3498
Rp3499
s(VGC-FID
p3500
VHewlett Packard
p3501
VHP-5890 series II
p3502
tp3503
g5
(g6
g7
(dp3504
S'AM_COMMENT'
p3505
NsS'AM_MANUFACTURER'
p3506
g3501
sS'SYSTIME'
p3507
g5
(g12
g13
(lp3508
g15
(S'\x07\xde\x05\x01\x00\x00\x00\x00\x00\x00'
p3509
tp3510
Rp3511
aNatp3512
Rp3513
(dp3514
g22
S'[)'
p3515
sbsS'AM_DESC'
p3516
NsS'AM_MODEL'
p3517
g3502
sS'AY_TYPE'
p3518
g3500
stp3519
Rp3520
s(VpH_meter
p3521
VThermo Scientific
p3522
VOrion Star A211 pH
p3523
tp3524
g5
(g6
g7
(dp3525
S'AM_COMMENT'
p3526
NsS'AM_MANUFACTURER'
p3527
g3522
sS'SYSTIME'
p3528
g5
(g12
g13
(lp3529
g15
(S'\x07\xde\x05\x01\x00\x00\x00\x00\x00\x00'
p3530
tp3531
Rp3532
aNatp3533
Rp3534
(dp3535
g22
S'[)'
p3536
sbsS'AM_DESC'
p3537
NsS'AM_MODEL'
p3538
g3523
sS'AY_TYPE'
p3539
g3521
stp3540
Rp3541
s(VpH_meter
p3542
VYSI
p3543
VTruLab 1320
p3544
tp3545
g5
(g6
g7
(dp3546
S'AM_COMMENT'
p3547
NsS'AM_MANUFACTURER'
p3548
g3543
sS'SYSTIME'
p3549
g5
(g12
g13
(lp3550
g15
(S'\x07\xde\x05\x01\x00\x00\x00\x00\x00\x00'
p3551
tp3552
Rp3553
aNatp3554
Rp3555
(dp3556
g22
S'[)'
p3557
sbsS'AM_DESC'
p3558
NsS'AM_MODEL'
p3559
g3544
sS'AY_TYPE'
p3560
g3542
stp3561
Rp3562
s(VGC-MS
p3563
VAgilent+Agilent
p3564
V6890N+5973
p3565
tp3566
g5
(g6
g7
(dp3567
S'AM_COMMENT'
p3568
NsS'AM_MANUFACTURER'
p3569
g3564
sS'SYSTIME'
p3570
g5
(g12
g13
(lp3571
g15
(S'\x07\xde\x05\x01\x00\x00\x00\x00\x00\x00'
p3572
tp3573
Rp3574
aNatp3575
Rp3576
(dp3577
g22
S'[)'
p3578
sbsS'AM_DESC'
p3579
NsS'AM_MODEL'
p3580
g3565
sS'AY_TYPE'
p3581
g3563
stp3582
Rp3583
s(VHPLC-MS/MS
p3584
VAgilent Technologies+Sciex
p3585
VAgilent 1100 Series+API 2000
p3586
tp3587
g5
(g6
g7
(dp3588
S'AM_COMMENT'
p3589
NsS'AM_MANUFACTURER'
p3590
g3585
sS'SYSTIME'
p3591
g5
(g12
g13
(lp3592
g15
(S'\x07\xe7\x01\x0c\x0c$\x11\x06\xd4\x8b'
p3593
tp3594
Rp3595
aNatp3596
Rp3597
(dp3598
g22
S'[)'
p3599
sbsS'AM_DESC'
p3600
NsS'AM_MODEL'
p3601
g3586
sS'AY_TYPE'
p3602
g3584
stp3603
Rp3604
s(VICP-AES
p3605
VAgilent Technologies
p3606
VAgilent 5100 Dual View ICP-OES
p3607
tp3608
g5
(g6
g7
(dp3609
S'AM_COMMENT'
p3610
NsS'AM_MANUFACTURER'
p3611
g3606
sS'SYSTIME'
p3612
g5
(g12
g13
(lp3613
g15
(S'\x07\xde\x05\x01\x00\x00\x00\x00\x00\x00'
p3614
tp3615
Rp3616
aNatp3617
Rp3618
(dp3619
g22
S'[)'
p3620
sbsS'AM_DESC'
p3621
NsS'AM_MODEL'
p3622
g3607
sS'AY_TYPE'
p3623
g3605
stp3624
Rp3625
s(Vconductivity_meter
p3626
VThermo Scientific
p3627
VOrion Star A112
p3628
tp3629
g5
(g6
g7
(dp3630
S'AM_COMMENT'
p3631
NsS'AM_MANUFACTURER'
p3632
g3627
sS'SYSTIME'
p3633
g5
(g12
g13
(lp3634
g15
(S'\x07\xde\x05\x01\x00\x00\x00\x00\x00\x00'
p3635
tp3636
Rp3637
aNatp3638
Rp3639
(dp3640
g22
S'[)'
p3641
sbsS'AM_DESC'
p3642
NsS'AM_MODEL'
p3643
g3628
sS'AY_TYPE'
p3644
g3626
stp3645
Rp3646
s(VIC
p3647
VThermo Scientific
p3648
VICS-3000
p3649
tp3650
g5
(g6
g7
(dp3651
S'AM_COMMENT'
p3652
NsS'AM_MANUFACTURER'
p3653
g3648
sS'SYSTIME'
p3654
g5
(g12
g13
(lp3655
g15
(S'\x07\xde\x05\x01\x00\x00\x00\x00\x00\x00'
p3656
tp3657
Rp3658
aNatp3659
Rp3660
(dp3661
g22
S'[)'
p3662
sbsS'AM_DESC'
p3663
NsS'AM_MODEL'
p3664
g3649
sS'AY_TYPE'
p3665
g3647
stp3666
Rp3667
s(Vspectrophotometric
p3668
VThermo Scientific
p3669
VGallery Plus
p3670
tp3671
g5
(g6
g7
(dp3672
S'AM_COMMENT'
p3673
NsS'AM_MANUFACTURER'
p3674
g3669
sS'SYSTIME'
p3675
g5
(g12
g13
(lp3676
g15
(S'\x07\xde\x05\x01\x00\x00\x00\x00\x00\x00'
p3677
tp3678
Rp3679
aNatp3680
Rp3681
(dp3682
g22
S'[)'
p3683
sbsS'AM_DESC'
p3684
NsS'AM_MODEL'
p3685
g3670
sS'AY_TYPE'
p3686
g3668
stp3687
Rp3688
s(Vthermal-optical_analysis
p3689
VSunset Laboratory
p3690
VOCEC Lab Instrument Model 5
p3691
tp3692
g5
(g6
g7
(dp3693
S'AM_COMMENT'
p3694
NsS'AM_MANUFACTURER'
p3695
g3690
sS'SYSTIME'
p3696
g5
(g12
g13
(lp3697
g15
(S'\x07\xde\x05\x01\x00\x00\x00\x00\x00\x00'
p3698
tp3699
Rp3700
aNatp3701
Rp3702
(dp3703
g22
S'[)'
p3704
sbsS'AM_DESC'
p3705
NsS'AM_MODEL'
p3706
g3691
sS'AY_TYPE'
p3707
g3689
stp3708
Rp3709
s(VICP-AES
p3710
VPerkinElmer
p3711
VOptima 3000XL
p3712
tp3713
g5
(g6
g7
(dp3714
S'AM_COMMENT'
p3715
NsS'AM_MANUFACTURER'
p3716
g3711
sS'SYSTIME'
p3717
g5
(g12
g13
(lp3718
g15
(S'\x07\xde\x05\x01\x00\x00\x00\x00\x00\x00'
p3719
tp3720
Rp3721
aNatp3722
Rp3723
(dp3724
g22
S'[)'
p3725
sbsS'AM_DESC'
p3726
NsS'AM_MODEL'
p3727
g3712
sS'AY_TYPE'
p3728
g3710
stp3729
Rp3730
s(VpH_meter
p3731
VSI Analytics
p3732
Vlab 870 bnc
p3733
tp3734
g5
(g6
g7
(dp3735
S'AM_COMMENT'
p3736
NsS'AM_MANUFACTURER'
p3737
g3732
sS'SYSTIME'
p3738
g5
(g12
g13
(lp3739
g15
(S'\x07\xde\x05\x01\x00\x00\x00\x00\x00\x00'
p3740
tp3741
Rp3742
aNatp3743
Rp3744
(dp3745
g22
S'[)'
p3746
sbsS'AM_DESC'
p3747
NsS'AM_MODEL'
p3748
g3733
sS'AY_TYPE'
p3749
g3731
stp3750
Rp3751
s(VCV-AFS
p3752
VP S Analytical
p3753
VSir Galahad
p3754
tp3755
g5
(g6
g7
(dp3756
S'AM_COMMENT'
p3757
NsS'AM_MANUFACTURER'
p3758
g3753
sS'SYSTIME'
p3759
g5
(g12
g13
(lp3760
g15
(S'\x07\xde\x05\x01\x00\x00\x00\x00\x00\x00'
p3761
tp3762
Rp3763
aNatp3764
Rp3765
(dp3766
g22
S'[)'
p3767
sbsS'AM_DESC'
p3768
NsS'AM_MODEL'
p3769
g3754
sS'AY_TYPE'
p3770
g3752
stp3771
Rp3772
s(Vconductivity_meter
p3773
VMettler-Toledo
p3774
VFE30 - FiveEasy
p3775
tp3776
g5
(g6
g7
(dp3777
S'AM_COMMENT'
p3778
NsS'AM_MANUFACTURER'
p3779
g3774
sS'SYSTIME'
p3780
g5
(g12
g13
(lp3781
g15
(S'\x07\xde\x05\x01\x00\x00\x00\x00\x00\x00'
p3782
tp3783
Rp3784
aNatp3785
Rp3786
(dp3787
g22
S'[)'
p3788
sbsS'AM_DESC'
p3789
NsS'AM_MODEL'
p3790
g3775
sS'AY_TYPE'
p3791
g3773
stp3792
Rp3793
s(VHPLC
p3794
VWaters+Waters
p3795
V2695+2475
p3796
tp3797
g5
(g6
g7
(dp3798
S'AM_COMMENT'
p3799
NsS'AM_MANUFACTURER'
p3800
g3795
sS'SYSTIME'
p3801
g5
(g12
g13
(lp3802
g15
(S'\x07\xde\x05\x01\x00\x00\x00\x00\x00\x00'
p3803
tp3804
Rp3805
aNatp3806
Rp3807
(dp3808
g22
S'[)'
p3809
sbsS'AM_DESC'
p3810
NsS'AM_MODEL'
p3811
g3796
sS'AY_TYPE'
p3812
g3794
stp3813
Rp3814
s(VIC
p3815
VThermo Scientific
p3816
VICS-90A
p3817
tp3818
g5
(g6
g7
(dp3819
S'AM_COMMENT'
p3820
NsS'AM_MANUFACTURER'
p3821
g3816
sS'SYSTIME'
p3822
g5
(g12
g13
(lp3823
g15
(S'\x07\xde\x05\x01\x00\x00\x00\x00\x00\x00'
p3824
tp3825
Rp3826
aNatp3827
Rp3828
(dp3829
g22
S'[)'
p3830
sbsS'AM_DESC'
p3831
NsS'AM_MODEL'
p3832
g3817
sS'AY_TYPE'
p3833
g3815
stp3834
Rp3835
s(Vconductivity_meter
p3836
VElmetron
p3837
VCX731
p3838
tp3839
g5
(g6
g7
(dp3840
S'AM_COMMENT'
p3841
NsS'AM_MANUFACTURER'
p3842
g3837
sS'SYSTIME'
p3843
g5
(g12
g13
(lp3844
g15
(S'\x07\xde\x05\x01\x00\x00\x00\x00\x00\x00'
p3845
tp3846
Rp3847
aNatp3848
Rp3849
(dp3850
g22
S'[)'
p3851
sbsS'AM_DESC'
p3852
NsS'AM_MODEL'
p3853
g3838
sS'AY_TYPE'
p3854
g3836
stp3855
Rp3856
s(VCV-AFS
p3857
VP S Analytical
p3858
VMillennium Merlin
p3859
tp3860
g5
(g6
g7
(dp3861
S'AM_COMMENT'
p3862
NsS'AM_MANUFACTURER'
p3863
g3858
sS'SYSTIME'
p3864
g5
(g12
g13
(lp3865
g15
(S'\x07\xde\x05\x01\x00\x00\x00\x00\x00\x00'
p3866
tp3867
Rp3868
aNatp3869
Rp3870
(dp3871
g22
S'[)'
p3872
sbsS'AM_DESC'
p3873
NsS'AM_MODEL'
p3874
g3859
sS'AY_TYPE'
p3875
g3857
stp3876
Rp3877
s(Vconductivity_meter
p3878
VThermo Scientific
p3879
VOrion Star A212
p3880
tp3881
g5
(g6
g7
(dp3882
S'AM_COMMENT'
p3883
NsS'AM_MANUFACTURER'
p3884
g3879
sS'SYSTIME'
p3885
g5
(g12
g13
(lp3886
g15
(S'\x07\xde\x05\x01\x00\x00\x00\x00\x00\x00'
p3887
tp3888
Rp3889
aNatp3890
Rp3891
(dp3892
g22
S'[)'
p3893
sbsS'AM_DESC'
p3894
NsS'AM_MODEL'
p3895
g3880
sS'AY_TYPE'
p3896
g3878
stp3897
Rp3898
s(VUHPLC-MS
p3899
VThermo Scientific
p3900
VQ Exactive Plus
p3901
tp3902
g5
(g6
g7
(dp3903
S'AM_COMMENT'
p3904
NsS'AM_MANUFACTURER'
p3905
g3900
sS'SYSTIME'
p3906
g5
(g12
g13
(lp3907
g15
(S'\x07\xde\x05\x01\x00\x00\x00\x00\x00\x00'
p3908
tp3909
Rp3910
aNatp3911
Rp3912
(dp3913
g22
S'[)'
p3914
sbsS'AM_DESC'
p3915
NsS'AM_MODEL'
p3916
g3901
sS'AY_TYPE'
p3917
g3899
stp3918
Rp3919
s(VICP-MS
p3920
VThermo (VG)
p3921
VX Series
p3922
tp3923
g5
(g6
g7
(dp3924
S'AM_COMMENT'
p3925
NsS'AM_MANUFACTURER'
p3926
g3921
sS'SYSTIME'
p3927
g5
(g12
g13
(lp3928
g15
(S'\x07\xde\x05\x01\x00\x00\x00\x00\x00\x00'
p3929
tp3930
Rp3931
aNatp3932
Rp3933
(dp3934
g22
S'[)'
p3935
sbsS'AM_DESC'
p3936
NsS'AM_MODEL'
p3937
g3922
sS'AY_TYPE'
p3938
g3920
stp3939
Rp3940
s(VICP-AES
p3941
VThermo Scientific
p3942
ViCAP 7600 ICP-OES
p3943
tp3944
g5
(g6
g7
(dp3945
S'AM_COMMENT'
p3946
NsS'AM_MANUFACTURER'
p3947
g3942
sS'SYSTIME'
p3948
g5
(g12
g13
(lp3949
g15
(S'\x07\xde\x05\x01\x00\x00\x00\x00\x00\x00'
p3950
tp3951
Rp3952
aNatp3953
Rp3954
(dp3955
g22
S'[)'
p3956
sbsS'AM_DESC'
p3957
NsS'AM_MODEL'
p3958
g3943
sS'AY_TYPE'
p3959
g3941
stp3960
Rp3961
s(VpH_meter
p3962
VMettler-Toledo
p3963
VSevenExcellence
p3964
tp3965
g5
(g6
g7
(dp3966
S'AM_COMMENT'
p3967
NsS'AM_MANUFACTURER'
p3968
g3963
sS'SYSTIME'
p3969
g5
(g12
g13
(lp3970
g15
(S'\x07\xde\x05\x01\x00\x00\x00\x00\x00\x00'
p3971
tp3972
Rp3973
aNatp3974
Rp3975
(dp3976
g22
S'[)'
p3977
sbsS'AM_DESC'
p3978
NsS'AM_MODEL'
p3979
g3964
sS'AY_TYPE'
p3980
g3962
stp3981
Rp3982
s(VICP-MS
p3983
VPerkinElmer
p3984
VELAN 6100DRC
p3985
tp3986
g5
(g6
g7
(dp3987
S'AM_COMMENT'
p3988
NsS'AM_MANUFACTURER'
p3989
g3984
sS'SYSTIME'
p3990
g5
(g12
g13
(lp3991
g15
(S'\x07\xde\x05\x01\x00\x00\x00\x00\x00\x00'
p3992
tp3993
Rp3994
aNatp3995
Rp3996
(dp3997
g22
S'[)'
p3998
sbsS'AM_DESC'
p3999
NsS'AM_MODEL'
p4000
g3985
sS'AY_TYPE'
p4001
g3983
stp4002
Rp4003
s(VIC
p4004
VThermo Scientific
p4005
VIntegrion
p4006
tp4007
g5
(g6
g7
(dp4008
S'AM_COMMENT'
p4009
NsS'AM_MANUFACTURER'
p4010
g4005
sS'SYSTIME'
p4011
g5
(g12
g13
(lp4012
g15
(S'\x07\xe7\x0b\x07\t1"\x07w\xaf'
p4013
tp4014
Rp4015
aNatp4016
Rp4017
(dp4018
g22
S'[)'
p4019
sbsS'AM_DESC'
p4020
NsS'AM_MODEL'
p4021
g4006
sS'AY_TYPE'
p4022
g4004
stp4023
Rp4024
s(VpH_meter
p4025
VYSI
p4026
VMultiLab 4010
p4027
tp4028
g5
(g6
g7
(dp4029
S'AM_COMMENT'
p4030
NsS'AM_MANUFACTURER'
p4031
g4026
sS'SYSTIME'
p4032
g5
(g12
g13
(lp4033
g15
(S'\x07\xde\x05\x01\x00\x00\x00\x00\x00\x00'
p4034
tp4035
Rp4036
aNatp4037
Rp4038
(dp4039
g22
S'[)'
p4040
sbsS'AM_DESC'
p4041
NsS'AM_MODEL'
p4042
g4027
sS'AY_TYPE'
p4043
g4025
stp4044
Rp4045
s(VIC
p4046
VThermo Scientific
p4047
VICS-1600
p4048
tp4049
g5
(g6
g7
(dp4050
S'AM_COMMENT'
p4051
NsS'AM_MANUFACTURER'
p4052
g4047
sS'SYSTIME'
p4053
g5
(g12
g13
(lp4054
g15
(S'\x07\xde\x05\x01\x00\x00\x00\x00\x00\x00'
p4055
tp4056
Rp4057
aNatp4058
Rp4059
(dp4060
g22
S'[)'
p4061
sbsS'AM_DESC'
p4062
NsS'AM_MODEL'
p4063
g4048
sS'AY_TYPE'
p4064
g4046
stp4065
Rp4066
s(VIC
p4067
VMetrohm
p4068
V940 Professional IC Vario
p4069
tp4070
g5
(g6
g7
(dp4071
S'AM_COMMENT'
p4072
NsS'AM_MANUFACTURER'
p4073
g4068
sS'SYSTIME'
p4074
g5
(g12
g13
(lp4075
g15
(S'\x07\xde\x05\x01\x00\x00\x00\x00\x00\x00'
p4076
tp4077
Rp4078
aNatp4079
Rp4080
(dp4081
g22
S'[)'
p4082
sbsS'AM_DESC'
p4083
NsS'AM_MODEL'
p4084
g4069
sS'AY_TYPE'
p4085
g4067
stp4086
Rp4087
s(VpH_meter
p4088
VHANNA
p4089
VHI 4221
p4090
tp4091
g5
(g6
g7
(dp4092
S'AM_COMMENT'
p4093
NsS'AM_MANUFACTURER'
p4094
g4089
sS'SYSTIME'
p4095
g5
(g12
g13
(lp4096
g15
(S'\x07\xde\x05\x01\x00\x00\x00\x00\x00\x00'
p4097
tp4098
Rp4099
aNatp4100
Rp4101
(dp4102
g22
S'[)'
p4103
sbsS'AM_DESC'
p4104
NsS'AM_MODEL'
p4105
g4090
sS'AY_TYPE'
p4106
g4088
stp4107
Rp4108
s(Vconductivity_meter
p4109
VWTW
p4110
VinoLab Cond 7110
p4111
tp4112
g5
(g6
g7
(dp4113
S'AM_COMMENT'
p4114
NsS'AM_MANUFACTURER'
p4115
g4110
sS'SYSTIME'
p4116
g5
(g12
g13
(lp4117
g15
(S'\x07\xde\x05\x01\x00\x00\x00\x00\x00\x00'
p4118
tp4119
Rp4120
aNatp4121
Rp4122
(dp4123
g22
S'[)'
p4124
sbsS'AM_DESC'
p4125
NsS'AM_MODEL'
p4126
g4111
sS'AY_TYPE'
p4127
g4109
stp4128
Rp4129
s(VF-AAS
p4130
VAgilent Technologies
p4131
VAA 280FS
p4132
tp4133
g5
(g6
g7
(dp4134
S'AM_COMMENT'
p4135
NsS'AM_MANUFACTURER'
p4136
g4131
sS'SYSTIME'
p4137
g5
(g12
g13
(lp4138
g15
(S'\x07\xe6\x0c\x01\x0b\x02\x00\x0b\xc6g'
p4139
tp4140
Rp4141
aNatp4142
Rp4143
(dp4144
g22
S'[)'
p4145
sbsS'AM_DESC'
p4146
NsS'AM_MODEL'
p4147
g4132
sS'AY_TYPE'
p4148
g4130
stp4149
Rp4150
s(VUHPLC-MS/MS
p4151
VSciex
p4152
V5500 QTRAP
p4153
tp4154
g5
(g6
g7
(dp4155
S'AM_COMMENT'
p4156
NsS'AM_MANUFACTURER'
p4157
g4152
sS'SYSTIME'
p4158
g5
(g12
g13
(lp4159
g15
(S'\x07\xe8\x05\x1e\x0c$\x1a\x00q\xf6'
p4160
tp4161
Rp4162
aNatp4163
Rp4164
(dp4165
g22
S'[)'
p4166
sbsS'AM_DESC'
p4167
NsS'AM_MODEL'
p4168
g4153
sS'AY_TYPE'
p4169
g4151
stp4170
Rp4171
s(VGC-FID
p4172
VPerkinElmer
p4173
VClarus 580
p4174
tp4175
g5
(g6
g7
(dp4176
S'AM_COMMENT'
p4177
NsS'AM_MANUFACTURER'
p4178
g4173
sS'SYSTIME'
p4179
g5
(g12
g13
(lp4180
g15
(S'\x07\xde\x05\x01\x00\x00\x00\x00\x00\x00'
p4181
tp4182
Rp4183
aNatp4184
Rp4185
(dp4186
g22
S'[)'
p4187
sbsS'AM_DESC'
p4188
NsS'AM_MODEL'
p4189
g4174
sS'AY_TYPE'
p4190
g4172
stp4191
Rp4192
s(VpH_meter
p4193
VHACH
p4194
VHQ430d
p4195
tp4196
g5
(g6
g7
(dp4197
S'AM_COMMENT'
p4198
NsS'AM_MANUFACTURER'
p4199
g4194
sS'SYSTIME'
p4200
g5
(g12
g13
(lp4201
g15
(S'\x07\xde\x05\x01\x00\x00\x00\x00\x00\x00'
p4202
tp4203
Rp4204
aNatp4205
Rp4206
(dp4207
g22
S'[)'
p4208
sbsS'AM_DESC'
p4209
NsS'AM_MODEL'
p4210
g4195
sS'AY_TYPE'
p4211
g4193
stp4212
Rp4213
s(Vconductivity_meter
p4214
VThermo Scientific
p4215
VEutech CON 700
p4216
tp4217
g5
(g6
g7
(dp4218
S'AM_COMMENT'
p4219
NsS'AM_MANUFACTURER'
p4220
g4215
sS'SYSTIME'
p4221
g5
(g12
g13
(lp4222
g15
(S'\x07\xde\x05\x01\x00\x00\x00\x00\x00\x00'
p4223
tp4224
Rp4225
aNatp4226
Rp4227
(dp4228
g22
S'[)'
p4229
sbsS'AM_DESC'
p4230
NsS'AM_MODEL'
p4231
g4216
sS'AY_TYPE'
p4232
g4214
stp4233
Rp4234
s(VICP-MS
p4235
VPerkinElmer
p4236
VELAN DRC II
p4237
tp4238
g5
(g6
g7
(dp4239
S'AM_COMMENT'
p4240
NsS'AM_MANUFACTURER'
p4241
g4236
sS'SYSTIME'
p4242
g5
(g12
g13
(lp4243
g15
(S'\x07\xde\x05\x01\x00\x00\x00\x00\x00\x00'
p4244
tp4245
Rp4246
aNatp4247
Rp4248
(dp4249
g22
S'[)'
p4250
sbsS'AM_DESC'
p4251
NsS'AM_MODEL'
p4252
g4237
sS'AY_TYPE'
p4253
g4235
stp4254
Rp4255
s(Vconductivity_meter
p4256
VMetrohm
p4257
V856 Conductivty
p4258
tp4259
g5
(g6
g7
(dp4260
S'AM_COMMENT'
p4261
NsS'AM_MANUFACTURER'
p4262
g4257
sS'SYSTIME'
p4263
g5
(g12
g13
(lp4264
g15
(S'\x07\xde\x05\x01\x00\x00\x00\x00\x00\x00'
p4265
tp4266
Rp4267
aNatp4268
Rp4269
(dp4270
g22
S'[)'
p4271
sbsS'AM_DESC'
p4272
NsS'AM_MODEL'
p4273
g4258
sS'AY_TYPE'
p4274
g4256
stp4275
Rp4276
s(Vconductivity_meter
p4277
VMettler-Toledo
p4278
VSevenMulti
p4279
tp4280
g5
(g6
g7
(dp4281
S'AM_COMMENT'
p4282
NsS'AM_MANUFACTURER'
p4283
g4278
sS'SYSTIME'
p4284
g5
(g12
g13
(lp4285
g15
(S'\x07\xde\x05\x01\x00\x00\x00\x00\x00\x00'
p4286
tp4287
Rp4288
aNatp4289
Rp4290
(dp4291
g22
S'[)'
p4292
sbsS'AM_DESC'
p4293
NsS'AM_MODEL'
p4294
g4279
sS'AY_TYPE'
p4295
g4277
stp4296
Rp4297
s(VICP-MS
p4298
VPerkinElmer
p4299
VELAN 9000
p4300
tp4301
g5
(g6
g7
(dp4302
S'AM_COMMENT'
p4303
NsS'AM_MANUFACTURER'
p4304
g4299
sS'SYSTIME'
p4305
g5
(g12
g13
(lp4306
g15
(S'\x07\xde\x05\x01\x00\x00\x00\x00\x00\x00'
p4307
tp4308
Rp4309
aNatp4310
Rp4311
(dp4312
g22
S'[)'
p4313
sbsS'AM_DESC'
p4314
NsS'AM_MODEL'
p4315
g4300
sS'AY_TYPE'
p4316
g4298
stp4317
Rp4318
s(VIC
p4319
VWaters
p4320
VIC system
p4321
tp4322
g5
(g6
g7
(dp4323
S'AM_COMMENT'
p4324
NsS'AM_MANUFACTURER'
p4325
g4320
sS'SYSTIME'
p4326
g5
(g12
g13
(lp4327
g15
(S'\x07\xde\x05\x01\x00\x00\x00\x00\x00\x00'
p4328
tp4329
Rp4330
aNatp4331
Rp4332
(dp4333
g22
S'[)'
p4334
sbsS'AM_DESC'
p4335
NsS'AM_MODEL'
p4336
g4321
sS'AY_TYPE'
p4337
g4319
stp4338
Rp4339
s(VICP-AES
p4340
VGBC Scientific
p4341
VIntegra XM
p4342
tp4343
g5
(g6
g7
(dp4344
S'AM_COMMENT'
p4345
NsS'AM_MANUFACTURER'
p4346
g4341
sS'SYSTIME'
p4347
g5
(g12
g13
(lp4348
g15
(S'\x07\xde\x05\x01\x00\x00\x00\x00\x00\x00'
p4349
tp4350
Rp4351
aNatp4352
Rp4353
(dp4354
g22
S'[)'
p4355
sbsS'AM_DESC'
p4356
NsS'AM_MODEL'
p4357
g4342
sS'AY_TYPE'
p4358
g4340
stp4359
Rp4360
s(VIC
p4361
VDionex
p4362
VDX-600
p4363
tp4364
g5
(g6
g7
(dp4365
S'AM_COMMENT'
p4366
NsS'AM_MANUFACTURER'
p4367
g4362
sS'SYSTIME'
p4368
g5
(g12
g13
(lp4369
g15
(S'\x07\xde\x05\x01\x00\x00\x00\x00\x00\x00'
p4370
tp4371
Rp4372
aNatp4373
Rp4374
(dp4375
g22
S'[)'
p4376
sbsS'AM_DESC'
p4377
NsS'AM_MODEL'
p4378
g4363
sS'AY_TYPE'
p4379
g4361
stp4380
Rp4381
s(VpH_meter
p4382
VHANNA
p4383
VHI 22091
p4384
tp4385
g5
(g6
g7
(dp4386
S'AM_COMMENT'
p4387
NsS'AM_MANUFACTURER'
p4388
g4383
sS'SYSTIME'
p4389
g5
(g12
g13
(lp4390
g15
(S'\x07\xde\x05\x01\x00\x00\x00\x00\x00\x00'
p4391
tp4392
Rp4393
aNatp4394
Rp4395
(dp4396
g22
S'[)'
p4397
sbsS'AM_DESC'
p4398
NsS'AM_MODEL'
p4399
g4384
sS'AY_TYPE'
p4400
g4382
stp4401
Rp4402
s(Vconductivity_meter
p4403
VJENWAY
p4404
V4520
p4405
tp4406
g5
(g6
g7
(dp4407
S'AM_COMMENT'
p4408
NsS'AM_MANUFACTURER'
p4409
g4404
sS'SYSTIME'
p4410
g5
(g12
g13
(lp4411
g15
(S'\x07\xde\x05\x01\x00\x00\x00\x00\x00\x00'
p4412
tp4413
Rp4414
aNatp4415
Rp4416
(dp4417
g22
S'[)'
p4418
sbsS'AM_DESC'
p4419
NsS'AM_MODEL'
p4420
g4405
sS'AY_TYPE'
p4421
g4403
stp4422
Rp4423
s(VICP-MS
p4424
VAgilent
p4425
V7700s
p4426
tp4427
g5
(g6
g7
(dp4428
S'AM_COMMENT'
p4429
NsS'AM_MANUFACTURER'
p4430
g4425
sS'SYSTIME'
p4431
g5
(g12
g13
(lp4432
g15
(S'\x07\xde\x05\x01\x00\x00\x00\x00\x00\x00'
p4433
tp4434
Rp4435
aNatp4436
Rp4437
(dp4438
g22
S'[)'
p4439
sbsS'AM_DESC'
p4440
NsS'AM_MODEL'
p4441
g4426
sS'AY_TYPE'
p4442
g4424
stp4443
Rp4444
s(VpH_meter
p4445
VHach Lange - Radiometer
p4446
VpH-meter-H260GNP
p4447
tp4448
g5
(g6
g7
(dp4449
S'AM_COMMENT'
p4450
NsS'AM_MANUFACTURER'
p4451
g4446
sS'SYSTIME'
p4452
g5
(g12
g13
(lp4453
g15
(S'\x07\xde\x05\x01\x00\x00\x00\x00\x00\x00'
p4454
tp4455
Rp4456
aNatp4457
Rp4458
(dp4459
g22
S'[)'
p4460
sbsS'AM_DESC'
p4461
NsS'AM_MODEL'
p4462
g4447
sS'AY_TYPE'
p4463
g4445
stp4464
Rp4465
s(Vconductivity_meter
p4466
VHANNA
p4467
VHI 4321
p4468
tp4469
g5
(g6
g7
(dp4470
S'AM_COMMENT'
p4471
NsS'AM_MANUFACTURER'
p4472
g4467
sS'SYSTIME'
p4473
g5
(g12
g13
(lp4474
g15
(S'\x07\xde\x05\x01\x00\x00\x00\x00\x00\x00'
p4475
tp4476
Rp4477
aNatp4478
Rp4479
(dp4480
g22
S'[)'
p4481
sbsS'AM_DESC'
p4482
NsS'AM_MODEL'
p4483
g4468
sS'AY_TYPE'
p4484
g4466
stp4485
Rp4486
s(VICP-AES
p4487
VJarell Ash (Thermo)
p4488
VIris Duo
p4489
tp4490
g5
(g6
g7
(dp4491
S'AM_COMMENT'
p4492
NsS'AM_MANUFACTURER'
p4493
g4488
sS'SYSTIME'
p4494
g5
(g12
g13
(lp4495
g15
(S'\x07\xde\x05\x01\x00\x00\x00\x00\x00\x00'
p4496
tp4497
Rp4498
aNatp4499
Rp4500
(dp4501
g22
S'[)'
p4502
sbsS'AM_DESC'
p4503
NsS'AM_MODEL'
p4504
g4489
sS'AY_TYPE'
p4505
g4487
stp4506
Rp4507
s(VICP-MS
p4508
VBruker (Varian)
p4509
VAurora M90
p4510
tp4511
g5
(g6
g7
(dp4512
S'AM_COMMENT'
p4513
NsS'AM_MANUFACTURER'
p4514
g4509
sS'SYSTIME'
p4515
g5
(g12
g13
(lp4516
g15
(S'\x07\xde\x05\x01\x00\x00\x00\x00\x00\x00'
p4517
tp4518
Rp4519
aNatp4520
Rp4521
(dp4522
g22
S'[)'
p4523
sbsS'AM_DESC'
p4524
NsS'AM_MODEL'
p4525
g4510
sS'AY_TYPE'
p4526
g4508
stp4527
Rp4528
s(Vby_weight
p4529
VSartorius
p4530
VLE26P
p4531
tp4532
g5
(g6
g7
(dp4533
S'AM_COMMENT'
p4534
NsS'AM_MANUFACTURER'
p4535
g4530
sS'SYSTIME'
p4536
g5
(g12
g13
(lp4537
g15
(S'\x07\xde\x05\x01\x00\x00\x00\x00\x00\x00'
p4538
tp4539
Rp4540
aNatp4541
Rp4542
(dp4543
g22
S'[)'
p4544
sbsS'AM_DESC'
p4545
NsS'AM_MODEL'
p4546
g4531
sS'AY_TYPE'
p4547
g4529
stp4548
Rp4549
s(VpH_meter
p4550
VYSI
p4551
VTruLab 1110
p4552
tp4553
g5
(g6
g7
(dp4554
S'AM_COMMENT'
p4555
NsS'AM_MANUFACTURER'
p4556
g4551
sS'SYSTIME'
p4557
g5
(g12
g13
(lp4558
g15
(S'\x07\xde\x05\x01\x00\x00\x00\x00\x00\x00'
p4559
tp4560
Rp4561
aNatp4562
Rp4563
(dp4564
g22
S'[)'
p4565
sbsS'AM_DESC'
p4566
NsS'AM_MODEL'
p4567
g4552
sS'AY_TYPE'
p4568
g4550
stp4569
Rp4570
s(VpH_meter
p4571
VHANNA
p4572
VHI 2550
p4573
tp4574
g5
(g6
g7
(dp4575
S'AM_COMMENT'
p4576
NsS'AM_MANUFACTURER'
p4577
g4572
sS'SYSTIME'
p4578
g5
(g12
g13
(lp4579
g15
(S'\x07\xde\x05\x01\x00\x00\x00\x00\x00\x00'
p4580
tp4581
Rp4582
aNatp4583
Rp4584
(dp4585
g22
S'[)'
p4586
sbsS'AM_DESC'
p4587
NsS'AM_MODEL'
p4588
g4573
sS'AY_TYPE'
p4589
g4571
stp4590
Rp4591
s(VICP-MS
p4592
VThermo (Finnigan)
p4593
VNeptune
p4594
tp4595
g5
(g6
g7
(dp4596
S'AM_COMMENT'
p4597
NsS'AM_MANUFACTURER'
p4598
g4593
sS'SYSTIME'
p4599
g5
(g12
g13
(lp4600
g15
(S'\x07\xde\x05\x01\x00\x00\x00\x00\x00\x00'
p4601
tp4602
Rp4603
aNatp4604
Rp4605
(dp4606
g22
S'[)'
p4607
sbsS'AM_DESC'
p4608
NsS'AM_MODEL'
p4609
g4594
sS'AY_TYPE'
p4610
g4592
stp4611
Rp4612
s(VICP-AES
p4613
VThermo Scientific
p4614
ViCAP 7200 ICP-OES
p4615
tp4616
g5
(g6
g7
(dp4617
S'AM_COMMENT'
p4618
NsS'AM_MANUFACTURER'
p4619
g4614
sS'SYSTIME'
p4620
g5
(g12
g13
(lp4621
g15
(S'\x07\xde\x05\x01\x00\x00\x00\x00\x00\x00'
p4622
tp4623
Rp4624
aNatp4625
Rp4626
(dp4627
g22
S'[)'
p4628
sbsS'AM_DESC'
p4629
NsS'AM_MODEL'
p4630
g4615
sS'AY_TYPE'
p4631
g4613
stp4632
Rp4633
s(VICP-AES
p4634
VPerkinElmer
p4635
VOptima 2000 DV Series
p4636
tp4637
g5
(g6
g7
(dp4638
S'AM_COMMENT'
p4639
NsS'AM_MANUFACTURER'
p4640
g4635
sS'SYSTIME'
p4641
g5
(g12
g13
(lp4642
g15
(S'\x07\xde\x05\x01\x00\x00\x00\x00\x00\x00'
p4643
tp4644
Rp4645
aNatp4646
Rp4647
(dp4648
g22
S'[)'
p4649
sbsS'AM_DESC'
p4650
NsS'AM_MODEL'
p4651
g4636
sS'AY_TYPE'
p4652
g4634
stp4653
Rp4654
s(VICP-AES
p4655
VLeeman (Teledyne)
p4656
VProdgy XP Simultaneous ICP-OES
p4657
tp4658
g5
(g6
g7
(dp4659
S'AM_COMMENT'
p4660
NsS'AM_MANUFACTURER'
p4661
g4656
sS'SYSTIME'
p4662
g5
(g12
g13
(lp4663
g15
(S'\x07\xde\x05\x01\x00\x00\x00\x00\x00\x00'
p4664
tp4665
Rp4666
aNatp4667
Rp4668
(dp4669
g22
S'[)'
p4670
sbsS'AM_DESC'
p4671
NsS'AM_MODEL'
p4672
g4657
sS'AY_TYPE'
p4673
g4655
stp4674
Rp4675
s(VICP-AES
p4676
VPerkinElmer
p4677
VOptima 8300 ICP-OES
p4678
tp4679
g5
(g6
g7
(dp4680
S'AM_COMMENT'
p4681
NsS'AM_MANUFACTURER'
p4682
g4677
sS'SYSTIME'
p4683
g5
(g12
g13
(lp4684
g15
(S'\x07\xde\x05\x01\x00\x00\x00\x00\x00\x00'
p4685
tp4686
Rp4687
aNatp4688
Rp4689
(dp4690
g22
S'[)'
p4691
sbsS'AM_DESC'
p4692
NsS'AM_MODEL'
p4693
g4678
sS'AY_TYPE'
p4694
g4676
stp4695
Rp4696
s(VICP-AES
p4697
VLeeman (Teledyne)
p4698
VProdgy 7 Simultaneous ICP-OES
p4699
tp4700
g5
(g6
g7
(dp4701
S'AM_COMMENT'
p4702
NsS'AM_MANUFACTURER'
p4703
g4698
sS'SYSTIME'
p4704
g5
(g12
g13
(lp4705
g15
(S'\x07\xde\x05\x01\x00\x00\x00\x00\x00\x00'
p4706
tp4707
Rp4708
aNatp4709
Rp4710
(dp4711
g22
S'[)'
p4712
sbsS'AM_DESC'
p4713
NsS'AM_MODEL'
p4714
g4699
sS'AY_TYPE'
p4715
g4697
stp4716
Rp4717
s(VIC
p4718
VDionex
p4719
VICS-3000
p4720
tp4721
g5
(g6
g7
(dp4722
S'AM_COMMENT'
p4723
NsS'AM_MANUFACTURER'
p4724
g4719
sS'SYSTIME'
p4725
g5
(g12
g13
(lp4726
g15
(S'\x07\xde\x05\x01\x00\x00\x00\x00\x00\x00'
p4727
tp4728
Rp4729
aNatp4730
Rp4731
(dp4732
g22
S'[)'
p4733
sbsS'AM_DESC'
p4734
NsS'AM_MODEL'
p4735
g4720
sS'AY_TYPE'
p4736
g4718
stp4737
Rp4738
s(VIC
p4739
VDionex
p4740
V2000i
p4741
tp4742
g5
(g6
g7
(dp4743
S'AM_COMMENT'
p4744
NsS'AM_MANUFACTURER'
p4745
g4740
sS'SYSTIME'
p4746
g5
(g12
g13
(lp4747
g15
(S'\x07\xde\x05\x01\x00\x00\x00\x00\x00\x00'
p4748
tp4749
Rp4750
aNatp4751
Rp4752
(dp4753
g22
S'[)'
p4754
sbsS'AM_DESC'
p4755
NsS'AM_MODEL'
p4756
g4741
sS'AY_TYPE'
p4757
g4739
stp4758
Rp4759
s(VpH_meter
p4760
VHANNA
p4761
VHI 2209
p4762
tp4763
g5
(g6
g7
(dp4764
S'AM_COMMENT'
p4765
NsS'AM_MANUFACTURER'
p4766
g4761
sS'SYSTIME'
p4767
g5
(g12
g13
(lp4768
g15
(S'\x07\xde\x05\x01\x00\x00\x00\x00\x00\x00'
p4769
tp4770
Rp4771
aNatp4772
Rp4773
(dp4774
g22
S'[)'
p4775
sbsS'AM_DESC'
p4776
NsS'AM_MODEL'
p4777
g4762
sS'AY_TYPE'
p4778
g4760
stp4779
Rp4780
s(Vconductivity_meter
p4781
VJENWAY
p4782
V4510
p4783
tp4784
g5
(g6
g7
(dp4785
S'AM_COMMENT'
p4786
NsS'AM_MANUFACTURER'
p4787
g4782
sS'SYSTIME'
p4788
g5
(g12
g13
(lp4789
g15
(S'\x07\xde\x05\x01\x00\x00\x00\x00\x00\x00'
p4790
tp4791
Rp4792
aNatp4793
Rp4794
(dp4795
g22
S'[)'
p4796
sbsS'AM_DESC'
p4797
NsS'AM_MODEL'
p4798
g4783
sS'AY_TYPE'
p4799
g4781
stp4800
Rp4801
s(VAAS
p4802
VSpectroLab
p4803
VAMA 254
p4804
tp4805
g5
(g6
g7
(dp4806
S'AM_COMMENT'
p4807
NsS'AM_MANUFACTURER'
p4808
g4803
sS'SYSTIME'
p4809
g5
(g12
g13
(lp4810
g15
(S'\x07\xde\x05\x01\x00\x00\x00\x00\x00\x00'
p4811
tp4812
Rp4813
aNatp4814
Rp4815
(dp4816
g22
S'[)'
p4817
sbsS'AM_DESC'
p4818
NsS'AM_MODEL'
p4819
g4804
sS'AY_TYPE'
p4820
g4802
stp4821
Rp4822
s(VIC
p4823
VThermo Scientific
p4824
VICS-2100
p4825
tp4826
g5
(g6
g7
(dp4827
S'AM_COMMENT'
p4828
NsS'AM_MANUFACTURER'
p4829
g4824
sS'SYSTIME'
p4830
g5
(g12
g13
(lp4831
g15
(S'\x07\xde\x05\x01\x00\x00\x00\x00\x00\x00'
p4832
tp4833
Rp4834
aNatp4835
Rp4836
(dp4837
g22
S'[)'
p4838
sbsS'AM_DESC'
p4839
NsS'AM_MODEL'
p4840
g4825
sS'AY_TYPE'
p4841
g4823
stp4842
Rp4843
s(Vby_weight
p4844
VMettler Toledo
p4845
VPG5002-S
p4846
tp4847
g5
(g6
g7
(dp4848
S'AM_COMMENT'
p4849
NsS'AM_MANUFACTURER'
p4850
g4845
sS'SYSTIME'
p4851
g5
(g12
g13
(lp4852
g15
(S'\x07\xde\x05\x01\x00\x00\x00\x00\x00\x00'
p4853
tp4854
Rp4855
aNatp4856
Rp4857
(dp4858
g22
S'[)'
p4859
sbsS'AM_DESC'
p4860
NsS'AM_MODEL'
p4861
g4846
sS'AY_TYPE'
p4862
g4844
stp4863
Rp4864
s(VICP-AES
p4865
VPerkinElmer
p4866
VOptima 3200DV
p4867
tp4868
g5
(g6
g7
(dp4869
S'AM_COMMENT'
p4870
NsS'AM_MANUFACTURER'
p4871
g4866
sS'SYSTIME'
p4872
g5
(g12
g13
(lp4873
g15
(S'\x07\xde\x05\x01\x00\x00\x00\x00\x00\x00'
p4874
tp4875
Rp4876
aNatp4877
Rp4878
(dp4879
g22
S'[)'
p4880
sbsS'AM_DESC'
p4881
NsS'AM_MODEL'
p4882
g4867
sS'AY_TYPE'
p4883
g4865
stp4884
Rp4885
s(VpH_meter
p4886
VHANNA
p4887
VHI 2020
p4888
tp4889
g5
(g6
g7
(dp4890
S'AM_COMMENT'
p4891
NsS'AM_MANUFACTURER'
p4892
g4887
sS'SYSTIME'
p4893
g5
(g12
g13
(lp4894
g15
(S'\x07\xde\x05\x01\x00\x00\x00\x00\x00\x00'
p4895
tp4896
Rp4897
aNatp4898
Rp4899
(dp4900
g22
S'[)'
p4901
sbsS'AM_DESC'
p4902
NsS'AM_MODEL'
p4903
g4888
sS'AY_TYPE'
p4904
g4886
stp4905
Rp4906
s(VpH_meter
p4907
VKNICK
p4908
VPH-METER 911
p4909
tp4910
g5
(g6
g7
(dp4911
S'AM_COMMENT'
p4912
NsS'AM_MANUFACTURER'
p4913
g4908
sS'SYSTIME'
p4914
g5
(g12
g13
(lp4915
g15
(S'\x07\xde\x05\x01\x00\x00\x00\x00\x00\x00'
p4916
tp4917
Rp4918
aNatp4919
Rp4920
(dp4921
g22
S'[)'
p4922
sbsS'AM_DESC'
p4923
NsS'AM_MODEL'
p4924
g4909
sS'AY_TYPE'
p4925
g4907
stp4926
Rp4927
s(VIC
p4928
VDionex
p4929
VICS-2000
p4930
tp4931
g5
(g6
g7
(dp4932
S'AM_COMMENT'
p4933
NsS'AM_MANUFACTURER'
p4934
g4929
sS'SYSTIME'
p4935
g5
(g12
g13
(lp4936
g15
(S'\x07\xde\x05\x01\x00\x00\x00\x00\x00\x00'
p4937
tp4938
Rp4939
aNatp4940
Rp4941
(dp4942
g22
S'[)'
p4943
sbsS'AM_DESC'
p4944
NsS'AM_MODEL'
p4945
g4930
sS'AY_TYPE'
p4946
g4928
stp4947
Rp4948
s(VpH_meter
p4949
VOMEGA
p4950
VPHB-357
p4951
tp4952
g5
(g6
g7
(dp4953
S'AM_COMMENT'
p4954
NsS'AM_MANUFACTURER'
p4955
g4950
sS'SYSTIME'
p4956
g5
(g12
g13
(lp4957
g15
(S'\x07\xde\x05\x01\x00\x00\x00\x00\x00\x00'
p4958
tp4959
Rp4960
aNatp4961
Rp4962
(dp4963
g22
S'[)'
p4964
sbsS'AM_DESC'
p4965
NsS'AM_MODEL'
p4966
g4951
sS'AY_TYPE'
p4967
g4949
stp4968
Rp4969
s(VICP-AES
p4970
VAgilent Technologies
p4971
VAgilent 725 ICP-OES
p4972
tp4973
g5
(g6
g7
(dp4974
S'AM_COMMENT'
p4975
NsS'AM_MANUFACTURER'
p4976
g4971
sS'SYSTIME'
p4977
g5
(g12
g13
(lp4978
g15
(S'\x07\xde\x05\x01\x00\x00\x00\x00\x00\x00'
p4979
tp4980
Rp4981
aNatp4982
Rp4983
(dp4984
g22
S'[)'
p4985
sbsS'AM_DESC'
p4986
NsS'AM_MODEL'
p4987
g4972
sS'AY_TYPE'
p4988
g4970
stp4989
Rp4990
s(VHPLC
p4991
VWaters
p4992
VAlliance
p4993
tp4994
g5
(g6
g7
(dp4995
S'AM_COMMENT'
p4996
NsS'AM_MANUFACTURER'
p4997
g4992
sS'SYSTIME'
p4998
g5
(g12
g13
(lp4999
g15
(S'\x07\xde\x05\x01\x00\x00\x00\x00\x00\x00'
p5000
tp5001
Rp5002
aNatp5003
Rp5004
(dp5005
g22
S'[)'
p5006
sbsS'AM_DESC'
p5007
NsS'AM_MODEL'
p5008
g4993
sS'AY_TYPE'
p5009
g4991
stp5010
Rp5011
s(VIC
p5012
VThermo Scientific
p5013
VICS-1100
p5014
tp5015
g5
(g6
g7
(dp5016
S'AM_COMMENT'
p5017
NsS'AM_MANUFACTURER'
p5018
g5013
sS'SYSTIME'
p5019
g5
(g12
g13
(lp5020
g15
(S'\x07\xde\x05\x01\x00\x00\x00\x00\x00\x00'
p5021
tp5022
Rp5023
aNatp5024
Rp5025
(dp5026
g22
S'[)'
p5027
sbsS'AM_DESC'
p5028
NsS'AM_MODEL'
p5029
g5014
sS'AY_TYPE'
p5030
g5012
stp5031
Rp5032
s(Vthermal-optical_analysis
p5033
VDRI
p5034
VModel 2001 Thermal/Optical Carbon Analyzer
p5035
tp5036
g5
(g6
g7
(dp5037
S'AM_COMMENT'
p5038
NsS'AM_MANUFACTURER'
p5039
g5034
sS'SYSTIME'
p5040
g5
(g12
g13
(lp5041
g15
(S'\x07\xde\x05\x01\x00\x00\x00\x00\x00\x00'
p5042
tp5043
Rp5044
aNatp5045
Rp5046
(dp5047
g22
S'[)'
p5048
sbsS'AM_DESC'
p5049
NsS'AM_MODEL'
p5050
g5035
sS'AY_TYPE'
p5051
g5033
stp5052
Rp5053
s(VpH_meter
p5054
VMettler-Toledo
p5055
VSevenCompact
p5056
tp5057
g5
(g6
g7
(dp5058
S'AM_COMMENT'
p5059
NsS'AM_MANUFACTURER'
p5060
g5055
sS'SYSTIME'
p5061
g5
(g12
g13
(lp5062
g15
(S'\x07\xde\x05\x01\x00\x00\x00\x00\x00\x00'
p5063
tp5064
Rp5065
aNatp5066
Rp5067
(dp5068
g22
S'[)'
p5069
sbsS'AM_DESC'
p5070
NsS'AM_MODEL'
p5071
g5056
sS'AY_TYPE'
p5072
g5054
stp5073
Rp5074
s(VIC
p5075
VThermo Scientific
p5076
VICS-5000+
p5077
tp5078
g5
(g6
g7
(dp5079
S'AM_COMMENT'
p5080
NsS'AM_MANUFACTURER'
p5081
g5076
sS'SYSTIME'
p5082
g5
(g12
g13
(lp5083
g15
(S'\x07\xde\x05\x01\x00\x00\x00\x00\x00\x00'
p5084
tp5085
Rp5086
aNatp5087
Rp5088
(dp5089
g22
S'[)'
p5090
sbsS'AM_DESC'
p5091
NsS'AM_MODEL'
p5092
g5077
sS'AY_TYPE'
p5093
g5075
stp5094
Rp5095
s(VICP-AES
p5096
VSPECTRO
p5097
VSPECTROBLUE
p5098
tp5099
g5
(g6
g7
(dp5100
S'AM_COMMENT'
p5101
NsS'AM_MANUFACTURER'
p5102
g5097
sS'SYSTIME'
p5103
g5
(g12
g13
(lp5104
g15
(S'\x07\xde\x05\x01\x00\x00\x00\x00\x00\x00'
p5105
tp5106
Rp5107
aNatp5108
Rp5109
(dp5110
g22
S'[)'
p5111
sbsS'AM_DESC'
p5112
NsS'AM_MODEL'
p5113
g5098
sS'AY_TYPE'
p5114
g5096
stp5115
Rp5116
s(VpH_meter
p5117
VWTW
p5118
VINOLAB MULTI 9310
p5119
tp5120
g5
(g6
g7
(dp5121
S'AM_COMMENT'
p5122
NsS'AM_MANUFACTURER'
p5123
g5118
sS'SYSTIME'
p5124
g5
(g12
g13
(lp5125
g15
(S'\x07\xde\x05\x01\x00\x00\x00\x00\x00\x00'
p5126
tp5127
Rp5128
aNatp5129
Rp5130
(dp5131
g22
S'[)'
p5132
sbsS'AM_DESC'
p5133
NsS'AM_MODEL'
p5134
g5119
sS'AY_TYPE'
p5135
g5117
stp5136
Rp5137
s(VICP-AES
p5138
VPerkinElmer
p5139
VOptima 8000 ICP-OES
p5140
tp5141
g5
(g6
g7
(dp5142
S'AM_COMMENT'
p5143
NsS'AM_MANUFACTURER'
p5144
g5139
sS'SYSTIME'
p5145
g5
(g12
g13
(lp5146
g15
(S'\x07\xde\x05\x01\x00\x00\x00\x00\x00\x00'
p5147
tp5148
Rp5149
aNatp5150
Rp5151
(dp5152
g22
S'[)'
p5153
sbsS'AM_DESC'
p5154
NsS'AM_MODEL'
p5155
g5140
sS'AY_TYPE'
p5156
g5138
stp5157
Rp5158
s(VpH_meter
p5159
VMetrohm
p5160
V867 pH Module
p5161
tp5162
g5
(g6
g7
(dp5163
S'AM_COMMENT'
p5164
NsS'AM_MANUFACTURER'
p5165
g5160
sS'SYSTIME'
p5166
g5
(g12
g13
(lp5167
g15
(S'\x07\xde\x05\x01\x00\x00\x00\x00\x00\x00'
p5168
tp5169
Rp5170
aNatp5171
Rp5172
(dp5173
g22
S'[)'
p5174
sbsS'AM_DESC'
p5175
NsS'AM_MODEL'
p5176
g5161
sS'AY_TYPE'
p5177
g5159
stp5178
Rp5179
s(Vby_volume
p5180
VDigitel
p5181
VDRA-12
p5182
tp5183
g5
(g6
g7
(dp5184
S'AM_COMMENT'
p5185
NsS'AM_MANUFACTURER'
p5186
g5181
sS'SYSTIME'
p5187
g5
(g12
g13
(lp5188
g15
(S'\x07\xe8\x01\x1f\t\x1b+\r\xd7g'
p5189
tp5190
Rp5191
aNatp5192
Rp5193
(dp5194
g22
S'[)'
p5195
sbsS'AM_DESC'
p5196
NsS'AM_MODEL'
p5197
g5182
sS'AY_TYPE'
p5198
g5180
stp5199
Rp5200
s(VICP-AES
p5201
VPerkinElmer
p5202
VOptima 3300XL
p5203
tp5204
g5
(g6
g7
(dp5205
S'AM_COMMENT'
p5206
NsS'AM_MANUFACTURER'
p5207
g5202
sS'SYSTIME'
p5208
g5
(g12
g13
(lp5209
g15
(S'\x07\xde\x05\x01\x00\x00\x00\x00\x00\x00'
p5210
tp5211
Rp5212
aNatp5213
Rp5214
(dp5215
g22
S'[)'
p5216
sbsS'AM_DESC'
p5217
NsS'AM_MODEL'
p5218
g5203
sS'AY_TYPE'
p5219
g5201
stp5220
Rp5221
s(Vconductivity_meter
p5222
VWTW
p5223
VProfiLine Cond 3110
p5224
tp5225
g5
(g6
g7
(dp5226
S'AM_COMMENT'
p5227
NsS'AM_MANUFACTURER'
p5228
g5223
sS'SYSTIME'
p5229
g5
(g12
g13
(lp5230
g15
(S'\x07\xde\x05\x01\x00\x00\x00\x00\x00\x00'
p5231
tp5232
Rp5233
aNatp5234
Rp5235
(dp5236
g22
S'[)'
p5237
sbsS'AM_DESC'
p5238
NsS'AM_MODEL'
p5239
g5224
sS'AY_TYPE'
p5240
g5222
stp5241
Rp5242
s(VpH_meter
p5243
VMettler-Toledo
p5244
VFiveEasy
p5245
tp5246
g5
(g6
g7
(dp5247
S'AM_COMMENT'
p5248
NsS'AM_MANUFACTURER'
p5249
g5244
sS'SYSTIME'
p5250
g5
(g12
g13
(lp5251
g15
(S'\x07\xde\x05\x01\x00\x00\x00\x00\x00\x00'
p5252
tp5253
Rp5254
aNatp5255
Rp5256
(dp5257
g22
S'[)'
p5258
sbsS'AM_DESC'
p5259
NsS'AM_MODEL'
p5260
g5245
sS'AY_TYPE'
p5261
g5243
stp5262
Rp5263
s(Vspectrophotometric
p5264
VFOSS
p5265
VFIAstar 5000
p5266
tp5267
g5
(g6
g7
(dp5268
S'AM_COMMENT'
p5269
NsS'AM_MANUFACTURER'
p5270
g5265
sS'SYSTIME'
p5271
g5
(g12
g13
(lp5272
g15
(S'\x07\xde\x05\x01\x00\x00\x00\x00\x00\x00'
p5273
tp5274
Rp5275
aNatp5276
Rp5277
(dp5278
g22
S'[)'
p5279
sbsS'AM_DESC'
p5280
NsS'AM_MODEL'
p5281
g5266
sS'AY_TYPE'
p5282
g5264
stp5283
Rp5284
s(Vconductivity_meter
p5285
VOAKTON
p5286
VCON 700
p5287
tp5288
g5
(g6
g7
(dp5289
S'AM_COMMENT'
p5290
NsS'AM_MANUFACTURER'
p5291
g5286
sS'SYSTIME'
p5292
g5
(g12
g13
(lp5293
g15
(S'\x07\xde\x05\x01\x00\x00\x00\x00\x00\x00'
p5294
tp5295
Rp5296
aNatp5297
Rp5298
(dp5299
g22
S'[)'
p5300
sbsS'AM_DESC'
p5301
NsS'AM_MODEL'
p5302
g5287
sS'AY_TYPE'
p5303
g5285
stp5304
Rp5305
s(VICP-MS
p5306
VAgilent
p5307
VICP-QQQ
p5308
tp5309
g5
(g6
g7
(dp5310
S'AM_COMMENT'
p5311
NsS'AM_MANUFACTURER'
p5312
g5307
sS'SYSTIME'
p5313
g5
(g12
g13
(lp5314
g15
(S'\x07\xde\x05\x01\x00\x00\x00\x00\x00\x00'
p5315
tp5316
Rp5317
aNatp5318
Rp5319
(dp5320
g22
S'[)'
p5321
sbsS'AM_DESC'
p5322
NsS'AM_MODEL'
p5323
g5308
sS'AY_TYPE'
p5324
g5306
stp5325
Rp5326
s(VpH_conductivity_meter
p5327
VHANNA
p5328
VHI 5521
p5329
tp5330
g5
(g6
g7
(dp5331
S'AM_COMMENT'
p5332
NsS'AM_MANUFACTURER'
p5333
g5328
sS'SYSTIME'
p5334
g5
(g12
g13
(lp5335
g15
(S'\x07\xe8\x07\x0f\n\x0c\x11\x06]e'
p5336
tp5337
Rp5338
aNatp5339
Rp5340
(dp5341
g22
S'[)'
p5342
sbsS'AM_DESC'
p5343
NsS'AM_MODEL'
p5344
g5329
sS'AY_TYPE'
p5345
g5327
stp5346
Rp5347
s(VICP-MS
p5348
VThermo (VG)
p5349
ViCAP Q
p5350
tp5351
g5
(g6
g7
(dp5352
S'AM_COMMENT'
p5353
NsS'AM_MANUFACTURER'
p5354
g5349
sS'SYSTIME'
p5355
g5
(g12
g13
(lp5356
g15
(S'\x07\xde\x05\x01\x00\x00\x00\x00\x00\x00'
p5357
tp5358
Rp5359
aNatp5360
Rp5361
(dp5362
g22
S'[)'
p5363
sbsS'AM_DESC'
p5364
NsS'AM_MODEL'
p5365
g5350
sS'AY_TYPE'
p5366
g5348
stp5367
Rp5368
s(VGC-MS
p5369
VAgilent+Agilent
p5370
V6890N+5975
p5371
tp5372
g5
(g6
g7
(dp5373
S'AM_COMMENT'
p5374
NsS'AM_MANUFACTURER'
p5375
g5370
sS'SYSTIME'
p5376
g5
(g12
g13
(lp5377
g15
(S'\x07\xea\x01\x06\r6\x0e\t%\x12'
p5378
tp5379
Rp5380
aNatp5381
Rp5382
(dp5383
g22
S'[)'
p5384
sbsS'AM_DESC'
p5385
NsS'AM_MODEL'
p5386
g5371
sS'AY_TYPE'
p5387
g5369
stp5388
Rp5389
s(Vthermal-optical_analysis
p5390
VDRI
p5391
VModel 2015 Multiwavelength Thermal/Optical Carbon Analyzer
p5392
tp5393
g5
(g6
g7
(dp5394
S'AM_COMMENT'
p5395
NsS'AM_MANUFACTURER'
p5396
g5391
sS'SYSTIME'
p5397
g5
(g12
g13
(lp5398
g15
(S'\x07\xde\x05\x01\x00\x00\x00\x00\x00\x00'
p5399
tp5400
Rp5401
aNatp5402
Rp5403
(dp5404
g22
S'[)'
p5405
sbsS'AM_DESC'
p5406
NsS'AM_MODEL'
p5407
g5392
sS'AY_TYPE'
p5408
g5390
stp5409
Rp5410
s(VpH_meter
p5411
VThermo Scientific
p5412
VTitration IC system
p5413
tp5414
g5
(g6
g7
(dp5415
S'AM_COMMENT'
p5416
NsS'AM_MANUFACTURER'
p5417
g5412
sS'SYSTIME'
p5418
g5
(g12
g13
(lp5419
g15
(S'\x07\xde\x05\x01\x00\x00\x00\x00\x00\x00'
p5420
tp5421
Rp5422
aNatp5423
Rp5424
(dp5425
g22
S'[)'
p5426
sbsS'AM_DESC'
p5427
NsS'AM_MODEL'
p5428
g5413
sS'AY_TYPE'
p5429
g5411
stp5430
Rp5431
s(Vconductivity_meter
p5432
VHANNA
p5433
VHI 2300
p5434
tp5435
g5
(g6
g7
(dp5436
S'AM_COMMENT'
p5437
NsS'AM_MANUFACTURER'
p5438
g5433
sS'SYSTIME'
p5439
g5
(g12
g13
(lp5440
g15
(S'\x07\xde\x05\x01\x00\x00\x00\x00\x00\x00'
p5441
tp5442
Rp5443
aNatp5444
Rp5445
(dp5446
g22
S'[)'
p5447
sbsS'AM_DESC'
p5448
NsS'AM_MODEL'
p5449
g5434
sS'AY_TYPE'
p5450
g5432
stp5451
Rp5452
s(Vconductivity_meter
p5453
VSI Analytics
p5454
Vlab 870 bnc
p5455
tp5456
g5
(g6
g7
(dp5457
S'AM_COMMENT'
p5458
NsS'AM_MANUFACTURER'
p5459
g5454
sS'SYSTIME'
p5460
g5
(g12
g13
(lp5461
g15
(S'\x07\xde\x05\x01\x00\x00\x00\x00\x00\x00'
p5462
tp5463
Rp5464
aNatp5465
Rp5466
(dp5467
g22
S'[)'
p5468
sbsS'AM_DESC'
p5469
NsS'AM_MODEL'
p5470
g5455
sS'AY_TYPE'
p5471
g5453
stp5472
Rp5473
s(Vconductivity_meter
p5474
VThermo Scientific
p5475
VEutech CON 2700
p5476
tp5477
g5
(g6
g7
(dp5478
S'AM_COMMENT'
p5479
NsS'AM_MANUFACTURER'
p5480
g5475
sS'SYSTIME'
p5481
g5
(g12
g13
(lp5482
g15
(S'\x07\xde\x05\x01\x00\x00\x00\x00\x00\x00'
p5483
tp5484
Rp5485
aNatp5486
Rp5487
(dp5488
g22
S'[)'
p5489
sbsS'AM_DESC'
p5490
NsS'AM_MODEL'
p5491
g5476
sS'AY_TYPE'
p5492
g5474
stp5493
Rp5494
s(VGC-MS
p5495
VPerkinElmer
p5496
VClarus 600
p5497
tp5498
g5
(g6
g7
(dp5499
S'AM_COMMENT'
p5500
NsS'AM_MANUFACTURER'
p5501
g5496
sS'SYSTIME'
p5502
g5
(g12
g13
(lp5503
g15
(S'\x07\xde\x05\x01\x00\x00\x00\x00\x00\x00'
p5504
tp5505
Rp5506
aNatp5507
Rp5508
(dp5509
g22
S'[)'
p5510
sbsS'AM_DESC'
p5511
NsS'AM_MODEL'
p5512
g5497
sS'AY_TYPE'
p5513
g5495
stp5514
Rp5515
s(Vthermal-optical_analysis
p5516
VSunset Laboratory
p5517
VOCEC Lab Instrument Model 5L
p5518
tp5519
g5
(g6
g7
(dp5520
S'AM_COMMENT'
p5521
NsS'AM_MANUFACTURER'
p5522
g5517
sS'SYSTIME'
p5523
g5
(g12
g13
(lp5524
g15
(S'\x07\xde\x05\x01\x00\x00\x00\x00\x00\x00'
p5525
tp5526
Rp5527
aNatp5528
Rp5529
(dp5530
g22
S'[)'
p5531
sbsS'AM_DESC'
p5532
NsS'AM_MODEL'
p5533
g5518
sS'AY_TYPE'
p5534
g5516
stp5535
Rp5536
s(Vspectrophotometric
p5537
VThermo Scientific
p5538
VAquakem 600
p5539
tp5540
g5
(g6
g7
(dp5541
S'AM_COMMENT'
p5542
NsS'AM_MANUFACTURER'
p5543
g5538
sS'SYSTIME'
p5544
g5
(g12
g13
(lp5545
g15
(S'\x07\xde\x05\x01\x00\x00\x00\x00\x00\x00'
p5546
tp5547
Rp5548
aNatp5549
Rp5550
(dp5551
g22
S'[)'
p5552
sbsS'AM_DESC'
p5553
NsS'AM_MODEL'
p5554
g5539
sS'AY_TYPE'
p5555
g5537
stp5556
Rp5557
s(Vconductivity_meter
p5558
VHACH
p5559
VHQ440d
p5560
tp5561
g5
(g6
g7
(dp5562
S'AM_COMMENT'
p5563
NsS'AM_MANUFACTURER'
p5564
g5559
sS'SYSTIME'
p5565
g5
(g12
g13
(lp5566
g15
(S'\x07\xde\x05\x01\x00\x00\x00\x00\x00\x00'
p5567
tp5568
Rp5569
aNatp5570
Rp5571
(dp5572
g22
S'[)'
p5573
sbsS'AM_DESC'
p5574
NsS'AM_MODEL'
p5575
g5560
sS'AY_TYPE'
p5576
g5558
stp5577
Rp5578
s(Vconductivity_meter
p5579
VYSI
p5580
V3200 Conductivity
p5581
tp5582
g5
(g6
g7
(dp5583
S'AM_COMMENT'
p5584
NsS'AM_MANUFACTURER'
p5585
g5580
sS'SYSTIME'
p5586
g5
(g12
g13
(lp5587
g15
(S'\x07\xde\x05\x01\x00\x00\x00\x00\x00\x00'
p5588
tp5589
Rp5590
aNatp5591
Rp5592
(dp5593
g22
S'[)'
p5594
sbsS'AM_DESC'
p5595
NsS'AM_MODEL'
p5596
g5581
sS'AY_TYPE'
p5597
g5579
stp5598
Rp5599
s(VGC-HRMS
p5600
VThermo
p5601
VTrace GC Ultra + DFS HRMS
p5602
tp5603
g5
(g6
g7
(dp5604
S'AM_COMMENT'
p5605
NsS'AM_MANUFACTURER'
p5606
g5601
sS'SYSTIME'
p5607
g5
(g12
g13
(lp5608
g15
(S'\x07\xde\x05\x01\x00\x00\x00\x00\x00\x00'
p5609
tp5610
Rp5611
aNatp5612
Rp5613
(dp5614
g22
S'[)'
p5615
sbsS'AM_DESC'
p5616
NsS'AM_MODEL'
p5617
g5602
sS'AY_TYPE'
p5618
g5600
stp5619
Rp5620
s(VpH_meter
p5621
VSI Analytics
p5622
Vprolab 3000
p5623
tp5624
g5
(g6
g7
(dp5625
S'AM_COMMENT'
p5626
NsS'AM_MANUFACTURER'
p5627
g5622
sS'SYSTIME'
p5628
g5
(g12
g13
(lp5629
g15
(S'\x07\xde\x05\x01\x00\x00\x00\x00\x00\x00'
p5630
tp5631
Rp5632
aNatp5633
Rp5634
(dp5635
g22
S'[)'
p5636
sbsS'AM_DESC'
p5637
NsS'AM_MODEL'
p5638
g5623
sS'AY_TYPE'
p5639
g5621
stp5640
Rp5641
s(VIC
p5642
VThermo Scientific
p5643
VTitration IC system
p5644
tp5645
g5
(g6
g7
(dp5646
S'AM_COMMENT'
p5647
NsS'AM_MANUFACTURER'
p5648
g5643
sS'SYSTIME'
p5649
g5
(g12
g13
(lp5650
g15
(S'\x07\xde\x05\x01\x00\x00\x00\x00\x00\x00'
p5651
tp5652
Rp5653
aNatp5654
Rp5655
(dp5656
g22
S'[)'
p5657
sbsS'AM_DESC'
p5658
NsS'AM_MODEL'
p5659
g5644
sS'AY_TYPE'
p5660
g5642
stp5661
Rp5662
s(VICP-AES
p5663
VPerkinElmer
p5664
VOptima 3100XL
p5665
tp5666
g5
(g6
g7
(dp5667
S'AM_COMMENT'
p5668
NsS'AM_MANUFACTURER'
p5669
g5664
sS'SYSTIME'
p5670
g5
(g12
g13
(lp5671
g15
(S'\x07\xde\x05\x01\x00\x00\x00\x00\x00\x00'
p5672
tp5673
Rp5674
aNatp5675
Rp5676
(dp5677
g22
S'[)'
p5678
sbsS'AM_DESC'
p5679
NsS'AM_MODEL'
p5680
g5665
sS'AY_TYPE'
p5681
g5663
stp5682
Rp5683
s(VCE
p5684
VWaters
p5685
VCE 1994
p5686
tp5687
g5
(g6
g7
(dp5688
S'AM_COMMENT'
p5689
NsS'AM_MANUFACTURER'
p5690
g5685
sS'SYSTIME'
p5691
g5
(g12
g13
(lp5692
g15
(S'\x07\xde\x05\x01\x00\x00\x00\x00\x00\x00'
p5693
tp5694
Rp5695
aNatp5696
Rp5697
(dp5698
g22
S'[)'
p5699
sbsS'AM_DESC'
p5700
NsS'AM_MODEL'
p5701
g5686
sS'AY_TYPE'
p5702
g5684
stp5703
Rp5704
s(VIC
p5705
VDionex
p5706
VICS-6000
p5707
tp5708
g5
(g6
g7
(dp5709
S'AM_COMMENT'
p5710
NsS'AM_MANUFACTURER'
p5711
g5706
sS'SYSTIME'
p5712
g5
(g12
g13
(lp5713
g15
(S'\x07\xe7\n\x05\x0b\x0f)\x0b\x97\xa7'
p5714
tp5715
Rp5716
aNatp5717
Rp5718
(dp5719
g22
S'[)'
p5720
sbsS'AM_DESC'
p5721
NsS'AM_MODEL'
p5722
g5707
sS'AY_TYPE'
p5723
g5705
stp5724
Rp5725
s(VGC-MS/MS
p5726
VAgilent+Agilent
p5727
V7890A+7000 Triple Quadrupole
p5728
tp5729
g5
(g6
g7
(dp5730
S'AM_COMMENT'
p5731
NsS'AM_MANUFACTURER'
p5732
g5727
sS'SYSTIME'
p5733
g5
(g12
g13
(lp5734
g15
(S'\x07\xe9\x0c\x01\x0b\x18\x01\x08\xec\xc4'
p5735
tp5736
Rp5737
aNatp5738
Rp5739
(dp5740
g22
S'[)'
p5741
sbsS'AM_DESC'
p5742
NsS'AM_MODEL'
p5743
g5728
sS'AY_TYPE'
p5744
g5726
stp5745
Rp5746
s(VpH_meter
p5747
VHach Lange - Radiometer
p5748
VpH-meter-H260G-BNDL
p5749
tp5750
g5
(g6
g7
(dp5751
S'AM_COMMENT'
p5752
NsS'AM_MANUFACTURER'
p5753
g5748
sS'SYSTIME'
p5754
g5
(g12
g13
(lp5755
g15
(S'\x07\xde\x05\x01\x00\x00\x00\x00\x00\x00'
p5756
tp5757
Rp5758
aNatp5759
Rp5760
(dp5761
g22
S'[)'
p5762
sbsS'AM_DESC'
p5763
NsS'AM_MODEL'
p5764
g5749
sS'AY_TYPE'
p5765
g5747
stp5766
Rp5767
s(Vconductivity_meter
p5768
VMetrohm
p5769
V912 Conductometer
p5770
tp5771
g5
(g6
g7
(dp5772
S'AM_COMMENT'
p5773
NsS'AM_MANUFACTURER'
p5774
g5769
sS'SYSTIME'
p5775
g5
(g12
g13
(lp5776
g15
(S'\x07\xde\x05\x01\x00\x00\x00\x00\x00\x00'
p5777
tp5778
Rp5779
aNatp5780
Rp5781
(dp5782
g22
S'[)'
p5783
sbsS'AM_DESC'
p5784
NsS'AM_MODEL'
p5785
g5770
sS'AY_TYPE'
p5786
g5768
stp5787
Rp5788
s(VpH_meter
p5789
VHANNA
p5790
VHI 208
p5791
tp5792
g5
(g6
g7
(dp5793
S'AM_COMMENT'
p5794
NsS'AM_MANUFACTURER'
p5795
g5790
sS'SYSTIME'
p5796
g5
(g12
g13
(lp5797
g15
(S'\x07\xde\x05\x01\x00\x00\x00\x00\x00\x00'
p5798
tp5799
Rp5800
aNatp5801
Rp5802
(dp5803
g22
S'[)'
p5804
sbsS'AM_DESC'
p5805
NsS'AM_MODEL'
p5806
g5791
sS'AY_TYPE'
p5807
g5789
stp5808
Rp5809
s(VpH_meter
p5810
VHach Lange - Radiometer
p5811
VpH-meter-H260GBNP
p5812
tp5813
g5
(g6
g7
(dp5814
S'AM_COMMENT'
p5815
NsS'AM_MANUFACTURER'
p5816
g5811
sS'SYSTIME'
p5817
g5
(g12
g13
(lp5818
g15
(S'\x07\xde\x05\x01\x00\x00\x00\x00\x00\x00'
p5819
tp5820
Rp5821
aNatp5822
Rp5823
(dp5824
g22
S'[)'
p5825
sbsS'AM_DESC'
p5826
NsS'AM_MODEL'
p5827
g5812
sS'AY_TYPE'
p5828
g5810
stp5829
Rp5830
s(VIC
p5831
VMetrohm
p5832
V930 Compact IC Flex
p5833
tp5834
g5
(g6
g7
(dp5835
S'AM_COMMENT'
p5836
NsS'AM_MANUFACTURER'
p5837
g5832
sS'SYSTIME'
p5838
g5
(g12
g13
(lp5839
g15
(S'\x07\xde\x05\x01\x00\x00\x00\x00\x00\x00'
p5840
tp5841
Rp5842
aNatp5843
Rp5844
(dp5845
g22
S'[)'
p5846
sbsS'AM_DESC'
p5847
NsS'AM_MODEL'
p5848
g5833
sS'AY_TYPE'
p5849
g5831
stp5850
Rp5851
s(VpH_meter
p5852
VJENWAY
p5853
VPH METER Model 3505
p5854
tp5855
g5
(g6
g7
(dp5856
S'AM_COMMENT'
p5857
NsS'AM_MANUFACTURER'
p5858
g5853
sS'SYSTIME'
p5859
g5
(g12
g13
(lp5860
g15
(S'\x07\xde\x05\x01\x00\x00\x00\x00\x00\x00'
p5861
tp5862
Rp5863
aNatp5864
Rp5865
(dp5866
g22
S'[)'
p5867
sbsS'AM_DESC'
p5868
NsS'AM_MODEL'
p5869
g5854
sS'AY_TYPE'
p5870
g5852
stp5871
Rp5872
s(VICP-AES
p5873
VPerkinElmer
p5874
VOptima 7000 DV Series
p5875
tp5876
g5
(g6
g7
(dp5877
S'AM_COMMENT'
p5878
NsS'AM_MANUFACTURER'
p5879
g5874
sS'SYSTIME'
p5880
g5
(g12
g13
(lp5881
g15
(S'\x07\xde\x05\x01\x00\x00\x00\x00\x00\x00'
p5882
tp5883
Rp5884
aNatp5885
Rp5886
(dp5887
g22
S'[)'
p5888
sbsS'AM_DESC'
p5889
NsS'AM_MODEL'
p5890
g5875
sS'AY_TYPE'
p5891
g5873
stp5892
Rp5893
s(VICP-MS
p5894
VPerkinElmer
p5895
VELAN 5000
p5896
tp5897
g5
(g6
g7
(dp5898
S'AM_COMMENT'
p5899
NsS'AM_MANUFACTURER'
p5900
g5895
sS'SYSTIME'
p5901
g5
(g12
g13
(lp5902
g15
(S'\x07\xde\x05\x01\x00\x00\x00\x00\x00\x00'
p5903
tp5904
Rp5905
aNatp5906
Rp5907
(dp5908
g22
S'[)'
p5909
sbsS'AM_DESC'
p5910
NsS'AM_MODEL'
p5911
g5896
sS'AY_TYPE'
p5912
g5894
stp5913
Rp5914
s(Vcrds
p5915
VPicarro
p5916
VG1301
p5917
tp5918
g5
(g6
g7
(dp5919
S'AM_COMMENT'
p5920
NsS'AM_MANUFACTURER'
p5921
g5916
sS'SYSTIME'
p5922
g5
(g12
g13
(lp5923
g15
(S'\x07\xe6\x0c\x02\t\x17\x0e\n\xa3\xb2'
p5924
tp5925
Rp5926
aNatp5927
Rp5928
(dp5929
g22
S'[)'
p5930
sbsS'AM_DESC'
p5931
NsS'AM_MODEL'
p5932
g5917
sS'AY_TYPE'
p5933
g5915
stp5934
Rp5935
s(VICP-AES
p5936
VPerkinElmer
p5937
VPlasma 2
p5938
tp5939
g5
(g6
g7
(dp5940
S'AM_COMMENT'
p5941
NsS'AM_MANUFACTURER'
p5942
g5937
sS'SYSTIME'
p5943
g5
(g12
g13
(lp5944
g15
(S'\x07\xde\x05\x01\x00\x00\x00\x00\x00\x00'
p5945
tp5946
Rp5947
aNatp5948
Rp5949
(dp5950
g22
S'[)'
p5951
sbsS'AM_DESC'
p5952
NsS'AM_MODEL'
p5953
g5938
sS'AY_TYPE'
p5954
g5936
stp5955
Rp5956
s(Vconductivity_meter
p5957
VWTW
p5958
VinoLab Cond 7310
p5959
tp5960
g5
(g6
g7
(dp5961
S'AM_COMMENT'
p5962
NsS'AM_MANUFACTURER'
p5963
g5958
sS'SYSTIME'
p5964
g5
(g12
g13
(lp5965
g15
(S'\x07\xde\x05\x01\x00\x00\x00\x00\x00\x00'
p5966
tp5967
Rp5968
aNatp5969
Rp5970
(dp5971
g22
S'[)'
p5972
sbsS'AM_DESC'
p5973
NsS'AM_MODEL'
p5974
g5959
sS'AY_TYPE'
p5975
g5957
stp5976
Rp5977
s(Vthermal-optical_analysis
p5978
VSunset Laboratory
p5979
VOCEC Lab Instrument Model 4L
p5980
tp5981
g5
(g6
g7
(dp5982
S'AM_COMMENT'
p5983
NsS'AM_MANUFACTURER'
p5984
g5979
sS'SYSTIME'
p5985
g5
(g12
g13
(lp5986
g15
(S'\x07\xde\x05\x01\x00\x00\x00\x00\x00\x00'
p5987
tp5988
Rp5989
aNatp5990
Rp5991
(dp5992
g22
S'[)'
p5993
sbsS'AM_DESC'
p5994
NsS'AM_MODEL'
p5995
g5980
sS'AY_TYPE'
p5996
g5978
stp5997
Rp5998
s(VICP-MS
p5999
VAgilent
p6000
V8900
p6001
tp6002
g5
(g6
g7
(dp6003
S'AM_COMMENT'
p6004
NsS'AM_MANUFACTURER'
p6005
g6000
sS'SYSTIME'
p6006
g5
(g12
g13
(lp6007
g15
(S'\x07\xde\x05\x01\x00\x00\x00\x00\x00\x00'
p6008
tp6009
Rp6010
aNatp6011
Rp6012
(dp6013
g22
S'[)'
p6014
sbsS'AM_DESC'
p6015
NsS'AM_MODEL'
p6016
g6001
sS'AY_TYPE'
p6017
g5999
stp6018
Rp6019
s(Vconductivity_meter
p6020
VRadelkis Budapest
p6021
VOK 102/1
p6022
tp6023
g5
(g6
g7
(dp6024
S'AM_COMMENT'
p6025
NsS'AM_MANUFACTURER'
p6026
g6021
sS'SYSTIME'
p6027
g5
(g12
g13
(lp6028
g15
(S'\x07\xde\x05\x01\x00\x00\x00\x00\x00\x00'
p6029
tp6030
Rp6031
aNatp6032
Rp6033
(dp6034
g22
S'[)'
p6035
sbsS'AM_DESC'
p6036
NsS'AM_MODEL'
p6037
g6022
sS'AY_TYPE'
p6038
g6020
stp6039
Rp6040
s(VIC
p6041
VDionex
p6042
VDX-500
p6043
tp6044
g5
(g6
g7
(dp6045
S'AM_COMMENT'
p6046
NsS'AM_MANUFACTURER'
p6047
g6042
sS'SYSTIME'
p6048
g5
(g12
g13
(lp6049
g15
(S'\x07\xde\x05\x01\x00\x00\x00\x00\x00\x00'
p6050
tp6051
Rp6052
aNatp6053
Rp6054
(dp6055
g22
S'[)'
p6056
sbsS'AM_DESC'
p6057
NsS'AM_MODEL'
p6058
g6043
sS'AY_TYPE'
p6059
g6041
stp6060
Rp6061
s(Vconductivity_meter
p6062
VOAKTON
p6063
VCON 2700
p6064
tp6065
g5
(g6
g7
(dp6066
S'AM_COMMENT'
p6067
NsS'AM_MANUFACTURER'
p6068
g6063
sS'SYSTIME'
p6069
g5
(g12
g13
(lp6070
g15
(S'\x07\xde\x05\x01\x00\x00\x00\x00\x00\x00'
p6071
tp6072
Rp6073
aNatp6074
Rp6075
(dp6076
g22
S'[)'
p6077
sbsS'AM_DESC'
p6078
NsS'AM_MODEL'
p6079
g6064
sS'AY_TYPE'
p6080
g6062
stp6081
Rp6082
s(Vconductivity_meter
p6083
VHANNA
p6084
VHI 2209
p6085
tp6086
g5
(g6
g7
(dp6087
S'AM_COMMENT'
p6088
NsS'AM_MANUFACTURER'
p6089
g6084
sS'SYSTIME'
p6090
g5
(g12
g13
(lp6091
g15
(S'\x07\xde\x05\x01\x00\x00\x00\x00\x00\x00'
p6092
tp6093
Rp6094
aNatp6095
Rp6096
(dp6097
g22
S'[)'
p6098
sbsS'AM_DESC'
p6099
NsS'AM_MODEL'
p6100
g6085
sS'AY_TYPE'
p6101
g6083
stp6102
Rp6103
s(Vthermal-optical_analysis
p6104
VSunset Laboratory
p6105
VCarbon Aerosol Analyzer
p6106
tp6107
g5
(g6
g7
(dp6108
S'AM_COMMENT'
p6109
NsS'AM_MANUFACTURER'
p6110
g6105
sS'SYSTIME'
p6111
g5
(g12
g13
(lp6112
g15
(S'\x07\xde\x05\x01\x00\x00\x00\x00\x00\x00'
p6113
tp6114
Rp6115
aNatp6116
Rp6117
(dp6118
g22
S'[)'
p6119
sbsS'AM_DESC'
p6120
NsS'AM_MODEL'
p6121
g6106
sS'AY_TYPE'
p6122
g6104
stp6123
Rp6124
s(Vconductivity_meter
p6125
VThermo Scientific
p6126
VOrion Star A211
p6127
tp6128
g5
(g6
g7
(dp6129
S'AM_COMMENT'
p6130
NsS'AM_MANUFACTURER'
p6131
g6126
sS'SYSTIME'
p6132
g5
(g12
g13
(lp6133
g15
(S'\x07\xde\x05\x01\x00\x00\x00\x00\x00\x00'
p6134
tp6135
Rp6136
aNatp6137
Rp6138
(dp6139
g22
S'[)'
p6140
sbsS'AM_DESC'
p6141
NsS'AM_MODEL'
p6142
g6127
sS'AY_TYPE'
p6143
g6125
stp6144
Rp6145
s(VIC
p6146
VDionex
p6147
V4000i
p6148
tp6149
g5
(g6
g7
(dp6150
S'AM_COMMENT'
p6151
NsS'AM_MANUFACTURER'
p6152
g6147
sS'SYSTIME'
p6153
g5
(g12
g13
(lp6154
g15
(S'\x07\xde\x05\x01\x00\x00\x00\x00\x00\x00'
p6155
tp6156
Rp6157
aNatp6158
Rp6159
(dp6160
g22
S'[)'
p6161
sbsS'AM_DESC'
p6162
NsS'AM_MODEL'
p6163
g6148
sS'AY_TYPE'
p6164
g6146
stp6165
Rp6166
s(Vconductivity_meter
p6167
VWTW
p6168
VLF538
p6169
tp6170
g5
(g6
g7
(dp6171
S'AM_COMMENT'
p6172
NsS'AM_MANUFACTURER'
p6173
g6168
sS'SYSTIME'
p6174
g5
(g12
g13
(lp6175
g15
(S'\x07\xde\x05\x01\x00\x00\x00\x00\x00\x00'
p6176
tp6177
Rp6178
aNatp6179
Rp6180
(dp6181
g22
S'[)'
p6182
sbsS'AM_DESC'
p6183
NsS'AM_MODEL'
p6184
g6169
sS'AY_TYPE'
p6185
g6167
stp6186
Rp6187
s(VICP-MS
p6188
VPerkinElmer
p6189
VNexION 1000
p6190
tp6191
g5
(g6
g7
(dp6192
S'AM_COMMENT'
p6193
NsS'AM_MANUFACTURER'
p6194
g6189
sS'SYSTIME'
p6195
g5
(g12
g13
(lp6196
g15
(S'\x07\xe7\x08\x18\r\x18\x19\x02Pj'
p6197
tp6198
Rp6199
aNatp6200
Rp6201
(dp6202
g22
S'[)'
p6203
sbsS'AM_DESC'
p6204
NsS'AM_MODEL'
p6205
g6190
sS'AY_TYPE'
p6206
g6188
stp6207
Rp6208
s(VIC
p6209
VThermo Scientific
p6210
VICS-4000
p6211
tp6212
g5
(g6
g7
(dp6213
S'AM_COMMENT'
p6214
NsS'AM_MANUFACTURER'
p6215
g6210
sS'SYSTIME'
p6216
g5
(g12
g13
(lp6217
g15
(S'\x07\xde\x05\x01\x00\x00\x00\x00\x00\x00'
p6218
tp6219
Rp6220
aNatp6221
Rp6222
(dp6223
g22
S'[)'
p6224
sbsS'AM_DESC'
p6225
NsS'AM_MODEL'
p6226
g6211
sS'AY_TYPE'
p6227
g6209
stp6228
Rp6229
s(Vspectrophotometric
p6230
VShimadzu
p6231
VUV-1201
p6232
tp6233
g5
(g6
g7
(dp6234
S'AM_COMMENT'
p6235
NsS'AM_MANUFACTURER'
p6236
g6231
sS'SYSTIME'
p6237
g5
(g12
g13
(lp6238
g15
(S'\x07\xde\x05\x01\x00\x00\x00\x00\x00\x00'
p6239
tp6240
Rp6241
aNatp6242
Rp6243
(dp6244
g22
S'[)'
p6245
sbsS'AM_DESC'
p6246
NsS'AM_MODEL'
p6247
g6232
sS'AY_TYPE'
p6248
g6230
stp6249
Rp6250
s(VpH_meter
p6251
VOAKTON
p6252
VPH 700
p6253
tp6254
g5
(g6
g7
(dp6255
S'AM_COMMENT'
p6256
NsS'AM_MANUFACTURER'
p6257
g6252
sS'SYSTIME'
p6258
g5
(g12
g13
(lp6259
g15
(S'\x07\xde\x05\x01\x00\x00\x00\x00\x00\x00'
p6260
tp6261
Rp6262
aNatp6263
Rp6264
(dp6265
g22
S'[)'
p6266
sbsS'AM_DESC'
p6267
NsS'AM_MODEL'
p6268
g6253
sS'AY_TYPE'
p6269
g6251
stp6270
Rp6271
s(VICP-MS
p6272
VThermo (Finnigan)
p6273
VElement 1
p6274
tp6275
g5
(g6
g7
(dp6276
S'AM_COMMENT'
p6277
NsS'AM_MANUFACTURER'
p6278
g6273
sS'SYSTIME'
p6279
g5
(g12
g13
(lp6280
g15
(S'\x07\xe8\x07\x08\x0e\x0f\x00\n4\x93'
p6281
tp6282
Rp6283
aNatp6284
Rp6285
(dp6286
g22
S'[)'
p6287
sbsS'AM_DESC'
p6288
NsS'AM_MODEL'
p6289
g6274
sS'AY_TYPE'
p6290
g6272
stp6291
Rp6292
s(VICP-AES
p6293
VJOBIN YVON Technology (Horiba)
p6294
VUltima Expert
p6295
tp6296
g5
(g6
g7
(dp6297
S'AM_COMMENT'
p6298
NsS'AM_MANUFACTURER'
p6299
g6294
sS'SYSTIME'
p6300
g5
(g12
g13
(lp6301
g15
(S'\x07\xde\x05\x01\x00\x00\x00\x00\x00\x00'
p6302
tp6303
Rp6304
aNatp6305
Rp6306
(dp6307
g22
S'[)'
p6308
sbsS'AM_DESC'
p6309
NsS'AM_MODEL'
p6310
g6295
sS'AY_TYPE'
p6311
g6293
stp6312
Rp6313
s(VICP-MS
p6314
VThermo (Finnigan)
p6315
VElement 2
p6316
tp6317
g5
(g6
g7
(dp6318
S'AM_COMMENT'
p6319
NsS'AM_MANUFACTURER'
p6320
g6315
sS'SYSTIME'
p6321
g5
(g12
g13
(lp6322
g15
(S'\x07\xe8\x07\x08\x0e\x0f\x00\n4\x93'
p6323
tp6324
Rp6325
aNatp6326
Rp6327
(dp6328
g22
S'[)'
p6329
sbsS'AM_DESC'
p6330
NsS'AM_MODEL'
p6331
g6316
sS'AY_TYPE'
p6332
g6314
stp6333
Rp6334
s(Vconductivity_meter
p6335
VRadiometer Analytical
p6336
VCDM230
p6337
tp6338
g5
(g6
g7
(dp6339
S'AM_COMMENT'
p6340
NsS'AM_MANUFACTURER'
p6341
g6336
sS'SYSTIME'
p6342
g5
(g12
g13
(lp6343
g15
(S'\x07\xde\x05\x01\x00\x00\x00\x00\x00\x00'
p6344
tp6345
Rp6346
aNatp6347
Rp6348
(dp6349
g22
S'[)'
p6350
sbsS'AM_DESC'
p6351
NsS'AM_MODEL'
p6352
g6337
sS'AY_TYPE'
p6353
g6335
stp6354
Rp6355
s(VICP-AES
p6356
VVarian (Agilent)
p6357
VVarian Vista-PRO
p6358
tp6359
g5
(g6
g7
(dp6360
S'AM_COMMENT'
p6361
NsS'AM_MANUFACTURER'
p6362
g6357
sS'SYSTIME'
p6363
g5
(g12
g13
(lp6364
g15
(S'\x07\xde\x05\x01\x00\x00\x00\x00\x00\x00'
p6365
tp6366
Rp6367
aNatp6368
Rp6369
(dp6370
g22
S'[)'
p6371
sbsS'AM_DESC'
p6372
NsS'AM_MODEL'
p6373
g6358
sS'AY_TYPE'
p6374
g6356
stp6375
Rp6376
s(VpH_meter
p6377
VSI Analytics
p6378
Vlab 860 bnc
p6379
tp6380
g5
(g6
g7
(dp6381
S'AM_COMMENT'
p6382
NsS'AM_MANUFACTURER'
p6383
g6378
sS'SYSTIME'
p6384
g5
(g12
g13
(lp6385
g15
(S'\x07\xde\x05\x01\x00\x00\x00\x00\x00\x00'
p6386
tp6387
Rp6388
aNatp6389
Rp6390
(dp6391
g22
S'[)'
p6392
sbsS'AM_DESC'
p6393
NsS'AM_MODEL'
p6394
g6379
sS'AY_TYPE'
p6395
g6377
stp6396
Rp6397
s(VICP-AES
p6398
VPerkinElmer
p6399
VOptima 3100RL
p6400
tp6401
g5
(g6
g7
(dp6402
S'AM_COMMENT'
p6403
NsS'AM_MANUFACTURER'
p6404
g6399
sS'SYSTIME'
p6405
g5
(g12
g13
(lp6406
g15
(S'\x07\xde\x05\x01\x00\x00\x00\x00\x00\x00'
p6407
tp6408
Rp6409
aNatp6410
Rp6411
(dp6412
g22
S'[)'
p6413
sbsS'AM_DESC'
p6414
NsS'AM_MODEL'
p6415
g6400
sS'AY_TYPE'
p6416
g6398
stp6417
Rp6418
s(Vconductivity_meter
p6419
VThermo Scientific
p6420
VCyberScan 6000
p6421
tp6422
g5
(g6
g7
(dp6423
S'AM_COMMENT'
p6424
NsS'AM_MANUFACTURER'
p6425
g6420
sS'SYSTIME'
p6426
g5
(g12
g13
(lp6427
g15
(S'\x07\xde\x05\x01\x00\x00\x00\x00\x00\x00'
p6428
tp6429
Rp6430
aNatp6431
Rp6432
(dp6433
g22
S'[)'
p6434
sbsS'AM_DESC'
p6435
NsS'AM_MODEL'
p6436
g6421
sS'AY_TYPE'
p6437
g6419
stp6438
Rp6439
s(VpH_meter
p6440
VHANNA
p6441
VHI 207
p6442
tp6443
g5
(g6
g7
(dp6444
S'AM_COMMENT'
p6445
NsS'AM_MANUFACTURER'
p6446
g6441
sS'SYSTIME'
p6447
g5
(g12
g13
(lp6448
g15
(S'\x07\xde\x05\x01\x00\x00\x00\x00\x00\x00'
p6449
tp6450
Rp6451
aNatp6452
Rp6453
(dp6454
g22
S'[)'
p6455
sbsS'AM_DESC'
p6456
NsS'AM_MODEL'
p6457
g6442
sS'AY_TYPE'
p6458
g6440
stp6459
Rp6460
s(VpH_meter
p6461
VHANNA
p6462
VHI 2212
p6463
tp6464
g5
(g6
g7
(dp6465
S'AM_COMMENT'
p6466
NsS'AM_MANUFACTURER'
p6467
g6462
sS'SYSTIME'
p6468
g5
(g12
g13
(lp6469
g15
(S'\x07\xde\x05\x01\x00\x00\x00\x00\x00\x00'
p6470
tp6471
Rp6472
aNatp6473
Rp6474
(dp6475
g22
S'[)'
p6476
sbsS'AM_DESC'
p6477
NsS'AM_MODEL'
p6478
g6463
sS'AY_TYPE'
p6479
g6461
stp6480
Rp6481
s(VICP-AES
p6482
VJarell Ash (Thermo)
p6483
VIris Advantage
p6484
tp6485
g5
(g6
g7
(dp6486
S'AM_COMMENT'
p6487
NsS'AM_MANUFACTURER'
p6488
g6483
sS'SYSTIME'
p6489
g5
(g12
g13
(lp6490
g15
(S'\x07\xde\x05\x01\x00\x00\x00\x00\x00\x00'
p6491
tp6492
Rp6493
aNatp6494
Rp6495
(dp6496
g22
S'[)'
p6497
sbsS'AM_DESC'
p6498
NsS'AM_MODEL'
p6499
g6484
sS'AY_TYPE'
p6500
g6482
stp6501
Rp6502
s(VpH_meter
p6503
VMetrohm
p6504
V827 pH Meter
p6505
tp6506
g5
(g6
g7
(dp6507
S'AM_COMMENT'
p6508
NsS'AM_MANUFACTURER'
p6509
g6504
sS'SYSTIME'
p6510
g5
(g12
g13
(lp6511
g15
(S'\x07\xde\x05\x01\x00\x00\x00\x00\x00\x00'
p6512
tp6513
Rp6514
aNatp6515
Rp6516
(dp6517
g22
S'[)'
p6518
sbsS'AM_DESC'
p6519
NsS'AM_MODEL'
p6520
g6505
sS'AY_TYPE'
p6521
g6503
stp6522
Rp6523
s(VIC
p6524
VDionex
p6525
VDX-100
p6526
tp6527
g5
(g6
g7
(dp6528
S'AM_COMMENT'
p6529
NsS'AM_MANUFACTURER'
p6530
g6525
sS'SYSTIME'
p6531
g5
(g12
g13
(lp6532
g15
(S'\x07\xde\x05\x01\x00\x00\x00\x00\x00\x00'
p6533
tp6534
Rp6535
aNatp6536
Rp6537
(dp6538
g22
S'[)'
p6539
sbsS'AM_DESC'
p6540
NsS'AM_MODEL'
p6541
g6526
sS'AY_TYPE'
p6542
g6524
stp6543
Rp6544
s(VICP-AES
p6545
VPerkinElmer
p6546
VOptima 3200RL
p6547
tp6548
g5
(g6
g7
(dp6549
S'AM_COMMENT'
p6550
NsS'AM_MANUFACTURER'
p6551
g6546
sS'SYSTIME'
p6552
g5
(g12
g13
(lp6553
g15
(S'\x07\xde\x05\x01\x00\x00\x00\x00\x00\x00'
p6554
tp6555
Rp6556
aNatp6557
Rp6558
(dp6559
g22
S'[)'
p6560
sbsS'AM_DESC'
p6561
NsS'AM_MODEL'
p6562
g6547
sS'AY_TYPE'
p6563
g6545
stp6564
Rp6565
s(VICP-AES
p6566
VLeeman (Teledyne)
p6567
VProdgy High Dispersion ICP-OES
p6568
tp6569
g5
(g6
g7
(dp6570
S'AM_COMMENT'
p6571
NsS'AM_MANUFACTURER'
p6572
g6567
sS'SYSTIME'
p6573
g5
(g12
g13
(lp6574
g15
(S'\x07\xde\x05\x01\x00\x00\x00\x00\x00\x00'
p6575
tp6576
Rp6577
aNatp6578
Rp6579
(dp6580
g22
S'[)'
p6581
sbsS'AM_DESC'
p6582
NsS'AM_MODEL'
p6583
g6568
sS'AY_TYPE'
p6584
g6566
stp6585
Rp6586
s(Vconductivity_meter
p6587
VSI Analytics
p6588
Vlab 860 bnc
p6589
tp6590
g5
(g6
g7
(dp6591
S'AM_COMMENT'
p6592
NsS'AM_MANUFACTURER'
p6593
g6588
sS'SYSTIME'
p6594
g5
(g12
g13
(lp6595
g15
(S'\x07\xde\x05\x01\x00\x00\x00\x00\x00\x00'
p6596
tp6597
Rp6598
aNatp6599
Rp6600
(dp6601
g22
S'[)'
p6602
sbsS'AM_DESC'
p6603
NsS'AM_MODEL'
p6604
g6589
sS'AY_TYPE'
p6605
g6587
stp6606
Rp6607
s(Vthermal_analysis
p6608
VSunset Laboratory
p6609
VCarbon Aerosol Analyzer
p6610
tp6611
g5
(g6
g7
(dp6612
S'AM_COMMENT'
p6613
NsS'AM_MANUFACTURER'
p6614
g6609
sS'SYSTIME'
p6615
g5
(g12
g13
(lp6616
g15
(S'\x07\xde\x05\x01\x00\x00\x00\x00\x00\x00'
p6617
tp6618
Rp6619
aNatp6620
Rp6621
(dp6622
g22
S'[)'
p6623
sbsS'AM_DESC'
p6624
NsS'AM_MODEL'
p6625
g6610
sS'AY_TYPE'
p6626
g6608
stp6627
Rp6628
s(VIC
p6629
VThermo Scientific
p6630
VICS-6000
p6631
tp6632
g5
(g6
g7
(dp6633
S'AM_COMMENT'
p6634
NsS'AM_MANUFACTURER'
p6635
g6630
sS'SYSTIME'
p6636
g5
(g12
g13
(lp6637
g15
(S'\x07\xde\x05\x01\x00\x00\x00\x00\x00\x00'
p6638
tp6639
Rp6640
aNatp6641
Rp6642
(dp6643
g22
S'[)'
p6644
sbsS'AM_DESC'
p6645
NsS'AM_MODEL'
p6646
g6631
sS'AY_TYPE'
p6647
g6629
stp6648
Rp6649
s(VpH_meter
p6650
VMettler-Toledo
p6651
VSevenMulti
p6652
tp6653
g5
(g6
g7
(dp6654
S'AM_COMMENT'
p6655
NsS'AM_MANUFACTURER'
p6656
g6651
sS'SYSTIME'
p6657
g5
(g12
g13
(lp6658
g15
(S'\x07\xde\x05\x01\x00\x00\x00\x00\x00\x00'
p6659
tp6660
Rp6661
aNatp6662
Rp6663
(dp6664
g22
S'[)'
p6665
sbsS'AM_DESC'
p6666
NsS'AM_MODEL'
p6667
g6652
sS'AY_TYPE'
p6668
g6650
stp6669
Rp6670
s(VICP-AES
p6671
VPerkinElmer
p6672
VOptima 3300DV
p6673
tp6674
g5
(g6
g7
(dp6675
S'AM_COMMENT'
p6676
NsS'AM_MANUFACTURER'
p6677
g6672
sS'SYSTIME'
p6678
g5
(g12
g13
(lp6679
g15
(S'\x07\xde\x05\x01\x00\x00\x00\x00\x00\x00'
p6680
tp6681
Rp6682
aNatp6683
Rp6684
(dp6685
g22
S'[)'
p6686
sbsS'AM_DESC'
p6687
NsS'AM_MODEL'
p6688
g6673
sS'AY_TYPE'
p6689
g6671
stp6690
Rp6691
s(VICP-MS
p6692
VAgilent
p6693
V7700x
p6694
tp6695
g5
(g6
g7
(dp6696
S'AM_COMMENT'
p6697
NsS'AM_MANUFACTURER'
p6698
g6693
sS'SYSTIME'
p6699
g5
(g12
g13
(lp6700
g15
(S'\x07\xde\x05\x01\x00\x00\x00\x00\x00\x00'
p6701
tp6702
Rp6703
aNatp6704
Rp6705
(dp6706
g22
S'[)'
p6707
sbsS'AM_DESC'
p6708
NsS'AM_MODEL'
p6709
g6694
sS'AY_TYPE'
p6710
g6692
stp6711
Rp6712
s(VpH_meter
p6713
VKNICK
p6714
VPH-METER 766
p6715
tp6716
g5
(g6
g7
(dp6717
S'AM_COMMENT'
p6718
NsS'AM_MANUFACTURER'
p6719
g6714
sS'SYSTIME'
p6720
g5
(g12
g13
(lp6721
g15
(S'\x07\xde\x05\x01\x00\x00\x00\x00\x00\x00'
p6722
tp6723
Rp6724
aNatp6725
Rp6726
(dp6727
g22
S'[)'
p6728
sbsS'AM_DESC'
p6729
NsS'AM_MODEL'
p6730
g6715
sS'AY_TYPE'
p6731
g6713
stp6732
Rp6733
s(VF-AAS
p6734
VC.ZEISS JENOPTIC
p6735
VAA/AE AAS-30
p6736
tp6737
g5
(g6
g7
(dp6738
S'AM_COMMENT'
p6739
NsS'AM_MANUFACTURER'
p6740
g6735
sS'SYSTIME'
p6741
g5
(g12
g13
(lp6742
g15
(S'\x07\xde\x05\x01\x00\x00\x00\x00\x00\x00'
p6743
tp6744
Rp6745
aNatp6746
Rp6747
(dp6748
g22
S'[)'
p6749
sbsS'AM_DESC'
p6750
NsS'AM_MODEL'
p6751
g6736
sS'AY_TYPE'
p6752
g6734
stp6753
Rp6754
s(VICP-AES
p6755
VJOBIN YVON Technology (Horiba)
p6756
VUltima Expert LT
p6757
tp6758
g5
(g6
g7
(dp6759
S'AM_COMMENT'
p6760
NsS'AM_MANUFACTURER'
p6761
g6756
sS'SYSTIME'
p6762
g5
(g12
g13
(lp6763
g15
(S'\x07\xde\x05\x01\x00\x00\x00\x00\x00\x00'
p6764
tp6765
Rp6766
aNatp6767
Rp6768
(dp6769
g22
S'[)'
p6770
sbsS'AM_DESC'
p6771
NsS'AM_MODEL'
p6772
g6757
sS'AY_TYPE'
p6773
g6755
stp6774
Rp6775
s(Vconductivity_meter
p6776
VThermo Scientific
p6777
VCyberScan CON 1500
p6778
tp6779
g5
(g6
g7
(dp6780
S'AM_COMMENT'
p6781
NsS'AM_MANUFACTURER'
p6782
g6777
sS'SYSTIME'
p6783
g5
(g12
g13
(lp6784
g15
(S'\x07\xde\x05\x01\x00\x00\x00\x00\x00\x00'
p6785
tp6786
Rp6787
aNatp6788
Rp6789
(dp6790
g22
S'[)'
p6791
sbsS'AM_DESC'
p6792
NsS'AM_MODEL'
p6793
g6778
sS'AY_TYPE'
p6794
g6776
stp6795
Rp6796
s(VICP-AES
p6797
VPerkinElmer
p6798
VOptima 5000 DV Series
p6799
tp6800
g5
(g6
g7
(dp6801
S'AM_COMMENT'
p6802
NsS'AM_MANUFACTURER'
p6803
g6798
sS'SYSTIME'
p6804
g5
(g12
g13
(lp6805
g15
(S'\x07\xde\x05\x01\x00\x00\x00\x00\x00\x00'
p6806
tp6807
Rp6808
aNatp6809
Rp6810
(dp6811
g22
S'[)'
p6812
sbsS'AM_DESC'
p6813
NsS'AM_MODEL'
p6814
g6799
sS'AY_TYPE'
p6815
g6797
stp6816
Rp6817
s(VICP-MS
p6818
VThermo (VG)
p6819
VPlasmaQuad
p6820
tp6821
g5
(g6
g7
(dp6822
S'AM_COMMENT'
p6823
NsS'AM_MANUFACTURER'
p6824
g6819
sS'SYSTIME'
p6825
g5
(g12
g13
(lp6826
g15
(S'\x07\xde\x05\x01\x00\x00\x00\x00\x00\x00'
p6827
tp6828
Rp6829
aNatp6830
Rp6831
(dp6832
g22
S'[)'
p6833
sbsS'AM_DESC'
p6834
NsS'AM_MODEL'
p6835
g6820
sS'AY_TYPE'
p6836
g6818
stp6837
Rp6838
s(VICP-AES
p6839
VVarian (Agilent)
p6840
VVarian 735-ES
p6841
tp6842
g5
(g6
g7
(dp6843
S'AM_COMMENT'
p6844
NsS'AM_MANUFACTURER'
p6845
g6840
sS'SYSTIME'
p6846
g5
(g12
g13
(lp6847
g15
(S'\x07\xde\x05\x01\x00\x00\x00\x00\x00\x00'
p6848
tp6849
Rp6850
aNatp6851
Rp6852
(dp6853
g22
S'[)'
p6854
sbsS'AM_DESC'
p6855
NsS'AM_MODEL'
p6856
g6841
sS'AY_TYPE'
p6857
g6839
stp6858
Rp6859
s.