(dp0
(Vozone
p1
VCCQM.O3.2019
p2
tp3
ccopy_reg
_reconstructor
p4
(cnilutility.datatypes
DataObject
p5
c__builtin__
dict
p6
(dp7
S'SYSTIME'
p8
g4
(cnilutility.datetime_helper
DatetimeInterval
p9
c__builtin__
list
p10
(lp11
cdatetime
datetime
p12
(S'\x07\xe6\t\t\x12\x08\x1c\x03\xd6n'
p13
tp14
Rp15
aNatp16
Rp17
(dp18
S'bounds'
p19
S'[)'
p20
sbsS'CO_COMP_NAME'
p21
g1
sS'AX_ABSORPTION_CROSSSECTION'
p22
g2
sS'AX_DESC'
p23
VCCQM 2019 consensus value 1.1329(35)E\u221217 cm2 molecule\u22121 (https://doi.org/10.1088/1681-7575/ab0bdd)
p24
sS'AX_COMMENT'
p25
Nstp26
Rp27
s(Vozone
p28
VHearn, 1961
p29
tp30
g4
(g5
g6
(dp31
S'SYSTIME'
p32
g4
(g9
g10
(lp33
g12
(S'\x07\xe6\t\t\x12\x08\x0f\x01\xd7\xeb'
p34
tp35
Rp36
aNatp37
Rp38
(dp39
g19
S'[)'
p40
sbsS'CO_COMP_NAME'
p41
g28
sS'AX_ABSORPTION_CROSSSECTION'
p42
g29
sS'AX_DESC'
p43
VConventionally accepted reference value 1.1476E-17 cm2 molecule\u22121 reported by Hearn, A G (1961) The Absorption of Ozone in the Ultra-violet and Visible Regions of the Spectrum. Proceedings of the Physical Society, 78 (5). 932-940 doi:10.1088/0370-1328/78/5/340
p44
sS'AX_COMMENT'
p45
Nstp46
Rp47
s.