(dp0
VAES
p1
ccopy_reg
_reconstructor
p2
(cnilutility.datatypes
DataObject
p3
c__builtin__
dict
p4
(dp5
S'SYSTIME'
p6
g2
(cnilutility.datetime_helper
DatetimeInterval
p7
c__builtin__
list
p8
(lp9
cdatetime
datetime
p10
(S'\x07\xde\x05\x01\x00\x00\x00\x00\x00\x00'
p11
tp12
Rp13
aNatp14
Rp15
(dp16
S'bounds'
p17
S'[)'
p18
sbsS'AY_DESC'
p19
VAtomic emission spectroscopy
p20
sS'AY_COMMENT'
p21
NsS'AY_TYPE'
p22
g1
stp23
Rp24
sVpH_conductivity_meter
p25
g2
(g3
g4
(dp26
S'SYSTIME'
p27
g2
(g7
g8
(lp28
g10
(S'\x07\xde\x05\x01\x00\x00\x00\x00\x00\x00'
p29
tp30
Rp31
aNatp32
Rp33
(dp34
g17
S'[)'
p35
sbsS'AY_DESC'
p36
NsS'AY_COMMENT'
p37
NsS'AY_TYPE'
p38
g25
stp39
Rp40
sVthermal_analysis
p41
g2
(g3
g4
(dp42
S'SYSTIME'
p43
g2
(g7
g8
(lp44
g10
(S'\x07\xde\x05\x01\x00\x00\x00\x00\x00\x00'
p45
tp46
Rp47
aNatp48
Rp49
(dp50
g17
S'[)'
p51
sbsS'AY_DESC'
p52
Vthermal analysis of organic componds
p53
sS'AY_COMMENT'
p54
NsS'AY_TYPE'
p55
g41
stp56
Rp57
sVUHPLC-MS/MS
p58
g2
(g3
g4
(dp59
S'SYSTIME'
p60
g2
(g7
g8
(lp61
g10
(S'\x07\xe8\x05\x1e\x0c#\x0c\x08\xc7\x89'
p62
tp63
Rp64
aNatp65
Rp66
(dp67
g17
S'[)'
p68
sbsS'AY_DESC'
p69
VUltra high performance liquid chromatography/tandem mass spectrometry
p70
sS'AY_COMMENT'
p71
NsS'AY_TYPE'
p72
g58
stp73
Rp74
sVF-AAS
p75
g2
(g3
g4
(dp76
S'SYSTIME'
p77
g2
(g7
g8
(lp78
g10
(S'\x07\xde\x05\x01\x00\x00\x00\x00\x00\x00'
p79
tp80
Rp81
aNatp82
Rp83
(dp84
g17
S'[)'
p85
sbsS'AY_DESC'
p86
VFlame-AAS
p87
sS'AY_COMMENT'
p88
NsS'AY_TYPE'
p89
g75
stp90
Rp91
sVCV-AFS
p92
g2
(g3
g4
(dp93
S'SYSTIME'
p94
g2
(g7
g8
(lp95
g10
(S'\x07\xde\x05\x01\x00\x00\x00\x00\x00\x00'
p96
tp97
Rp98
aNatp99
Rp100
(dp101
g17
S'[)'
p102
sbsS'AY_DESC'
p103
VCold vapor-atomic fluorescence spectrometry
p104
sS'AY_COMMENT'
p105
NsS'AY_TYPE'
p106
g92
stp107
Rp108
sVHPLC-UV/Vis
p109
g2
(g3
g4
(dp110
S'SYSTIME'
p111
g2
(g7
g8
(lp112
g10
(S'\x07\xde\x05\x01\x00\x00\x00\x00\x00\x00'
p113
tp114
Rp115
aNatp116
Rp117
(dp118
g17
S'[)'
p119
sbsS'AY_DESC'
p120
VHPLC UV with UV/visible detector
p121
sS'AY_COMMENT'
p122
NsS'AY_TYPE'
p123
g109
stp124
Rp125
sVspectrophotometric_griess_saltzmann
p126
g2
(g3
g4
(dp127
S'SYSTIME'
p128
g2
(g7
g8
(lp129
g10
(S'\x07\xde\x05\x01\x00\x00\x00\x00\x00\x00'
p130
tp131
Rp132
aNatp133
Rp134
(dp135
g17
S'[)'
p136
sbsS'AY_DESC'
p137
NsS'AY_COMMENT'
p138
NsS'AY_TYPE'
p139
g126
stp140
Rp141
sVconductivity_meter
p142
g2
(g3
g4
(dp143
S'SYSTIME'
p144
g2
(g7
g8
(lp145
g10
(S'\x07\xde\x05\x01\x00\x00\x00\x00\x00\x00'
p146
tp147
Rp148
aNatp149
Rp150
(dp151
g17
S'[)'
p152
sbsS'AY_DESC'
p153
NsS'AY_COMMENT'
p154
NsS'AY_TYPE'
p155
g142
stp156
Rp157
sVGC-ECD
p158
g2
(g3
g4
(dp159
S'SYSTIME'
p160
g2
(g7
g8
(lp161
g10
(S'\x07\xde\x05\x01\x00\x00\x00\x00\x00\x00'
p162
tp163
Rp164
aNatp165
Rp166
(dp167
g17
S'[)'
p168
sbsS'AY_DESC'
p169
VGas chromathography electron capture detector
p170
sS'AY_COMMENT'
p171
NsS'AY_TYPE'
p172
g158
stp173
Rp174
sVHPLC-MS/MS
p175
g2
(g3
g4
(dp176
S'SYSTIME'
p177
g2
(g7
g8
(lp178
g10
(S'\x07\xe7\x01\x0c\x0c#.\x08J\x16'
p179
tp180
Rp181
aNatp182
Rp183
(dp184
g17
S'[)'
p185
sbsS'AY_DESC'
p186
VHigh performance liquid chromatography/tandem mass spectrometry
p187
sS'AY_COMMENT'
p188
NsS'AY_TYPE'
p189
g175
stp190
Rp191
sVAAS
p192
g2
(g3
g4
(dp193
S'SYSTIME'
p194
g2
(g7
g8
(lp195
g10
(S'\x07\xde\x05\x01\x00\x00\x00\x00\x00\x00'
p196
tp197
Rp198
aNatp199
Rp200
(dp201
g17
S'[)'
p202
sbsS'AY_DESC'
p203
VAtomic absorption spectroscopy
p204
sS'AY_COMMENT'
p205
NsS'AY_TYPE'
p206
g192
stp207
Rp208
sVUHPLC-MS
p209
g2
(g3
g4
(dp210
S'SYSTIME'
p211
g2
(g7
g8
(lp212
g10
(S'\x07\xde\x05\x01\x00\x00\x00\x00\x00\x00'
p213
tp214
Rp215
aNatp216
Rp217
(dp218
g17
S'[)'
p219
sbsS'AY_DESC'
p220
VUltra-high performance liquid chromatography - mass spectrometry
p221
sS'AY_COMMENT'
p222
NsS'AY_TYPE'
p223
g209
stp224
Rp225
sVby_weight
p226
g2
(g3
g4
(dp227
S'SYSTIME'
p228
g2
(g7
g8
(lp229
g10
(S'\x07\xde\x05\x01\x00\x00\x00\x00\x00\x00'
p230
tp231
Rp232
aNatp233
Rp234
(dp235
g17
S'[)'
p236
sbsS'AY_DESC'
p237
NsS'AY_COMMENT'
p238
NsS'AY_TYPE'
p239
g226
stp240
Rp241
sVGC-TCD
p242
g2
(g3
g4
(dp243
S'SYSTIME'
p244
g2
(g7
g8
(lp245
g10
(S'\x07\xde\x05\x01\x00\x00\x00\x00\x00\x00'
p246
tp247
Rp248
aNatp249
Rp250
(dp251
g17
S'[)'
p252
sbsS'AY_DESC'
p253
VGas chromathography thermal conductivity detector
p254
sS'AY_COMMENT'
p255
NsS'AY_TYPE'
p256
g242
stp257
Rp258
sVspectrophotometric
p259
g2
(g3
g4
(dp260
S'SYSTIME'
p261
g2
(g7
g8
(lp262
g10
(S'\x07\xde\x05\x01\x00\x00\x00\x00\x00\x00'
p263
tp264
Rp265
aNatp266
Rp267
(dp268
g17
S'[)'
p269
sbsS'AY_DESC'
p270
NsS'AY_COMMENT'
p271
NsS'AY_TYPE'
p272
g259
stp273
Rp274
sVGC-HRMS
p275
g2
(g3
g4
(dp276
S'SYSTIME'
p277
g2
(g7
g8
(lp278
g10
(S'\x07\xde\x05\x01\x00\x00\x00\x00\x00\x00'
p279
tp280
Rp281
aNatp282
Rp283
(dp284
g17
S'[)'
p285
sbsS'AY_DESC'
p286
VHigh resolution GC-MS
p287
sS'AY_COMMENT'
p288
NsS'AY_TYPE'
p289
g275
stp290
Rp291
sVpH_meter
p292
g2
(g3
g4
(dp293
S'SYSTIME'
p294
g2
(g7
g8
(lp295
g10
(S'\x07\xde\x05\x01\x00\x00\x00\x00\x00\x00'
p296
tp297
Rp298
aNatp299
Rp300
(dp301
g17
S'[)'
p302
sbsS'AY_DESC'
p303
NsS'AY_COMMENT'
p304
NsS'AY_TYPE'
p305
g292
stp306
Rp307
sVHPLC-MS
p308
g2
(g3
g4
(dp309
S'SYSTIME'
p310
g2
(g7
g8
(lp311
g10
(S'\x07\xde\x05\x01\x00\x00\x00\x00\x00\x00'
p312
tp313
Rp314
aNatp315
Rp316
(dp317
g17
S'[)'
p318
sbsS'AY_DESC'
p319
VHigh performance liquid chromatography/mass spectrometry
p320
sS'AY_COMMENT'
p321
NsS'AY_TYPE'
p322
g308
stp323
Rp324
sVHPLC-PDA
p325
g2
(g3
g4
(dp326
S'SYSTIME'
p327
g2
(g7
g8
(lp328
g10
(S'\x07\xde\x05\x01\x00\x00\x00\x00\x00\x00'
p329
tp330
Rp331
aNatp332
Rp333
(dp334
g17
S'[)'
p335
sbsS'AY_DESC'
p336
VHPLC with photodiode array detector
p337
sS'AY_COMMENT'
p338
NsS'AY_TYPE'
p339
g325
stp340
Rp341
sVspectrophotometric_nessler
p342
g2
(g3
g4
(dp343
S'SYSTIME'
p344
g2
(g7
g8
(lp345
g10
(S'\x07\xde\x05\x01\x00\x00\x00\x00\x00\x00'
p346
tp347
Rp348
aNatp349
Rp350
(dp351
g17
S'[)'
p352
sbsS'AY_DESC'
p353
NsS'AY_COMMENT'
p354
NsS'AY_TYPE'
p355
g342
stp356
Rp357
sVvoltammetry
p358
g2
(g3
g4
(dp359
S'SYSTIME'
p360
g2
(g7
g8
(lp361
g10
(S'\x07\xde\x05\x01\x00\x00\x00\x00\x00\x00'
p362
tp363
Rp364
aNatp365
Rp366
(dp367
g17
S'[)'
p368
sbsS'AY_DESC'
p369
NsS'AY_COMMENT'
p370
NsS'AY_TYPE'
p371
g358
stp372
Rp373
sVICP-HRMS
p374
g2
(g3
g4
(dp375
S'SYSTIME'
p376
g2
(g7
g8
(lp377
g10
(S'\x07\xde\x05\x01\x00\x00\x00\x00\x00\x00'
p378
tp379
Rp380
aNatp381
Rp382
(dp383
g17
S'[)'
p384
sbsS'AY_DESC'
p385
VHigh resolution ICP-MS
p386
sS'AY_COMMENT'
p387
NsS'AY_TYPE'
p388
g374
stp389
Rp390
sVGC-MS/MS
p391
g2
(g3
g4
(dp392
S'SYSTIME'
p393
g2
(g7
g8
(lp394
g10
(S'\x07\xe9\x0c\x01\x0b\x16\t\x08\x1a\x1b'
p395
tp396
Rp397
aNatp398
Rp399
(dp400
g17
S'[)'
p401
sbsS'AY_DESC'
p402
VTandem GC-MS
p403
sS'AY_COMMENT'
p404
NsS'AY_TYPE'
p405
g391
stp406
Rp407
sVGF-AAS
p408
g2
(g3
g4
(dp409
S'SYSTIME'
p410
g2
(g7
g8
(lp411
g10
(S'\x07\xde\x05\x01\x00\x00\x00\x00\x00\x00'
p412
tp413
Rp414
aNatp415
Rp416
(dp417
g17
S'[)'
p418
sbsS'AY_DESC'
p419
VGraphite furnace AAS
p420
sS'AY_COMMENT'
p421
NsS'AY_TYPE'
p422
g408
stp423
Rp424
sVICP-AES
p425
g2
(g3
g4
(dp426
S'SYSTIME'
p427
g2
(g7
g8
(lp428
g10
(S'\x07\xde\x05\x01\x00\x00\x00\x00\x00\x00'
p429
tp430
Rp431
aNatp432
Rp433
(dp434
g17
S'[)'
p435
sbsS'AY_DESC'
p436
VInductively coupled plasma atomic emission spectroscopy
p437
sS'AY_COMMENT'
p438
NsS'AY_TYPE'
p439
g425
stp440
Rp441
sVGC-FID
p442
g2
(g3
g4
(dp443
S'SYSTIME'
p444
g2
(g7
g8
(lp445
g10
(S'\x07\xde\x05\x01\x00\x00\x00\x00\x00\x00'
p446
tp447
Rp448
aNatp449
Rp450
(dp451
g17
S'[)'
p452
sbsS'AY_DESC'
p453
VGas chromathography flame ionization detector
p454
sS'AY_COMMENT'
p455
NsS'AY_TYPE'
p456
g442
stp457
Rp458
sVHPLC
p459
g2
(g3
g4
(dp460
S'SYSTIME'
p461
g2
(g7
g8
(lp462
g10
(S'\x07\xde\x05\x01\x00\x00\x00\x00\x00\x00'
p463
tp464
Rp465
aNatp466
Rp467
(dp468
g17
S'[)'
p469
sbsS'AY_DESC'
p470
VHigh performance liquid chromatography
p471
sS'AY_COMMENT'
p472
NsS'AY_TYPE'
p473
g459
stp474
Rp475
sVUPLC-MS
p476
g2
(g3
g4
(dp477
S'SYSTIME'
p478
g2
(g7
g8
(lp479
g10
(S'\x07\xde\x05\x01\x00\x00\x00\x00\x00\x00'
p480
tp481
Rp482
aNatp483
Rp484
(dp485
g17
S'[)'
p486
sbsS'AY_DESC'
p487
VUltra performance liquid chromatography - mass spectrometry
p488
sS'AY_COMMENT'
p489
NsS'AY_TYPE'
p490
g476
stp491
Rp492
sVspectrophotometric_thorin
p493
g2
(g3
g4
(dp494
S'SYSTIME'
p495
g2
(g7
g8
(lp496
g10
(S'\x07\xde\x05\x01\x00\x00\x00\x00\x00\x00'
p497
tp498
Rp499
aNatp500
Rp501
(dp502
g17
S'[)'
p503
sbsS'AY_DESC'
p504
NsS'AY_COMMENT'
p505
NsS'AY_TYPE'
p506
g493
stp507
Rp508
sVCV-AAS
p509
g2
(g3
g4
(dp510
S'SYSTIME'
p511
g2
(g7
g8
(lp512
g10
(S'\x07\xde\x05\x01\x00\x00\x00\x00\x00\x00'
p513
tp514
Rp515
aNatp516
Rp517
(dp518
g17
S'[)'
p519
sbsS'AY_DESC'
p520
VCold vapor AAS
p521
sS'AY_COMMENT'
p522
NsS'AY_TYPE'
p523
g509
stp524
Rp525
sVPIGE
p526
g2
(g3
g4
(dp527
S'SYSTIME'
p528
g2
(g7
g8
(lp529
g10
(S'\x07\xe8\x06\x1b\x0b\x00\x17\x082\xb2'
p530
tp531
Rp532
aNatp533
Rp534
(dp535
g17
S'[)'
p536
sbsS'AY_DESC'
p537
VParticle induced gamma-ray emission
p538
sS'AY_COMMENT'
p539
NsS'AY_TYPE'
p540
g526
stp541
Rp542
sVspectrophotometric_indophenol
p543
g2
(g3
g4
(dp544
S'SYSTIME'
p545
g2
(g7
g8
(lp546
g10
(S'\x07\xde\x05\x01\x00\x00\x00\x00\x00\x00'
p547
tp548
Rp549
aNatp550
Rp551
(dp552
g17
S'[)'
p553
sbsS'AY_DESC'
p554
NsS'AY_COMMENT'
p555
NsS'AY_TYPE'
p556
g543
stp557
Rp558
sVXRF
p559
g2
(g3
g4
(dp560
S'SYSTIME'
p561
g2
(g7
g8
(lp562
g10
(S'\x07\xde\x05\x01\x00\x00\x00\x00\x00\x00'
p563
tp564
Rp565
aNatp566
Rp567
(dp568
g17
S'[)'
p569
sbsS'AY_DESC'
p570
VX-ray fluorescence
p571
sS'AY_COMMENT'
p572
NsS'AY_TYPE'
p573
g559
stp574
Rp575
sVCE
p576
g2
(g3
g4
(dp577
S'SYSTIME'
p578
g2
(g7
g8
(lp579
g10
(S'\x07\xde\x05\x01\x00\x00\x00\x00\x00\x00'
p580
tp581
Rp582
aNatp583
Rp584
(dp585
g17
S'[)'
p586
sbsS'AY_DESC'
p587
VCapillary electrophoresis
p588
sS'AY_COMMENT'
p589
NsS'AY_TYPE'
p590
g576
stp591
Rp592
sVTLC
p593
g2
(g3
g4
(dp594
S'SYSTIME'
p595
g2
(g7
g8
(lp596
g10
(S'\x07\xde\x05\x01\x00\x00\x00\x00\x00\x00'
p597
tp598
Rp599
aNatp600
Rp601
(dp602
g17
S'[)'
p603
sbsS'AY_DESC'
p604
VThin layer chromatograpy
p605
sS'AY_COMMENT'
p606
NsS'AY_TYPE'
p607
g593
stp608
Rp609
sVby_volume
p610
g2
(g3
g4
(dp611
S'SYSTIME'
p612
g2
(g7
g8
(lp613
g10
(S'\x07\xde\x05\x01\x00\x00\x00\x00\x00\x00'
p614
tp615
Rp616
aNatp617
Rp618
(dp619
g17
S'[)'
p620
sbsS'AY_DESC'
p621
NsS'AY_COMMENT'
p622
NsS'AY_TYPE'
p623
g610
stp624
Rp625
sVchemiluminescence
p626
g2
(g3
g4
(dp627
S'SYSTIME'
p628
g2
(g7
g8
(lp629
g10
(S'\x07\xde\x05\x01\x00\x00\x00\x00\x00\x00'
p630
tp631
Rp632
aNatp633
Rp634
(dp635
g17
S'[)'
p636
sbsS'AY_DESC'
p637
NsS'AY_COMMENT'
p638
NsS'AY_TYPE'
p639
g626
stp640
Rp641
sVspectrophotometric_griess
p642
g2
(g3
g4
(dp643
S'SYSTIME'
p644
g2
(g7
g8
(lp645
g10
(S'\x07\xde\x05\x01\x00\x00\x00\x00\x00\x00'
p646
tp647
Rp648
aNatp649
Rp650
(dp651
g17
S'[)'
p652
sbsS'AY_DESC'
p653
NsS'AY_COMMENT'
p654
NsS'AY_TYPE'
p655
g642
stp656
Rp657
sVGC
p658
g2
(g3
g4
(dp659
S'SYSTIME'
p660
g2
(g7
g8
(lp661
g10
(S'\x07\xde\x05\x01\x00\x00\x00\x00\x00\x00'
p662
tp663
Rp664
aNatp665
Rp666
(dp667
g17
S'[)'
p668
sbsS'AY_DESC'
p669
VGas chromathography
p670
sS'AY_COMMENT'
p671
NsS'AY_TYPE'
p672
g658
stp673
Rp674
sVGC-MS
p675
g2
(g3
g4
(dp676
S'SYSTIME'
p677
g2
(g7
g8
(lp678
g10
(S'\x07\xde\x05\x01\x00\x00\x00\x00\x00\x00'
p679
tp680
Rp681
aNatp682
Rp683
(dp684
g17
S'[)'
p685
sbsS'AY_DESC'
p686
VGas chromathography mass spectrometry
p687
sS'AY_COMMENT'
p688
NsS'AY_TYPE'
p689
g675
stp690
Rp691
sVspectrophotometric_chloramin_t
p692
g2
(g3
g4
(dp693
S'SYSTIME'
p694
g2
(g7
g8
(lp695
g10
(S'\x07\xde\x05\x01\x00\x00\x00\x00\x00\x00'
p696
tp697
Rp698
aNatp699
Rp700
(dp701
g17
S'[)'
p702
sbsS'AY_DESC'
p703
NsS'AY_COMMENT'
p704
NsS'AY_TYPE'
p705
g692
stp706
Rp707
sVIC
p708
g2
(g3
g4
(dp709
S'SYSTIME'
p710
g2
(g7
g8
(lp711
g10
(S'\x07\xde\x05\x01\x00\x00\x00\x00\x00\x00'
p712
tp713
Rp714
aNatp715
Rp716
(dp717
g17
S'[)'
p718
sbsS'AY_DESC'
p719
VIon chromatography
p720
sS'AY_COMMENT'
p721
NsS'AY_TYPE'
p722
g708
stp723
Rp724
sVrain_gauge
p725
g2
(g3
g4
(dp726
S'SYSTIME'
p727
g2
(g7
g8
(lp728
g10
(S'\x07\xde\x05\x01\x00\x00\x00\x00\x00\x00'
p729
tp730
Rp731
aNatp732
Rp733
(dp734
g17
S'[)'
p735
sbsS'AY_DESC'
p736
NsS'AY_COMMENT'
p737
NsS'AY_TYPE'
p738
g725
stp739
Rp740
sVflame_photometry
p741
g2
(g3
g4
(dp742
S'SYSTIME'
p743
g2
(g7
g8
(lp744
g10
(S'\x07\xde\x05\x01\x00\x00\x00\x00\x00\x00'
p745
tp746
Rp747
aNatp748
Rp749
(dp750
g17
S'[)'
p751
sbsS'AY_DESC'
p752
NsS'AY_COMMENT'
p753
NsS'AY_TYPE'
p754
g741
stp755
Rp756
sVthermal-optical_analysis
p757
g2
(g3
g4
(dp758
S'SYSTIME'
p759
g2
(g7
g8
(lp760
g10
(S'\x07\xde\x05\x01\x00\x00\x00\x00\x00\x00'
p761
tp762
Rp763
aNatp764
Rp765
(dp766
g17
S'[)'
p767
sbsS'AY_DESC'
p768
Vthermal analysis of organic componds, charring correction using a laser beam (optical)
p769
sS'AY_COMMENT'
p770
NsS'AY_TYPE'
p771
g757
stp772
Rp773
sVuv_absorption
p774
g2
(g3
g4
(dp775
S'SYSTIME'
p776
g2
(g7
g8
(lp777
g10
(S'\x07\xde\x05\x01\x00\x00\x00\x00\x00\x00'
p778
tp779
Rp780
aNatp781
Rp782
(dp783
g17
S'[)'
p784
sbsS'AY_DESC'
p785
NsS'AY_COMMENT'
p786
NsS'AY_TYPE'
p787
g774
stp788
Rp789
sVcrds
p790
g2
(g3
g4
(dp791
S'SYSTIME'
p792
g2
(g7
g8
(lp793
g10
(S"\x07\xe6\x0c\x01\x0b:'\r\x83\xe4"
p794
tp795
Rp796
aNatp797
Rp798
(dp799
g17
S'[)'
p800
sbsS'AY_DESC'
p801
VCavity ringdown spectrometry
p802
sS'AY_COMMENT'
p803
NsS'AY_TYPE'
p804
g790
stp805
Rp806
sVtitration
p807
g2
(g3
g4
(dp808
S'SYSTIME'
p809
g2
(g7
g8
(lp810
g10
(S'\x07\xde\x05\x01\x00\x00\x00\x00\x00\x00'
p811
tp812
Rp813
aNatp814
Rp815
(dp816
g17
S'[)'
p817
sbsS'AY_DESC'
p818
NsS'AY_COMMENT'
p819
NsS'AY_TYPE'
p820
g807
stp821
Rp822
sVIC-MS
p823
g2
(g3
g4
(dp824
S'SYSTIME'
p825
g2
(g7
g8
(lp826
g10
(S'\x07\xe8\x05\x1e\x0b\x1f/\n\xc3\xdd'
p827
tp828
Rp829
aNatp830
Rp831
(dp832
g17
S'[)'
p833
sbsS'AY_DESC'
p834
VIon chromatography - mass spectrometry
p835
sS'AY_COMMENT'
p836
NsS'AY_TYPE'
p837
g823
stp838
Rp839
sVuv_fluorescence
p840
g2
(g3
g4
(dp841
S'SYSTIME'
p842
g2
(g7
g8
(lp843
g10
(S'\x07\xde\x05\x01\x00\x00\x00\x00\x00\x00'
p844
tp845
Rp846
aNatp847
Rp848
(dp849
g17
S'[)'
p850
sbsS'AY_DESC'
p851
NsS'AY_COMMENT'
p852
NsS'AY_TYPE'
p853
g840
stp854
Rp855
sVICP-MS
p856
g2
(g3
g4
(dp857
S'SYSTIME'
p858
g2
(g7
g8
(lp859
g10
(S'\x07\xde\x05\x01\x00\x00\x00\x00\x00\x00'
p860
tp861
Rp862
aNatp863
Rp864
(dp865
g17
S'[)'
p866
sbsS'AY_DESC'
p867
VInductively coupled plasma mass spectrometry
p868
sS'AY_COMMENT'
p869
NsS'AY_TYPE'
p870
g856
stp871
Rp872
sVCF-IRMS
p873
g2
(g3
g4
(dp874
S'SYSTIME'
p875
g2
(g7
g8
(lp876
g10
(S'\x07\xe7\x06\x14\x0e\x17/\x0b\xe3m'
p877
tp878
Rp879
aNatp880
Rp881
(dp882
g17
S'[)'
p883
sbsS'AY_DESC'
p884
VContinuous flow isotope ratio mass spectrometer
p885
sS'AY_COMMENT'
p886
NsS'AY_TYPE'
p887
g873
stp888
Rp889
sVPIXE
p890
g2
(g3
g4
(dp891
S'SYSTIME'
p892
g2
(g7
g8
(lp893
g10
(S'\x07\xe8\x06\x1b\x0b\x00\x17\x082\xb2'
p894
tp895
Rp896
aNatp897
Rp898
(dp899
g17
S'[)'
p900
sbsS'AY_DESC'
p901
VParticle induced X-ray emission
p902
sS'AY_COMMENT'
p903
NsS'AY_TYPE'
p904
g890
stp905
Rp906
s.