(dp0
(Vm-p-xylene
p1
VNPL
p2
tp3
ccopy_reg
_reconstructor
p4
(cnilutility.datatypes
DataObject
p5
c__builtin__
dict
p6
(dp7
S'CA_COMMENT'
p8
NsS'CO_COMP_NAME'
p9
g1
sS'SYSTIME'
p10
g4
(cnilutility.datetime_helper
DatetimeInterval
p11
c__builtin__
list
p12
(lp13
cdatetime
datetime
p14
(S'\x07\xde\x05\x01\x00\x00\x00\x00\x00\x00'
p15
tp16
Rp17
aNatp18
Rp19
(dp20
S'bounds'
p21
S'[)'
p22
sbsS'CA_CALIBRATION_SCALE'
p23
g2
sS'CA_DESC'
p24
Nstp25
Rp26
s(V2-methyl-2-butene
p27
VNPL
p28
tp29
g4
(g5
g6
(dp30
S'CA_COMMENT'
p31
NsS'CO_COMP_NAME'
p32
g27
sS'SYSTIME'
p33
g4
(g11
g12
(lp34
g14
(S'\x07\xde\x05\x01\x00\x00\x00\x00\x00\x00'
p35
tp36
Rp37
aNatp38
Rp39
(dp40
g21
S'[)'
p41
sbsS'CA_CALIBRATION_SCALE'
p42
g28
sS'CA_DESC'
p43
Nstp44
Rp45
s(V2-propanol
p46
VApel Riemer
p47
tp48
g4
(g5
g6
(dp49
S'CA_COMMENT'
p50
NsS'CO_COMP_NAME'
p51
g46
sS'SYSTIME'
p52
g4
(g11
g12
(lp53
g14
(S"\x07\xe7\x02\x0f\x0e!7\x00E'"
p54
tp55
Rp56
aNatp57
Rp58
(dp59
g21
S'[)'
p60
sbsS'CA_CALIBRATION_SCALE'
p61
g47
sS'CA_DESC'
p62
Nstp63
Rp64
s(V2-methylpentane
p65
VApel Riemer
p66
tp67
g4
(g5
g6
(dp68
S'CA_COMMENT'
p69
NsS'CO_COMP_NAME'
p70
g65
sS'SYSTIME'
p71
g4
(g11
g12
(lp72
g14
(S'\x07\xe7\x02\x0f\x0e!7\x01J\xf5'
p73
tp74
Rp75
aNatp76
Rp77
(dp78
g21
S'[)'
p79
sbsS'CA_CALIBRATION_SCALE'
p80
g66
sS'CA_DESC'
p81
Nstp82
Rp83
s(Vmass_59_organic_compounds
p84
VApel-Riemer
p85
tp86
g4
(g5
g6
(dp87
S'CA_COMMENT'
p88
NsS'CO_COMP_NAME'
p89
g84
sS'SYSTIME'
p90
g4
(g11
g12
(lp91
g14
(S'\x07\xe9\x06\x02\x0b\x0c4\x08\x908'
p92
tp93
Rp94
aNatp95
Rp96
(dp97
g21
S'[)'
p98
sbsS'CA_CALIBRATION_SCALE'
p99
g85
sS'CA_DESC'
p100
Nstp101
Rp102
s(Vethanol
p103
VNPL
p104
tp105
g4
(g5
g6
(dp106
S'CA_COMMENT'
p107
NsS'CO_COMP_NAME'
p108
g103
sS'SYSTIME'
p109
g4
(g11
g12
(lp110
g14
(S'\x07\xde\x05\x01\x00\x00\x00\x00\x00\x00'
p111
tp112
Rp113
aNatp114
Rp115
(dp116
g21
S'[)'
p117
sbsS'CA_CALIBRATION_SCALE'
p118
g104
sS'CA_DESC'
p119
Nstp120
Rp121
s(Vn-octane
p122
VNPL
p123
tp124
g4
(g5
g6
(dp125
S'CA_COMMENT'
p126
NsS'CO_COMP_NAME'
p127
g122
sS'SYSTIME'
p128
g4
(g11
g12
(lp129
g14
(S'\x07\xde\x05\x01\x00\x00\x00\x00\x00\x00'
p130
tp131
Rp132
aNatp133
Rp134
(dp135
g21
S'[)'
p136
sbsS'CA_CALIBRATION_SCALE'
p137
g123
sS'CA_DESC'
p138
Nstp139
Rp140
s(VPFC-116
p141
VSIO2005
p142
tp143
g4
(g5
g6
(dp144
S'CA_COMMENT'
p145
NsS'CO_COMP_NAME'
p146
g141
sS'SYSTIME'
p147
g4
(g11
g12
(lp148
g14
(S'\x07\xde\x05\x01\x00\x00\x00\x00\x00\x00'
p149
tp150
Rp151
aNatp152
Rp153
(dp154
g21
S'[)'
p155
sbsS'CA_CALIBRATION_SCALE'
p156
g142
sS'CA_DESC'
p157
Nstp158
Rp159
s(Vstyrene
p160
VRestek
p161
tp162
g4
(g5
g6
(dp163
S'CA_COMMENT'
p164
NsS'CO_COMP_NAME'
p165
g160
sS'SYSTIME'
p166
g4
(g11
g12
(lp167
g14
(S'\x07\xe9\x06\x02\x0b\x0c4\x08\xe2\x1c'
p168
tp169
Rp170
aNatp171
Rp172
(dp173
g21
S'[)'
p174
sbsS'CA_CALIBRATION_SCALE'
p175
g161
sS'CA_DESC'
p176
Nstp177
Rp178
s(Vmethanol
p179
VApel-Riemer
p180
tp181
g4
(g5
g6
(dp182
S'CA_COMMENT'
p183
NsS'CO_COMP_NAME'
p184
g179
sS'SYSTIME'
p185
g4
(g11
g12
(lp186
g14
(S'\x07\xe7\x02\x0f\x0e \x0b\n\xcb\x81'
p187
tp188
Rp189
aNatp190
Rp191
(dp192
g21
S'[)'
p193
sbsS'CA_CALIBRATION_SCALE'
p194
g180
sS'CA_DESC'
p195
Nstp196
Rp197
s(VCFC-113
p198
VSIO2005
p199
tp200
g4
(g5
g6
(dp201
S'CA_COMMENT'
p202
NsS'CO_COMP_NAME'
p203
g198
sS'SYSTIME'
p204
g4
(g11
g12
(lp205
g14
(S'\x07\xde\x05\x01\x00\x00\x00\x00\x00\x00'
p206
tp207
Rp208
aNatp209
Rp210
(dp211
g21
S'[)'
p212
sbsS'CA_CALIBRATION_SCALE'
p213
g199
sS'CA_DESC'
p214
Nstp215
Rp216
s(Vn-propanol
p217
VNPL
p218
tp219
g4
(g5
g6
(dp220
S'CA_COMMENT'
p221
NsS'CO_COMP_NAME'
p222
g217
sS'SYSTIME'
p223
g4
(g11
g12
(lp224
g14
(S'\x07\xde\x05\x01\x00\x00\x00\x00\x00\x00'
p225
tp226
Rp227
aNatp228
Rp229
(dp230
g21
S'[)'
p231
sbsS'CA_CALIBRATION_SCALE'
p232
g218
sS'CA_DESC'
p233
Nstp234
Rp235
s(Vethanol
p236
VApel Riemer
p237
tp238
g4
(g5
g6
(dp239
S'CA_COMMENT'
p240
NsS'CO_COMP_NAME'
p241
g236
sS'SYSTIME'
p242
g4
(g11
g12
(lp243
g14
(S'\x07\xe7\x02\x0f\x0e!6\x0f%\xcc'
p244
tp245
Rp246
aNatp247
Rp248
(dp249
g21
S'[)'
p250
sbsS'CA_CALIBRATION_SCALE'
p251
g237
sS'CA_DESC'
p252
Nstp253
Rp254
s(Vpentanal
p255
VNPL
p256
tp257
g4
(g5
g6
(dp258
S'CA_COMMENT'
p259
NsS'CO_COMP_NAME'
p260
g255
sS'SYSTIME'
p261
g4
(g11
g12
(lp262
g14
(S'\x07\xde\x05\x01\x00\x00\x00\x00\x00\x00'
p263
tp264
Rp265
aNatp266
Rp267
(dp268
g21
S'[)'
p269
sbsS'CA_CALIBRATION_SCALE'
p270
g256
sS'CA_DESC'
p271
Nstp272
Rp273
s(Vo-xylene
p274
VNPL
p275
tp276
g4
(g5
g6
(dp277
S'CA_COMMENT'
p278
NsS'CO_COMP_NAME'
p279
g274
sS'SYSTIME'
p280
g4
(g11
g12
(lp281
g14
(S'\x07\xde\x05\x01\x00\x00\x00\x00\x00\x00'
p282
tp283
Rp284
aNatp285
Rp286
(dp287
g21
S'[)'
p288
sbsS'CA_CALIBRATION_SCALE'
p289
g275
sS'CA_DESC'
p290
Nstp291
Rp292
s(VPFC-116
p293
VSIO2007
p294
tp295
g4
(g5
g6
(dp296
S'CA_COMMENT'
p297
NsS'CO_COMP_NAME'
p298
g293
sS'SYSTIME'
p299
g4
(g11
g12
(lp300
g14
(S'\x07\xde\x05\x01\x00\x00\x00\x00\x00\x00'
p301
tp302
Rp303
aNatp304
Rp305
(dp306
g21
S'[)'
p307
sbsS'CA_CALIBRATION_SCALE'
p308
g294
sS'CA_DESC'
p309
Nstp310
Rp311
s(Vmass_73_organic_compounds
p312
VApel-Riemer
p313
tp314
g4
(g5
g6
(dp315
S'CA_COMMENT'
p316
NsS'CO_COMP_NAME'
p317
g312
sS'SYSTIME'
p318
g4
(g11
g12
(lp319
g14
(S'\x07\xe9\t\x0b\x0b\x17\x04\x02C\xe5'
p320
tp321
Rp322
aNatp323
Rp324
(dp325
g21
S'[)'
p326
sbsS'CA_CALIBRATION_SCALE'
p327
g313
sS'CA_DESC'
p328
Nstp329
Rp330
s(V3-methylpentane
p331
VApel-Riemer
p332
tp333
g4
(g5
g6
(dp334
S'CA_COMMENT'
p335
NsS'CO_COMP_NAME'
p336
g331
sS'SYSTIME'
p337
g4
(g11
g12
(lp338
g14
(S'\x07\xe7\x02\x0f\x0e \x0c\x01\x1b}'
p339
tp340
Rp341
aNatp342
Rp343
(dp344
g21
S'[)'
p345
sbsS'CA_CALIBRATION_SCALE'
p346
g332
sS'CA_DESC'
p347
Nstp348
Rp349
s(Vethene
p350
VNPL
p351
tp352
g4
(g5
g6
(dp353
S'CA_COMMENT'
p354
NsS'CO_COMP_NAME'
p355
g350
sS'SYSTIME'
p356
g4
(g11
g12
(lp357
g14
(S'\x07\xde\x05\x01\x00\x00\x00\x00\x00\x00'
p358
tp359
Rp360
aNatp361
Rp362
(dp363
g21
S'[)'
p364
sbsS'CA_CALIBRATION_SCALE'
p365
g351
sS'CA_DESC'
p366
Nstp367
Rp368
s(Veucalyptol
p369
VNPL
p370
tp371
g4
(g5
g6
(dp372
S'CA_COMMENT'
p373
NsS'CO_COMP_NAME'
p374
g369
sS'SYSTIME'
p375
g4
(g11
g12
(lp376
g14
(S'\x07\xde\x05\x01\x00\x00\x00\x00\x00\x00'
p377
tp378
Rp379
aNatp380
Rp381
(dp382
g21
S'[)'
p383
sbsS'CA_CALIBRATION_SCALE'
p384
g370
sS'CA_DESC'
p385
Nstp386
Rp387
s(V2-methylpropenal
p388
VNPL
p389
tp390
g4
(g5
g6
(dp391
S'CA_COMMENT'
p392
NsS'CO_COMP_NAME'
p393
g388
sS'SYSTIME'
p394
g4
(g11
g12
(lp395
g14
(S'\x07\xe7\x03\x08\x0c%&\x06\xc8W'
p396
tp397
Rp398
aNatp399
Rp400
(dp401
g21
S'[)'
p402
sbsS'CA_CALIBRATION_SCALE'
p403
g389
sS'CA_DESC'
p404
Nstp405
Rp406
s(Vn-butanol
p407
VNPL
p408
tp409
g4
(g5
g6
(dp410
S'CA_COMMENT'
p411
NsS'CO_COMP_NAME'
p412
g407
sS'SYSTIME'
p413
g4
(g11
g12
(lp414
g14
(S'\x07\xde\x05\x01\x00\x00\x00\x00\x00\x00'
p415
tp416
Rp417
aNatp418
Rp419
(dp420
g21
S'[)'
p421
sbsS'CA_CALIBRATION_SCALE'
p422
g408
sS'CA_DESC'
p423
Nstp424
Rp425
s(VPFC-14
p426
VSIO2005
p427
tp428
g4
(g5
g6
(dp429
S'CA_COMMENT'
p430
NsS'CO_COMP_NAME'
p431
g426
sS'SYSTIME'
p432
g4
(g11
g12
(lp433
g14
(S'\x07\xde\x05\x01\x00\x00\x00\x00\x00\x00'
p434
tp435
Rp436
aNatp437
Rp438
(dp439
g21
S'[)'
p440
sbsS'CA_CALIBRATION_SCALE'
p441
g427
sS'CA_DESC'
p442
Nstp443
Rp444
s(Vn-propanol
p445
VApel Riemer
p446
tp447
g4
(g5
g6
(dp448
S'CA_COMMENT'
p449
NsS'CO_COMP_NAME'
p450
g445
sS'SYSTIME'
p451
g4
(g11
g12
(lp452
g14
(S'\x07\xe7\x02\x0f\x0e!7\x00\xe7!'
p453
tp454
Rp455
aNatp456
Rp457
(dp458
g21
S'[)'
p459
sbsS'CA_CALIBRATION_SCALE'
p460
g446
sS'CA_DESC'
p461
Nstp462
Rp463
s(Vtoluene
p464
VApel Riemer
p465
tp466
g4
(g5
g6
(dp467
S'CA_COMMENT'
p468
NsS'CO_COMP_NAME'
p469
g464
sS'SYSTIME'
p470
g4
(g11
g12
(lp471
g14
(S'\x07\xe7\x02\x0f\x0e!7\x033\x1e'
p472
tp473
Rp474
aNatp475
Rp476
(dp477
g21
S'[)'
p478
sbsS'CA_CALIBRATION_SCALE'
p479
g465
sS'CA_DESC'
p480
Nstp481
Rp482
s(Vpentanal
p483
VApel Riemer
p484
tp485
g4
(g5
g6
(dp486
S'CA_COMMENT'
p487
NsS'CO_COMP_NAME'
p488
g483
sS'SYSTIME'
p489
g4
(g11
g12
(lp490
g14
(S'\x07\xe7\x02\x0f\x0e!7\x02\xc2\x0f'
p491
tp492
Rp493
aNatp494
Rp495
(dp496
g21
S'[)'
p497
sbsS'CA_CALIBRATION_SCALE'
p498
g484
sS'CA_DESC'
p499
Nstp500
Rp501
s(Valpha-phellandrene
p502
VApel-Riemer
p503
tp504
g4
(g5
g6
(dp505
S'CA_COMMENT'
p506
NsS'CO_COMP_NAME'
p507
g502
sS'SYSTIME'
p508
g4
(g11
g12
(lp509
g14
(S'\x07\xe7\x02\x0f\x0e \x0c\x07\x91Q'
p510
tp511
Rp512
aNatp513
Rp514
(dp515
g21
S'[)'
p516
sbsS'CA_CALIBRATION_SCALE'
p517
g503
sS'CA_DESC'
p518
Nstp519
Rp520
s(Vpropyne
p521
VNPL
p522
tp523
g4
(g5
g6
(dp524
S'CA_COMMENT'
p525
NsS'CO_COMP_NAME'
p526
g521
sS'SYSTIME'
p527
g4
(g11
g12
(lp528
g14
(S'\x07\xde\x05\x01\x00\x00\x00\x00\x00\x00'
p529
tp530
Rp531
aNatp532
Rp533
(dp534
g21
S'[)'
p535
sbsS'CA_CALIBRATION_SCALE'
p536
g522
sS'CA_DESC'
p537
Nstp538
Rp539
s(VHCFC-142b
p540
VSIO2005
p541
tp542
g4
(g5
g6
(dp543
S'CA_COMMENT'
p544
NsS'CO_COMP_NAME'
p545
g540
sS'SYSTIME'
p546
g4
(g11
g12
(lp547
g14
(S'\x07\xde\x05\x01\x00\x00\x00\x00\x00\x00'
p548
tp549
Rp550
aNatp551
Rp552
(dp553
g21
S'[)'
p554
sbsS'CA_CALIBRATION_SCALE'
p555
g541
sS'CA_DESC'
p556
Nstp557
Rp558
s(Vn-heptane
p559
VApel Riemer
p560
tp561
g4
(g5
g6
(dp562
S'CA_COMMENT'
p563
NsS'CO_COMP_NAME'
p564
g559
sS'SYSTIME'
p565
g4
(g11
g12
(lp566
g14
(S'\x07\xe7\x02\x0f\x0e!7\x02\xfd\xc6'
p567
tp568
Rp569
aNatp570
Rp571
(dp572
g21
S'[)'
p573
sbsS'CA_CALIBRATION_SCALE'
p574
g560
sS'CA_DESC'
p575
Nstp576
Rp577
s(V2-methylpentane
p578
VNPL
p579
tp580
g4
(g5
g6
(dp581
S'CA_COMMENT'
p582
NsS'CO_COMP_NAME'
p583
g578
sS'SYSTIME'
p584
g4
(g11
g12
(lp585
g14
(S'\x07\xde\x05\x01\x00\x00\x00\x00\x00\x00'
p586
tp587
Rp588
aNatp589
Rp590
(dp591
g21
S'[)'
p592
sbsS'CA_CALIBRATION_SCALE'
p593
g579
sS'CA_DESC'
p594
Nstp595
Rp596
s(Vtoluene
p597
VNPL
p598
tp599
g4
(g5
g6
(dp600
S'CA_COMMENT'
p601
NsS'CO_COMP_NAME'
p602
g597
sS'SYSTIME'
p603
g4
(g11
g12
(lp604
g14
(S'\x07\xde\x05\x01\x00\x00\x00\x00\x00\x00'
p605
tp606
Rp607
aNatp608
Rp609
(dp610
g21
S'[)'
p611
sbsS'CA_CALIBRATION_SCALE'
p612
g598
sS'CA_DESC'
p613
Nstp614
Rp615
s(Vmethyl_iodide
p616
VNOAA-2004
p617
tp618
g4
(g5
g6
(dp619
S'CA_COMMENT'
p620
NsS'CO_COMP_NAME'
p621
g616
sS'SYSTIME'
p622
g4
(g11
g12
(lp623
g14
(S'\x07\xde\x05\x01\x00\x00\x00\x00\x00\x00'
p624
tp625
Rp626
aNatp627
Rp628
(dp629
g21
S'[)'
p630
sbsS'CA_CALIBRATION_SCALE'
p631
g617
sS'CA_DESC'
p632
Nstp633
Rp634
s(Vmethanal
p635
VNPL
p636
tp637
g4
(g5
g6
(dp638
S'CA_COMMENT'
p639
NsS'CO_COMP_NAME'
p640
g635
sS'SYSTIME'
p641
g4
(g11
g12
(lp642
g14
(S'\x07\xde\x05\x01\x00\x00\x00\x00\x00\x00'
p643
tp644
Rp645
aNatp646
Rp647
(dp648
g21
S'[)'
p649
sbsS'CA_CALIBRATION_SCALE'
p650
g636
sS'CA_DESC'
p651
Nstp652
Rp653
s(Vethene
p654
VApel-Riemer
p655
tp656
g4
(g5
g6
(dp657
S'CA_COMMENT'
p658
NsS'CO_COMP_NAME'
p659
g654
sS'SYSTIME'
p660
g4
(g11
g12
(lp661
g14
(S'\x07\xe7\x02\x0f\x0e \x0b\x0b2\x03'
p662
tp663
Rp664
aNatp665
Rp666
(dp667
g21
S'[)'
p668
sbsS'CA_CALIBRATION_SCALE'
p669
g655
sS'CA_DESC'
p670
Nstp671
Rp672
s(V3-methylhexane
p673
VNPL
p674
tp675
g4
(g5
g6
(dp676
S'CA_COMMENT'
p677
NsS'CO_COMP_NAME'
p678
g673
sS'SYSTIME'
p679
g4
(g11
g12
(lp680
g14
(S'\x07\xde\x05\x01\x00\x00\x00\x00\x00\x00'
p681
tp682
Rp683
aNatp684
Rp685
(dp686
g21
S'[)'
p687
sbsS'CA_CALIBRATION_SCALE'
p688
g674
sS'CA_DESC'
p689
Nstp690
Rp691
s(Vmass_107.086_organic_compounds
p692
VApel-Riemer
p693
tp694
g4
(g5
g6
(dp695
S'CA_COMMENT'
p696
NsS'CO_COMP_NAME'
p697
g692
sS'SYSTIME'
p698
g4
(g11
g12
(lp699
g14
(S'\x07\xe9\x06\x02\x0b\x0c4\x08\xbc+'
p700
tp701
Rp702
aNatp703
Rp704
(dp705
g21
S'[)'
p706
sbsS'CA_CALIBRATION_SCALE'
p707
g693
sS'CA_DESC'
p708
Nstp709
Rp710
s(Vethyl_acetate
p711
VNPL
p712
tp713
g4
(g5
g6
(dp714
S'CA_COMMENT'
p715
NsS'CO_COMP_NAME'
p716
g711
sS'SYSTIME'
p717
g4
(g11
g12
(lp718
g14
(S'\x07\xe7\x06\x08\x0b\x053\x08\xe0\xa8'
p719
tp720
Rp721
aNatp722
Rp723
(dp724
g21
S'[)'
p725
sbsS'CA_CALIBRATION_SCALE'
p726
g712
sS'CA_DESC'
p727
Nstp728
Rp729
s(Vmass_57_organic_compounds
p730
VNPL
p731
tp732
g4
(g5
g6
(dp733
S'CA_COMMENT'
p734
NsS'CO_COMP_NAME'
p735
g730
sS'SYSTIME'
p736
g4
(g11
g12
(lp737
g14
(S'\x07\xe9\x01\x1f\x07\x05\x1a\x0ci\x07'
p738
tp739
Rp740
aNatp741
Rp742
(dp743
g21
S'[)'
p744
sbsS'CA_CALIBRATION_SCALE'
p745
g731
sS'CA_DESC'
p746
Nstp747
Rp748
s(Vpropane
p749
VNPL
p750
tp751
g4
(g5
g6
(dp752
S'CA_COMMENT'
p753
NsS'CO_COMP_NAME'
p754
g749
sS'SYSTIME'
p755
g4
(g11
g12
(lp756
g14
(S'\x07\xde\x05\x01\x00\x00\x00\x00\x00\x00'
p757
tp758
Rp759
aNatp760
Rp761
(dp762
g21
S'[)'
p763
sbsS'CA_CALIBRATION_SCALE'
p764
g750
sS'CA_DESC'
p765
Nstp766
Rp767
s(Vn-hexane
p768
VApel Riemer
p769
tp770
g4
(g5
g6
(dp771
S'CA_COMMENT'
p772
NsS'CO_COMP_NAME'
p773
g768
sS'SYSTIME'
p774
g4
(g11
g12
(lp775
g14
(S'\x07\xe7\x02\x0f\x0e!7\x01\xe8\x8c'
p776
tp777
Rp778
aNatp779
Rp780
(dp781
g21
S'[)'
p782
sbsS'CA_CALIBRATION_SCALE'
p783
g769
sS'CA_DESC'
p784
Nstp785
Rp786
s(Vpropane
p787
VSIO-p
p788
tp789
g4
(g5
g6
(dp790
S'CA_COMMENT'
p791
NsS'CO_COMP_NAME'
p792
g787
sS'SYSTIME'
p793
g4
(g11
g12
(lp794
g14
(S'\x07\xde\x05\x01\x00\x00\x00\x00\x00\x00'
p795
tp796
Rp797
aNatp798
Rp799
(dp800
g21
S'[)'
p801
sbsS'CA_CALIBRATION_SCALE'
p802
g788
sS'CA_DESC'
p803
Nstp804
Rp805
s(V2-3-dimethylpentane
p806
VNPL
p807
tp808
g4
(g5
g6
(dp809
S'CA_COMMENT'
p810
NsS'CO_COMP_NAME'
p811
g806
sS'SYSTIME'
p812
g4
(g11
g12
(lp813
g14
(S'\x07\xde\x05\x01\x00\x00\x00\x00\x00\x00'
p814
tp815
Rp816
aNatp817
Rp818
(dp819
g21
S'[)'
p820
sbsS'CA_CALIBRATION_SCALE'
p821
g807
sS'CA_DESC'
p822
Nstp823
Rp824
s(Vacetonitrile
p825
VApel-Riemer
p826
tp827
g4
(g5
g6
(dp828
S'CA_COMMENT'
p829
NsS'CO_COMP_NAME'
p830
g825
sS'SYSTIME'
p831
g4
(g11
g12
(lp832
g14
(S'\x07\xe9\x06\x02\x0b\x0c.\x00#+'
p833
tp834
Rp835
aNatp836
Rp837
(dp838
g21
S'[)'
p839
sbsS'CA_CALIBRATION_SCALE'
p840
g826
sS'CA_DESC'
p841
Nstp842
Rp843
s(Vbutanone
p844
VApel-Riemer
p845
tp846
g4
(g5
g6
(dp847
S'CA_COMMENT'
p848
NsS'CO_COMP_NAME'
p849
g844
sS'SYSTIME'
p850
g4
(g11
g12
(lp851
g14
(S'\x07\xe7\x02\x0f\x0e \x0c\x00\xe2\x9c'
p852
tp853
Rp854
aNatp855
Rp856
(dp857
g21
S'[)'
p858
sbsS'CA_CALIBRATION_SCALE'
p859
g845
sS'CA_DESC'
p860
Nstp861
Rp862
s(Vbeta-phellandrene
p863
VNPL
p864
tp865
g4
(g5
g6
(dp866
S'CA_COMMENT'
p867
NsS'CO_COMP_NAME'
p868
g863
sS'SYSTIME'
p869
g4
(g11
g12
(lp870
g14
(S'\x07\xde\x05\x01\x00\x00\x00\x00\x00\x00'
p871
tp872
Rp873
aNatp874
Rp875
(dp876
g21
S'[)'
p877
sbsS'CA_CALIBRATION_SCALE'
p878
g864
sS'CA_DESC'
p879
Nstp880
Rp881
s(V2-2-dimethylpropane
p882
VNPL
p883
tp884
g4
(g5
g6
(dp885
S'CA_COMMENT'
p886
NsS'CO_COMP_NAME'
p887
g882
sS'SYSTIME'
p888
g4
(g11
g12
(lp889
g14
(S'\x07\xde\x05\x01\x00\x00\x00\x00\x00\x00'
p890
tp891
Rp892
aNatp893
Rp894
(dp895
g21
S'[)'
p896
sbsS'CA_CALIBRATION_SCALE'
p897
g883
sS'CA_DESC'
p898
Nstp899
Rp900
s(Vcarbon_dioxide
p901
VWMO CO2 X2007
p902
tp903
g4
(g5
g6
(dp904
S'CA_COMMENT'
p905
NsS'CO_COMP_NAME'
p906
g901
sS'SYSTIME'
p907
g4
(g11
g12
(lp908
g14
(S'\x07\xde\x05\x01\x00\x00\x00\x00\x00\x00'
p909
tp910
Rp911
aNatp912
Rp913
(dp914
g21
S'[)'
p915
sbsS'CA_CALIBRATION_SCALE'
p916
g902
sS'CA_DESC'
p917
Nstp918
Rp919
s(V2-3-dimethylpentane
p920
VApel Riemer
p921
tp922
g4
(g5
g6
(dp923
S'CA_COMMENT'
p924
NsS'CO_COMP_NAME'
p925
g920
sS'SYSTIME'
p926
g4
(g11
g12
(lp927
g14
(S'\x07\xe7\x02\x0f\x0e!7\x02\x84\xe0'
p928
tp929
Rp930
aNatp931
Rp932
(dp933
g21
S'[)'
p934
sbsS'CA_CALIBRATION_SCALE'
p935
g921
sS'CA_DESC'
p936
Nstp937
Rp938
s(Vnaphthalene
p939
VApel-Riemer
p940
tp941
g4
(g5
g6
(dp942
S'CA_COMMENT'
p943
NsS'CO_COMP_NAME'
p944
g939
sS'SYSTIME'
p945
g4
(g11
g12
(lp946
g14
(S'\x07\xe7\x02\x0f\x0e \x0c\x08\xc5 '
p947
tp948
Rp949
aNatp950
Rp951
(dp952
g21
S'[)'
p953
sbsS'CA_CALIBRATION_SCALE'
p954
g940
sS'CA_DESC'
p955
Nstp956
Rp957
s(Vmethyl-cyclopentane
p958
VNPL
p959
tp960
g4
(g5
g6
(dp961
S'CA_COMMENT'
p962
NsS'CO_COMP_NAME'
p963
g958
sS'SYSTIME'
p964
g4
(g11
g12
(lp965
g14
(S'\x07\xde\x05\x01\x00\x00\x00\x00\x00\x00'
p966
tp967
Rp968
aNatp969
Rp970
(dp971
g21
S'[)'
p972
sbsS'CA_CALIBRATION_SCALE'
p973
g959
sS'CA_DESC'
p974
Nstp975
Rp976
s(Vethane
p977
VNPL
p978
tp979
g4
(g5
g6
(dp980
S'CA_COMMENT'
p981
NsS'CO_COMP_NAME'
p982
g977
sS'SYSTIME'
p983
g4
(g11
g12
(lp984
g14
(S'\x07\xde\x05\x01\x00\x00\x00\x00\x00\x00'
p985
tp986
Rp987
aNatp988
Rp989
(dp990
g21
S'[)'
p991
sbsS'CA_CALIBRATION_SCALE'
p992
g978
sS'CA_DESC'
p993
Nstp994
Rp995
s(Vtrichloromethane
p996
VSIO1998
p997
tp998
g4
(g5
g6
(dp999
S'CA_COMMENT'
p1000
NsS'CO_COMP_NAME'
p1001
g996
sS'SYSTIME'
p1002
g4
(g11
g12
(lp1003
g14
(S'\x07\xde\x05\x01\x00\x00\x00\x00\x00\x00'
p1004
tp1005
Rp1006
aNatp1007
Rp1008
(dp1009
g21
S'[)'
p1010
sbsS'CA_CALIBRATION_SCALE'
p1011
g997
sS'CA_DESC'
p1012
Nstp1013
Rp1014
s(Vsabinene
p1015
VApel Riemer
p1016
tp1017
g4
(g5
g6
(dp1018
S'CA_COMMENT'
p1019
NsS'CO_COMP_NAME'
p1020
g1015
sS'SYSTIME'
p1021
g4
(g11
g12
(lp1022
g14
(S'\x07\xe7\x02\x0f\x0e!7\x04\xb6\xd5'
p1023
tp1024
Rp1025
aNatp1026
Rp1027
(dp1028
g21
S'[)'
p1029
sbsS'CA_CALIBRATION_SCALE'
p1030
g1016
sS'CA_DESC'
p1031
Nstp1032
Rp1033
s(Vtrichloroethene
p1034
VUB-98
p1035
tp1036
g4
(g5
g6
(dp1037
S'CA_COMMENT'
p1038
NsS'CO_COMP_NAME'
p1039
g1034
sS'SYSTIME'
p1040
g4
(g11
g12
(lp1041
g14
(S'\x07\xde\x05\x01\x00\x00\x00\x00\x00\x00'
p1042
tp1043
Rp1044
aNatp1045
Rp1046
(dp1047
g21
S'[)'
p1048
sbsS'CA_CALIBRATION_SCALE'
p1049
g1035
sS'CA_DESC'
p1050
Nstp1051
Rp1052
s(Vtetrachloroethene
p1053
VNOAA-2003B
p1054
tp1055
g4
(g5
g6
(dp1056
S'CA_COMMENT'
p1057
NsS'CO_COMP_NAME'
p1058
g1053
sS'SYSTIME'
p1059
g4
(g11
g12
(lp1060
g14
(S'\x07\xde\x05\x01\x00\x00\x00\x00\x00\x00'
p1061
tp1062
Rp1063
aNatp1064
Rp1065
(dp1066
g21
S'[)'
p1067
sbsS'CA_CALIBRATION_SCALE'
p1068
g1054
sS'CA_DESC'
p1069
Nstp1070
Rp1071
s(V2-methylhexane
p1072
VApel Riemer
p1073
tp1074
g4
(g5
g6
(dp1075
S'CA_COMMENT'
p1076
NsS'CO_COMP_NAME'
p1077
g1072
sS'SYSTIME'
p1078
g4
(g11
g12
(lp1079
g14
(S'\x07\xe7\x02\x0f\x0e!7\x02eF'
p1080
tp1081
Rp1082
aNatp1083
Rp1084
(dp1085
g21
S'[)'
p1086
sbsS'CA_CALIBRATION_SCALE'
p1087
g1073
sS'CA_DESC'
p1088
Nstp1089
Rp1090
s(V2-2-4-trimethylpentane
p1091
VNPL
p1092
tp1093
g4
(g5
g6
(dp1094
S'CA_COMMENT'
p1095
NsS'CO_COMP_NAME'
p1096
g1091
sS'SYSTIME'
p1097
g4
(g11
g12
(lp1098
g14
(S'\x07\xde\x05\x01\x00\x00\x00\x00\x00\x00'
p1099
tp1100
Rp1101
aNatp1102
Rp1103
(dp1104
g21
S'[)'
p1105
sbsS'CA_CALIBRATION_SCALE'
p1106
g1092
sS'CA_DESC'
p1107
Nstp1108
Rp1109
s(V3-3-dimethylpentane
p1110
VNPL
p1111
tp1112
g4
(g5
g6
(dp1113
S'CA_COMMENT'
p1114
NsS'CO_COMP_NAME'
p1115
g1110
sS'SYSTIME'
p1116
g4
(g11
g12
(lp1117
g14
(S'\x07\xde\x05\x01\x00\x00\x00\x00\x00\x00'
p1118
tp1119
Rp1120
aNatp1121
Rp1122
(dp1123
g21
S'[)'
p1124
sbsS'CA_CALIBRATION_SCALE'
p1125
g1111
sS'CA_DESC'
p1126
Nstp1127
Rp1128
s(VCFC-114
p1129
VSIO2005
p1130
tp1131
g4
(g5
g6
(dp1132
S'CA_COMMENT'
p1133
V
p1134
sS'CO_COMP_NAME'
p1135
g1129
sS'SYSTIME'
p1136
g4
(g11
g12
(lp1137
g14
(S'\x07\xe8\x04\x05\t.:\x0e\xbd\x17'
p1138
tp1139
Rp1140
aNatp1141
Rp1142
(dp1143
g21
S'[)'
p1144
sbsS'CA_CALIBRATION_SCALE'
p1145
g1130
sS'CA_DESC'
p1146
Nstp1147
Rp1148
s(Vlimonene
p1149
VApel-Riemer
p1150
tp1151
g4
(g5
g6
(dp1152
S'CA_COMMENT'
p1153
NsS'CO_COMP_NAME'
p1154
g1149
sS'SYSTIME'
p1155
g4
(g11
g12
(lp1156
g14
(S'\x07\xe7\x02\x0f\x0e \x0c\x08\x0f\xcf'
p1157
tp1158
Rp1159
aNatp1160
Rp1161
(dp1162
g21
S'[)'
p1163
sbsS'CA_CALIBRATION_SCALE'
p1164
g1150
sS'CA_DESC'
p1165
Nstp1166
Rp1167
s(Vmass_121_organic_compounds
p1168
VApel-Riemer
p1169
tp1170
g4
(g5
g6
(dp1171
S'CA_COMMENT'
p1172
NsS'CO_COMP_NAME'
p1173
g1168
sS'SYSTIME'
p1174
g4
(g11
g12
(lp1175
g14
(S'\x07\xe9\x06\x02\x0b\x0c4\x08\xc4q'
p1176
tp1177
Rp1178
aNatp1179
Rp1180
(dp1181
g21
S'[)'
p1182
sbsS'CA_CALIBRATION_SCALE'
p1183
g1169
sS'CA_DESC'
p1184
Nstp1185
Rp1186
s(Vtrichloromethane
p1187
VNOAA-2003
p1188
tp1189
g4
(g5
g6
(dp1190
S'CA_COMMENT'
p1191
NsS'CO_COMP_NAME'
p1192
g1187
sS'SYSTIME'
p1193
g4
(g11
g12
(lp1194
g14
(S'\x07\xde\x05\x01\x00\x00\x00\x00\x00\x00'
p1195
tp1196
Rp1197
aNatp1198
Rp1199
(dp1200
g21
S'[)'
p1201
sbsS'CA_CALIBRATION_SCALE'
p1202
g1188
sS'CA_DESC'
p1203
Nstp1204
Rp1205
s(Vtrichloroethane
p1206
VSIO2005
p1207
tp1208
g4
(g5
g6
(dp1209
S'CA_COMMENT'
p1210
NsS'CO_COMP_NAME'
p1211
g1206
sS'SYSTIME'
p1212
g4
(g11
g12
(lp1213
g14
(S'\x07\xde\x05\x01\x00\x00\x00\x00\x00\x00'
p1214
tp1215
Rp1216
aNatp1217
Rp1218
(dp1219
g21
S'[)'
p1220
sbsS'CA_CALIBRATION_SCALE'
p1221
g1207
sS'CA_DESC'
p1222
Nstp1223
Rp1224
s(Vtrans-2-butene
p1225
VNPL
p1226
tp1227
g4
(g5
g6
(dp1228
S'CA_COMMENT'
p1229
NsS'CO_COMP_NAME'
p1230
g1225
sS'SYSTIME'
p1231
g4
(g11
g12
(lp1232
g14
(S'\x07\xde\x05\x01\x00\x00\x00\x00\x00\x00'
p1233
tp1234
Rp1235
aNatp1236
Rp1237
(dp1238
g21
S'[)'
p1239
sbsS'CA_CALIBRATION_SCALE'
p1240
g1226
sS'CA_DESC'
p1241
Nstp1242
Rp1243
s(V2-methylbutane
p1244
VApel-Riemer
p1245
tp1246
g4
(g5
g6
(dp1247
S'CA_COMMENT'
p1248
NsS'CO_COMP_NAME'
p1249
g1244
sS'SYSTIME'
p1250
g4
(g11
g12
(lp1251
g14
(S'\x07\xe7\x02\x0f\x0e \x0b\r=N'
p1252
tp1253
Rp1254
aNatp1255
Rp1256
(dp1257
g21
S'[)'
p1258
sbsS'CA_CALIBRATION_SCALE'
p1259
g1245
sS'CA_DESC'
p1260
Nstp1261
Rp1262
s(Vstyrene
p1263
VNPL
p1264
tp1265
g4
(g5
g6
(dp1266
S'CA_COMMENT'
p1267
NsS'CO_COMP_NAME'
p1268
g1263
sS'SYSTIME'
p1269
g4
(g11
g12
(lp1270
g14
(S'\x07\xde\x05\x01\x00\x00\x00\x00\x00\x00'
p1271
tp1272
Rp1273
aNatp1274
Rp1275
(dp1276
g21
S'[)'
p1277
sbsS'CA_CALIBRATION_SCALE'
p1278
g1264
sS'CA_DESC'
p1279
Nstp1280
Rp1281
s(Vn-propylbenzene
p1282
VApel Riemer
p1283
tp1284
g4
(g5
g6
(dp1285
S'CA_COMMENT'
p1286
NsS'CO_COMP_NAME'
p1287
g1282
sS'SYSTIME'
p1288
g4
(g11
g12
(lp1289
g14
(S'\x07\xe7\x02\x0f\x0e!7\x04xD'
p1290
tp1291
Rp1292
aNatp1293
Rp1294
(dp1295
g21
S'[)'
p1296
sbsS'CA_CALIBRATION_SCALE'
p1297
g1283
sS'CA_DESC'
p1298
Nstp1299
Rp1300
s(Vethane
p1301
VApel Riemer
p1302
tp1303
g4
(g5
g6
(dp1304
S'CA_COMMENT'
p1305
NsS'CO_COMP_NAME'
p1306
g1301
sS'SYSTIME'
p1307
g4
(g11
g12
(lp1308
g14
(S'\x07\xe7\x02\x0f\x0e!6\x0eLl'
p1309
tp1310
Rp1311
aNatp1312
Rp1313
(dp1314
g21
S'[)'
p1315
sbsS'CA_CALIBRATION_SCALE'
p1316
g1302
sS'CA_DESC'
p1317
Nstp1318
Rp1319
s(Vethane
p1320
VApel-Riemer
p1321
tp1322
g4
(g5
g6
(dp1323
S'CA_COMMENT'
p1324
NsS'CO_COMP_NAME'
p1325
g1320
sS'SYSTIME'
p1326
g4
(g11
g12
(lp1327
g14
(S'\x07\xe7\x02\x0f\x0e \x0b\x0b\xad\xa5'
p1328
tp1329
Rp1330
aNatp1331
Rp1332
(dp1333
g21
S'[)'
p1334
sbsS'CA_CALIBRATION_SCALE'
p1335
g1321
sS'CA_DESC'
p1336
Nstp1337
Rp1338
s(VPFC-318
p1339
VSIO2014
p1340
tp1341
g4
(g5
g6
(dp1342
S'CA_COMMENT'
p1343
NsS'CO_COMP_NAME'
p1344
g1339
sS'SYSTIME'
p1345
g4
(g11
g12
(lp1346
g14
(S'\x07\xde\x05\x01\x00\x00\x00\x00\x00\x00'
p1347
tp1348
Rp1349
aNatp1350
Rp1351
(dp1352
g21
S'[)'
p1353
sbsS'CA_CALIBRATION_SCALE'
p1354
g1340
sS'CA_DESC'
p1355
Nstp1356
Rp1357
s(Vpropane
p1358
VSIO2005
p1359
tp1360
g4
(g5
g6
(dp1361
S'CA_COMMENT'
p1362
NsS'CO_COMP_NAME'
p1363
g1358
sS'SYSTIME'
p1364
g4
(g11
g12
(lp1365
g14
(S'\x07\xde\x05\x01\x00\x00\x00\x00\x00\x00'
p1366
tp1367
Rp1368
aNatp1369
Rp1370
(dp1371
g21
S'[)'
p1372
sbsS'CA_CALIBRATION_SCALE'
p1373
g1359
sS'CA_DESC'
p1374
Nstp1375
Rp1376
s(Vtrans-2-pentene
p1377
VNPL
p1378
tp1379
g4
(g5
g6
(dp1380
S'CA_COMMENT'
p1381
NsS'CO_COMP_NAME'
p1382
g1377
sS'SYSTIME'
p1383
g4
(g11
g12
(lp1384
g14
(S'\x07\xde\x05\x01\x00\x00\x00\x00\x00\x00'
p1385
tp1386
Rp1387
aNatp1388
Rp1389
(dp1390
g21
S'[)'
p1391
sbsS'CA_CALIBRATION_SCALE'
p1392
g1378
sS'CA_DESC'
p1393
Nstp1394
Rp1395
s(Vbeta-pinene
p1396
VNPL
p1397
tp1398
g4
(g5
g6
(dp1399
S'CA_COMMENT'
p1400
NsS'CO_COMP_NAME'
p1401
g1396
sS'SYSTIME'
p1402
g4
(g11
g12
(lp1403
g14
(S'\x07\xde\x05\x01\x00\x00\x00\x00\x00\x00'
p1404
tp1405
Rp1406
aNatp1407
Rp1408
(dp1409
g21
S'[)'
p1410
sbsS'CA_CALIBRATION_SCALE'
p1411
g1397
sS'CA_DESC'
p1412
Nstp1413
Rp1414
s(V2-methylpropenal
p1415
VApel-Riemer
p1416
tp1417
g4
(g5
g6
(dp1418
S'CA_COMMENT'
p1419
NsS'CO_COMP_NAME'
p1420
g1415
sS'SYSTIME'
p1421
g4
(g11
g12
(lp1422
g14
(S'\x07\xe7\x02\x0f\x0e \x0b\x0f\x19\xb2'
p1423
tp1424
Rp1425
aNatp1426
Rp1427
(dp1428
g21
S'[)'
p1429
sbsS'CA_CALIBRATION_SCALE'
p1430
g1416
sS'CA_DESC'
p1431
Nstp1432
Rp1433
s(Vcarbon_dioxide
p1434
VWMO CO2 X2019
p1435
tp1436
g4
(g5
g6
(dp1437
S'CA_COMMENT'
p1438
NsS'CO_COMP_NAME'
p1439
g1434
sS'SYSTIME'
p1440
g4
(g11
g12
(lp1441
g14
(S'\x07\xde\x05\x01\x00\x00\x00\x00\x00\x00'
p1442
tp1443
Rp1444
aNatp1445
Rp1446
(dp1447
g21
S'[)'
p1448
sbsS'CA_CALIBRATION_SCALE'
p1449
g1435
sS'CA_DESC'
p1450
Vhttps://doi.org/10.5194/amt-14-3015-2021
p1451
stp1452
Rp1453
s(Vpropene
p1454
VApel-Riemer
p1455
tp1456
g4
(g5
g6
(dp1457
S'CA_COMMENT'
p1458
NsS'CO_COMP_NAME'
p1459
g1454
sS'SYSTIME'
p1460
g4
(g11
g12
(lp1461
g14
(S'\x07\xe7\x02\x0f\x0e \x0b\x0b\xe9H'
p1462
tp1463
Rp1464
aNatp1465
Rp1466
(dp1467
g21
S'[)'
p1468
sbsS'CA_CALIBRATION_SCALE'
p1469
g1455
sS'CA_DESC'
p1470
Nstp1471
Rp1472
s(V3-methylheptane
p1473
VApel-Riemer
p1474
tp1475
g4
(g5
g6
(dp1476
S'CA_COMMENT'
p1477
NsS'CO_COMP_NAME'
p1478
g1473
sS'SYSTIME'
p1479
g4
(g11
g12
(lp1480
g14
(S'\x07\xe7\x02\x0f\x0e \x0c\x03\xf2\xb5'
p1481
tp1482
Rp1483
aNatp1484
Rp1485
(dp1486
g21
S'[)'
p1487
sbsS'CA_CALIBRATION_SCALE'
p1488
g1474
sS'CA_DESC'
p1489
Nstp1490
Rp1491
s(Vtricyclene
p1492
VNPL
p1493
tp1494
g4
(g5
g6
(dp1495
S'CA_COMMENT'
p1496
NsS'CO_COMP_NAME'
p1497
g1492
sS'SYSTIME'
p1498
g4
(g11
g12
(lp1499
g14
(S'\x07\xde\x05\x01\x00\x00\x00\x00\x00\x00'
p1500
tp1501
Rp1502
aNatp1503
Rp1504
(dp1505
g21
S'[)'
p1506
sbsS'CA_CALIBRATION_SCALE'
p1507
g1493
sS'CA_DESC'
p1508
Nstp1509
Rp1510
s(Vethanedial
p1511
VNPL
p1512
tp1513
g4
(g5
g6
(dp1514
S'CA_COMMENT'
p1515
NsS'CO_COMP_NAME'
p1516
g1511
sS'SYSTIME'
p1517
g4
(g11
g12
(lp1518
g14
(S'\x07\xde\x05\x01\x00\x00\x00\x00\x00\x00'
p1519
tp1520
Rp1521
aNatp1522
Rp1523
(dp1524
g21
S'[)'
p1525
sbsS'CA_CALIBRATION_SCALE'
p1526
g1512
sS'CA_DESC'
p1527
Nstp1528
Rp1529
s(Vn-octanal
p1530
VNPL
p1531
tp1532
g4
(g5
g6
(dp1533
S'CA_COMMENT'
p1534
NsS'CO_COMP_NAME'
p1535
g1530
sS'SYSTIME'
p1536
g4
(g11
g12
(lp1537
g14
(S'\x07\xde\x05\x01\x00\x00\x00\x00\x00\x00'
p1538
tp1539
Rp1540
aNatp1541
Rp1542
(dp1543
g21
S'[)'
p1544
sbsS'CA_CALIBRATION_SCALE'
p1545
g1531
sS'CA_DESC'
p1546
Nstp1547
Rp1548
s(V2-2-4-trimethylpentane
p1549
VApel-Riemer
p1550
tp1551
g4
(g5
g6
(dp1552
S'CA_COMMENT'
p1553
NsS'CO_COMP_NAME'
p1554
g1549
sS'SYSTIME'
p1555
g4
(g11
g12
(lp1556
g14
(S'\x07\xe7\x02\x0f\x0e \x0c\x03\n\xcc'
p1557
tp1558
Rp1559
aNatp1560
Rp1561
(dp1562
g21
S'[)'
p1563
sbsS'CA_CALIBRATION_SCALE'
p1564
g1550
sS'CA_DESC'
p1565
Nstp1566
Rp1567
s(Vcarbon_tetrachloride
p1568
VSIO2005
p1569
tp1570
g4
(g5
g6
(dp1571
S'CA_COMMENT'
p1572
NsS'CO_COMP_NAME'
p1573
g1568
sS'SYSTIME'
p1574
g4
(g11
g12
(lp1575
g14
(S'\x07\xde\x05\x01\x00\x00\x00\x00\x00\x00'
p1576
tp1577
Rp1578
aNatp1579
Rp1580
(dp1581
g21
S'[)'
p1582
sbsS'CA_CALIBRATION_SCALE'
p1583
g1569
sS'CA_DESC'
p1584
Nstp1585
Rp1586
s(Vmethyl-cyclohexane
p1587
VApel Riemer
p1588
tp1589
g4
(g5
g6
(dp1590
S'CA_COMMENT'
p1591
NsS'CO_COMP_NAME'
p1592
g1587
sS'SYSTIME'
p1593
g4
(g11
g12
(lp1594
g14
(S'\x07\xe7\x02\x0f\x0e!7\x03\x18\xae'
p1595
tp1596
Rp1597
aNatp1598
Rp1599
(dp1600
g21
S'[)'
p1601
sbsS'CA_CALIBRATION_SCALE'
p1602
g1588
sS'CA_DESC'
p1603
Nstp1604
Rp1605
s(Vnitrogen_trifluoride
p1606
VSIO2005
p1607
tp1608
g4
(g5
g6
(dp1609
S'CA_COMMENT'
p1610
NsS'CO_COMP_NAME'
p1611
g1606
sS'SYSTIME'
p1612
g4
(g11
g12
(lp1613
g14
(S'\x07\xde\x05\x01\x00\x00\x00\x00\x00\x00'
p1614
tp1615
Rp1616
aNatp1617
Rp1618
(dp1619
g21
S'[)'
p1620
sbsS'CA_CALIBRATION_SCALE'
p1621
g1607
sS'CA_DESC'
p1622
Nstp1623
Rp1624
s(V2-3-dimethylbutane
p1625
VNPL
p1626
tp1627
g4
(g5
g6
(dp1628
S'CA_COMMENT'
p1629
NsS'CO_COMP_NAME'
p1630
g1625
sS'SYSTIME'
p1631
g4
(g11
g12
(lp1632
g14
(S'\x07\xde\x05\x01\x00\x00\x00\x00\x00\x00'
p1633
tp1634
Rp1635
aNatp1636
Rp1637
(dp1638
g21
S'[)'
p1639
sbsS'CA_CALIBRATION_SCALE'
p1640
g1626
sS'CA_DESC'
p1641
Nstp1642
Rp1643
s(V2-2-dimethylbutane
p1644
VApel-Riemer
p1645
tp1646
g4
(g5
g6
(dp1647
S'CA_COMMENT'
p1648
NsS'CO_COMP_NAME'
p1649
g1644
sS'SYSTIME'
p1650
g4
(g11
g12
(lp1651
g14
(S'\x07\xe7\x02\x0f\x0e \x0b\x0e\xa4\x17'
p1652
tp1653
Rp1654
aNatp1655
Rp1656
(dp1657
g21
S'[)'
p1658
sbsS'CA_CALIBRATION_SCALE'
p1659
g1645
sS'CA_DESC'
p1660
Nstp1661
Rp1662
s(V2-methylheptane
p1663
VNPL
p1664
tp1665
g4
(g5
g6
(dp1666
S'CA_COMMENT'
p1667
NsS'CO_COMP_NAME'
p1668
g1663
sS'SYSTIME'
p1669
g4
(g11
g12
(lp1670
g14
(S'\x07\xde\x05\x01\x00\x00\x00\x00\x00\x00'
p1671
tp1672
Rp1673
aNatp1674
Rp1675
(dp1676
g21
S'[)'
p1677
sbsS'CA_CALIBRATION_SCALE'
p1678
g1664
sS'CA_DESC'
p1679
Nstp1680
Rp1681
s(VHFC-23
p1682
VSIO2007
p1683
tp1684
g4
(g5
g6
(dp1685
S'CA_COMMENT'
p1686
NsS'CO_COMP_NAME'
p1687
g1682
sS'SYSTIME'
p1688
g4
(g11
g12
(lp1689
g14
(S'\x07\xde\x05\x01\x00\x00\x00\x00\x00\x00'
p1690
tp1691
Rp1692
aNatp1693
Rp1694
(dp1695
g21
S'[)'
p1696
sbsS'CA_CALIBRATION_SCALE'
p1697
g1683
sS'CA_DESC'
p1698
Nstp1699
Rp1700
s(Vlinalool
p1701
VNPL
p1702
tp1703
g4
(g5
g6
(dp1704
S'CA_COMMENT'
p1705
NsS'CO_COMP_NAME'
p1706
g1701
sS'SYSTIME'
p1707
g4
(g11
g12
(lp1708
g14
(S'\x07\xe7\x01\t\x0f\x1f \x066\x04'
p1709
tp1710
Rp1711
aNatp1712
Rp1713
(dp1714
g21
S'[)'
p1715
sbsS'CA_CALIBRATION_SCALE'
p1716
g1702
sS'CA_DESC'
p1717
Nstp1718
Rp1719
s(Vn-propylbenzene
p1720
VApel-Riemer
p1721
tp1722
g4
(g5
g6
(dp1723
S'CA_COMMENT'
p1724
NsS'CO_COMP_NAME'
p1725
g1720
sS'SYSTIME'
p1726
g4
(g11
g12
(lp1727
g14
(S'\x07\xe7\x02\x0f\x0e \x0c\x06B\x9a'
p1728
tp1729
Rp1730
aNatp1731
Rp1732
(dp1733
g21
S'[)'
p1734
sbsS'CA_CALIBRATION_SCALE'
p1735
g1721
sS'CA_DESC'
p1736
Nstp1737
Rp1738
s(Vbromomethane
p1739
VSIO2005
p1740
tp1741
g4
(g5
g6
(dp1742
S'CA_COMMENT'
p1743
NsS'CO_COMP_NAME'
p1744
g1739
sS'SYSTIME'
p1745
g4
(g11
g12
(lp1746
g14
(S'\x07\xde\x05\x01\x00\x00\x00\x00\x00\x00'
p1747
tp1748
Rp1749
aNatp1750
Rp1751
(dp1752
g21
S'[)'
p1753
sbsS'CA_CALIBRATION_SCALE'
p1754
g1740
sS'CA_DESC'
p1755
Nstp1756
Rp1757
s(V2-methyl-3-buten-2-ol
p1758
VApel-Riemer
p1759
tp1760
g4
(g5
g6
(dp1761
S'CA_COMMENT'
p1762
NsS'CO_COMP_NAME'
p1763
g1758
sS'SYSTIME'
p1764
g4
(g11
g12
(lp1765
g14
(S'\x07\xe9\x04\x18\n%\x15\x084\xab'
p1766
tp1767
Rp1768
aNatp1769
Rp1770
(dp1771
g21
S'[)'
p1772
sbsS'CA_CALIBRATION_SCALE'
p1773
g1759
sS'CA_DESC'
p1774
Nstp1775
Rp1776
s(VHFC-365mfc
p1777
VSIO2014
p1778
tp1779
g4
(g5
g6
(dp1780
S'CA_COMMENT'
p1781
NsS'CO_COMP_NAME'
p1782
g1777
sS'SYSTIME'
p1783
g4
(g11
g12
(lp1784
g14
(S'\x07\xde\x05\x01\x00\x00\x00\x00\x00\x00'
p1785
tp1786
Rp1787
aNatp1788
Rp1789
(dp1790
g21
S'[)'
p1791
sbsS'CA_CALIBRATION_SCALE'
p1792
g1778
sS'CA_DESC'
p1793
Nstp1794
Rp1795
s(VHCFC-124
p1796
VNOAA-2003B
p1797
tp1798
g4
(g5
g6
(dp1799
S'CA_COMMENT'
p1800
NsS'CO_COMP_NAME'
p1801
g1796
sS'SYSTIME'
p1802
g4
(g11
g12
(lp1803
g14
(S'\x07\xde\x05\x01\x00\x00\x00\x00\x00\x00'
p1804
tp1805
Rp1806
aNatp1807
Rp1808
(dp1809
g21
S'[)'
p1810
sbsS'CA_CALIBRATION_SCALE'
p1811
g1797
sS'CA_DESC'
p1812
Nstp1813
Rp1814
s(VHCFC-141b
p1815
VSIO2005
p1816
tp1817
g4
(g5
g6
(dp1818
S'CA_COMMENT'
p1819
NsS'CO_COMP_NAME'
p1820
g1815
sS'SYSTIME'
p1821
g4
(g11
g12
(lp1822
g14
(S'\x07\xde\x05\x01\x00\x00\x00\x00\x00\x00'
p1823
tp1824
Rp1825
aNatp1826
Rp1827
(dp1828
g21
S'[)'
p1829
sbsS'CA_CALIBRATION_SCALE'
p1830
g1816
sS'CA_DESC'
p1831
Nstp1832
Rp1833
s(Vmass_61_organic_compounds
p1834
VNPL
p1835
tp1836
g4
(g5
g6
(dp1837
S'CA_COMMENT'
p1838
NsS'CO_COMP_NAME'
p1839
g1834
sS'SYSTIME'
p1840
g4
(g11
g12
(lp1841
g14
(S'\x07\xe9\x01\x1f\x07\x05\x1a\x0ci\x07'
p1842
tp1843
Rp1844
aNatp1845
Rp1846
(dp1847
g21
S'[)'
p1848
sbsS'CA_CALIBRATION_SCALE'
p1849
g1835
sS'CA_DESC'
p1850
Nstp1851
Rp1852
s(VH-1211
p1853
VSIO2005
p1854
tp1855
g4
(g5
g6
(dp1856
S'CA_COMMENT'
p1857
NsS'CO_COMP_NAME'
p1858
g1853
sS'SYSTIME'
p1859
g4
(g11
g12
(lp1860
g14
(S'\x07\xde\x05\x01\x00\x00\x00\x00\x00\x00'
p1861
tp1862
Rp1863
aNatp1864
Rp1865
(dp1866
g21
S'[)'
p1867
sbsS'CA_CALIBRATION_SCALE'
p1868
g1854
sS'CA_DESC'
p1869
Nstp1870
Rp1871
s(V2-propanol
p1872
VApel-Riemer
p1873
tp1874
g4
(g5
g6
(dp1875
S'CA_COMMENT'
p1876
NsS'CO_COMP_NAME'
p1877
g1872
sS'SYSTIME'
p1878
g4
(g11
g12
(lp1879
g14
(S'\x07\xe7\x02\x0f\x0e \x0b\r\xb2\xdd'
p1880
tp1881
Rp1882
aNatp1883
Rp1884
(dp1885
g21
S'[)'
p1886
sbsS'CA_CALIBRATION_SCALE'
p1887
g1873
sS'CA_DESC'
p1888
Nstp1889
Rp1890
s(VH-1301
p1891
VSIO2005
p1892
tp1893
g4
(g5
g6
(dp1894
S'CA_COMMENT'
p1895
NsS'CO_COMP_NAME'
p1896
g1891
sS'SYSTIME'
p1897
g4
(g11
g12
(lp1898
g14
(S'\x07\xde\x05\x01\x00\x00\x00\x00\x00\x00'
p1899
tp1900
Rp1901
aNatp1902
Rp1903
(dp1904
g21
S'[)'
p1905
sbsS'CA_CALIBRATION_SCALE'
p1906
g1892
sS'CA_DESC'
p1907
Nstp1908
Rp1909
s(V2-methylpropene
p1910
VNPL
p1911
tp1912
g4
(g5
g6
(dp1913
S'CA_COMMENT'
p1914
NsS'CO_COMP_NAME'
p1915
g1910
sS'SYSTIME'
p1916
g4
(g11
g12
(lp1917
g14
(S'\x07\xde\x05\x01\x00\x00\x00\x00\x00\x00'
p1918
tp1919
Rp1920
aNatp1921
Rp1922
(dp1923
g21
S'[)'
p1924
sbsS'CA_CALIBRATION_SCALE'
p1925
g1911
sS'CA_DESC'
p1926
Nstp1927
Rp1928
s(Vmass_107_organic_compounds
p1929
VApel-Riemer
p1930
tp1931
g4
(g5
g6
(dp1932
S'CA_COMMENT'
p1933
NsS'CO_COMP_NAME'
p1934
g1929
sS'SYSTIME'
p1935
g4
(g11
g12
(lp1936
g14
(S'\x07\xe9\t\x0b\x0b\x17\x04\x02C\xe5'
p1937
tp1938
Rp1939
aNatp1940
Rp1941
(dp1942
g21
S'[)'
p1943
sbsS'CA_CALIBRATION_SCALE'
p1944
g1930
sS'CA_DESC'
p1945
Nstp1946
Rp1947
s(Vn-tridecane
p1948
VNPL
p1949
tp1950
g4
(g5
g6
(dp1951
S'CA_COMMENT'
p1952
NsS'CO_COMP_NAME'
p1953
g1948
sS'SYSTIME'
p1954
g4
(g11
g12
(lp1955
g14
(S'\x07\xde\x05\x01\x00\x00\x00\x00\x00\x00'
p1956
tp1957
Rp1958
aNatp1959
Rp1960
(dp1961
g21
S'[)'
p1962
sbsS'CA_CALIBRATION_SCALE'
p1963
g1949
sS'CA_DESC'
p1964
Nstp1965
Rp1966
s(Vn-hexane
p1967
VApel-Riemer
p1968
tp1969
g4
(g5
g6
(dp1970
S'CA_COMMENT'
p1971
NsS'CO_COMP_NAME'
p1972
g1967
sS'SYSTIME'
p1973
g4
(g11
g12
(lp1974
g14
(S'\x07\xe7\x02\x0f\x0e \x0c\x01X\x94'
p1975
tp1976
Rp1977
aNatp1978
Rp1979
(dp1980
g21
S'[)'
p1981
sbsS'CA_CALIBRATION_SCALE'
p1982
g1968
sS'CA_DESC'
p1983
Nstp1984
Rp1985
s(V2-methyl-2-butene
p1986
VApel Riemer
p1987
tp1988
g4
(g5
g6
(dp1989
S'CA_COMMENT'
p1990
NsS'CO_COMP_NAME'
p1991
g1986
sS'SYSTIME'
p1992
g4
(g11
g12
(lp1993
g14
(S'\x07\xe7\x02\x0f\x0e!7\x00\xa6\x90'
p1994
tp1995
Rp1996
aNatp1997
Rp1998
(dp1999
g21
S'[)'
p2000
sbsS'CA_CALIBRATION_SCALE'
p2001
g1987
sS'CA_DESC'
p2002
Nstp2003
Rp2004
s(Vethylbenzene
p2005
VNPL
p2006
tp2007
g4
(g5
g6
(dp2008
S'CA_COMMENT'
p2009
NsS'CO_COMP_NAME'
p2010
g2005
sS'SYSTIME'
p2011
g4
(g11
g12
(lp2012
g14
(S'\x07\xde\x05\x01\x00\x00\x00\x00\x00\x00'
p2013
tp2014
Rp2015
aNatp2016
Rp2017
(dp2018
g21
S'[)'
p2019
sbsS'CA_CALIBRATION_SCALE'
p2020
g2006
sS'CA_DESC'
p2021
Nstp2022
Rp2023
s(Vn-hexane
p2024
VNPL
p2025
tp2026
g4
(g5
g6
(dp2027
S'CA_COMMENT'
p2028
NsS'CO_COMP_NAME'
p2029
g2024
sS'SYSTIME'
p2030
g4
(g11
g12
(lp2031
g14
(S'\x07\xde\x05\x01\x00\x00\x00\x00\x00\x00'
p2032
tp2033
Rp2034
aNatp2035
Rp2036
(dp2037
g21
S'[)'
p2038
sbsS'CA_CALIBRATION_SCALE'
p2039
g2025
sS'CA_DESC'
p2040
Nstp2041
Rp2042
s(Vmass_93_organic_compounds
p2043
VApel-Riemer
p2044
tp2045
g4
(g5
g6
(dp2046
S'CA_COMMENT'
p2047
NsS'CO_COMP_NAME'
p2048
g2043
sS'SYSTIME'
p2049
g4
(g11
g12
(lp2050
g14
(S'\x07\xe9\t\x0b\x0b\x17\x04\x02C\xe5'
p2051
tp2052
Rp2053
aNatp2054
Rp2055
(dp2056
g21
S'[)'
p2057
sbsS'CA_CALIBRATION_SCALE'
p2058
g2044
sS'CA_DESC'
p2059
Nstp2060
Rp2061
s(Vcamphor
p2062
VNPL
p2063
tp2064
g4
(g5
g6
(dp2065
S'CA_COMMENT'
p2066
NsS'CO_COMP_NAME'
p2067
g2062
sS'SYSTIME'
p2068
g4
(g11
g12
(lp2069
g14
(S'\x07\xde\x05\x01\x00\x00\x00\x00\x00\x00'
p2070
tp2071
Rp2072
aNatp2073
Rp2074
(dp2075
g21
S'[)'
p2076
sbsS'CA_CALIBRATION_SCALE'
p2077
g2063
sS'CA_DESC'
p2078
Nstp2079
Rp2080
s(Vpropanone
p2081
VApel Riemer
p2082
tp2083
g4
(g5
g6
(dp2084
S'CA_COMMENT'
p2085
NsS'CO_COMP_NAME'
p2086
g2081
sS'SYSTIME'
p2087
g4
(g11
g12
(lp2088
g14
(S'\x07\xe7\x02\x0f\x0e!7\x00$p'
p2089
tp2090
Rp2091
aNatp2092
Rp2093
(dp2094
g21
S'[)'
p2095
sbsS'CA_CALIBRATION_SCALE'
p2096
g2082
sS'CA_DESC'
p2097
Nstp2098
Rp2099
s(Vpropanone
p2100
VApel-Riemer
p2101
tp2102
g4
(g5
g6
(dp2103
S'CA_COMMENT'
p2104
NsS'CO_COMP_NAME'
p2105
g2100
sS'SYSTIME'
p2106
g4
(g11
g12
(lp2107
g14
(S'\x07\xe7\x02\x0f\x0e \x0b\rx\x9c'
p2108
tp2109
Rp2110
aNatp2111
Rp2112
(dp2113
g21
S'[)'
p2114
sbsS'CA_CALIBRATION_SCALE'
p2115
g2101
sS'CA_DESC'
p2116
Nstp2117
Rp2118
s(V3-buten-2-one
p2119
VApel Riemer
p2120
tp2121
g4
(g5
g6
(dp2122
S'CA_COMMENT'
p2123
NsS'CO_COMP_NAME'
p2124
g2119
sS'SYSTIME'
p2125
g4
(g11
g12
(lp2126
g14
(S'\x07\xe7\x02\x0f\x0e!7\x01l\x01'
p2127
tp2128
Rp2129
aNatp2130
Rp2131
(dp2132
g21
S'[)'
p2133
sbsS'CA_CALIBRATION_SCALE'
p2134
g2120
sS'CA_DESC'
p2135
Nstp2136
Rp2137
s(Vsabinene
p2138
VApel-Riemer
p2139
tp2140
g4
(g5
g6
(dp2141
S'CA_COMMENT'
p2142
NsS'CO_COMP_NAME'
p2143
g2138
sS'SYSTIME'
p2144
g4
(g11
g12
(lp2145
g14
(S'\x07\xe7\x02\x0f\x0e \x0c\x06\xb5\xd0'
p2146
tp2147
Rp2148
aNatp2149
Rp2150
(dp2151
g21
S'[)'
p2152
sbsS'CA_CALIBRATION_SCALE'
p2153
g2139
sS'CA_DESC'
p2154
Nstp2155
Rp2156
s(Vethylbenzene
p2157
VApel Riemer
p2158
tp2159
g4
(g5
g6
(dp2160
S'CA_COMMENT'
p2161
NsS'CO_COMP_NAME'
p2162
g2157
sS'SYSTIME'
p2163
g4
(g11
g12
(lp2164
g14
(S'\x07\xe7\x02\x0f\x0e!7\x03\xab\x8c'
p2165
tp2166
Rp2167
aNatp2168
Rp2169
(dp2170
g21
S'[)'
p2171
sbsS'CA_CALIBRATION_SCALE'
p2172
g2158
sS'CA_DESC'
p2173
Nstp2174
Rp2175
s(Vmass_57.070_organic_compounds
p2176
VNPL
p2177
tp2178
g4
(g5
g6
(dp2179
S'CA_COMMENT'
p2180
NsS'CO_COMP_NAME'
p2181
g2176
sS'SYSTIME'
p2182
g4
(g11
g12
(lp2183
g14
(S'\x07\xe9\x01\x1f\x07\x05\x1a\x0ci\x07'
p2184
tp2185
Rp2186
aNatp2187
Rp2188
(dp2189
g21
S'[)'
p2190
sbsS'CA_CALIBRATION_SCALE'
p2191
g2177
sS'CA_DESC'
p2192
Nstp2193
Rp2194
s(V2-2-dimethylpentane
p2195
VNPL
p2196
tp2197
g4
(g5
g6
(dp2198
S'CA_COMMENT'
p2199
NsS'CO_COMP_NAME'
p2200
g2195
sS'SYSTIME'
p2201
g4
(g11
g12
(lp2202
g14
(S'\x07\xde\x05\x01\x00\x00\x00\x00\x00\x00'
p2203
tp2204
Rp2205
aNatp2206
Rp2207
(dp2208
g21
S'[)'
p2209
sbsS'CA_CALIBRATION_SCALE'
p2210
g2196
sS'CA_DESC'
p2211
Nstp2212
Rp2213
s(Vnitrogen_monoxide
p2214
VNPL
p2215
tp2216
g4
(g5
g6
(dp2217
S'CA_COMMENT'
p2218
NsS'CO_COMP_NAME'
p2219
g2214
sS'SYSTIME'
p2220
g4
(g11
g12
(lp2221
g14
(S'\x07\xde\x05\x01\x00\x00\x00\x00\x00\x00'
p2222
tp2223
Rp2224
aNatp2225
Rp2226
(dp2227
g21
S'[)'
p2228
sbsS'CA_CALIBRATION_SCALE'
p2229
g2215
sS'CA_DESC'
p2230
Nstp2231
Rp2232
s(Vpropane
p2233
VApel-Riemer
p2234
tp2235
g4
(g5
g6
(dp2236
S'CA_COMMENT'
p2237
NsS'CO_COMP_NAME'
p2238
g2233
sS'SYSTIME'
p2239
g4
(g11
g12
(lp2240
g14
(S"\x07\xe7\x02\x0f\x0e \x0b\x0c'("
p2241
tp2242
Rp2243
aNatp2244
Rp2245
(dp2246
g21
S'[)'
p2247
sbsS'CA_CALIBRATION_SCALE'
p2248
g2234
sS'CA_DESC'
p2249
Nstp2250
Rp2251
s(Vmethyl-butanol
p2252
VNPL
p2253
tp2254
g4
(g5
g6
(dp2255
S'CA_COMMENT'
p2256
NsS'CO_COMP_NAME'
p2257
g2252
sS'SYSTIME'
p2258
g4
(g11
g12
(lp2259
g14
(S'\x07\xde\x05\x01\x00\x00\x00\x00\x00\x00'
p2260
tp2261
Rp2262
aNatp2263
Rp2264
(dp2265
g21
S'[)'
p2266
sbsS'CA_CALIBRATION_SCALE'
p2267
g2253
sS'CA_DESC'
p2268
Nstp2269
Rp2270
s(Vcyclo-hexane
p2271
VApel-Riemer
p2272
tp2273
g4
(g5
g6
(dp2274
S'CA_COMMENT'
p2275
NsS'CO_COMP_NAME'
p2276
g2271
sS'SYSTIME'
p2277
g4
(g11
g12
(lp2278
g14
(S'\x07\xe7\x02\x0f\x0e \x0c\x01\xfe\x93'
p2279
tp2280
Rp2281
aNatp2282
Rp2283
(dp2284
g21
S'[)'
p2285
sbsS'CA_CALIBRATION_SCALE'
p2286
g2272
sS'CA_DESC'
p2287
Nstp2288
Rp2289
s(Vethyne
p2290
VNPL
p2291
tp2292
g4
(g5
g6
(dp2293
S'CA_COMMENT'
p2294
NsS'CO_COMP_NAME'
p2295
g2290
sS'SYSTIME'
p2296
g4
(g11
g12
(lp2297
g14
(S'\x07\xde\x05\x01\x00\x00\x00\x00\x00\x00'
p2298
tp2299
Rp2300
aNatp2301
Rp2302
(dp2303
g21
S'[)'
p2304
sbsS'CA_CALIBRATION_SCALE'
p2305
g2291
sS'CA_DESC'
p2306
Nstp2307
Rp2308
s(Vpropanal
p2309
VNPL
p2310
tp2311
g4
(g5
g6
(dp2312
S'CA_COMMENT'
p2313
NsS'CO_COMP_NAME'
p2314
g2309
sS'SYSTIME'
p2315
g4
(g11
g12
(lp2316
g14
(S'\x07\xde\x05\x01\x00\x00\x00\x00\x00\x00'
p2317
tp2318
Rp2319
aNatp2320
Rp2321
(dp2322
g21
S'[)'
p2323
sbsS'CA_CALIBRATION_SCALE'
p2324
g2310
sS'CA_DESC'
p2325
Nstp2326
Rp2327
s(Vn-butanal
p2328
VApel-Riemer
p2329
tp2330
g4
(g5
g6
(dp2331
S'CA_COMMENT'
p2332
NsS'CO_COMP_NAME'
p2333
g2328
sS'SYSTIME'
p2334
g4
(g11
g12
(lp2335
g14
(S'\x07\xe7\x02\x0f\x0e \x0c\x00\xb0^'
p2336
tp2337
Rp2338
aNatp2339
Rp2340
(dp2341
g21
S'[)'
p2342
sbsS'CA_CALIBRATION_SCALE'
p2343
g2329
sS'CA_DESC'
p2344
Nstp2345
Rp2346
s(Vethyne
p2347
VApel Riemer
p2348
tp2349
g4
(g5
g6
(dp2350
S'CA_COMMENT'
p2351
NsS'CO_COMP_NAME'
p2352
g2347
sS'SYSTIME'
p2353
g4
(g11
g12
(lp2354
g14
(S'\x07\xe7\x02\x0f\x0e!6\x0e)\x92'
p2355
tp2356
Rp2357
aNatp2358
Rp2359
(dp2360
g21
S'[)'
p2361
sbsS'CA_CALIBRATION_SCALE'
p2362
g2348
sS'CA_DESC'
p2363
Nstp2364
Rp2365
s(Vmass_93.070_organic_compounds
p2366
VApel-Riemer
p2367
tp2368
g4
(g5
g6
(dp2369
S'CA_COMMENT'
p2370
NsS'CO_COMP_NAME'
p2371
g2366
sS'SYSTIME'
p2372
g4
(g11
g12
(lp2373
g14
(S'\x07\xe9\x06\x02\x0b\x0c4\x08\xb3U'
p2374
tp2375
Rp2376
aNatp2377
Rp2378
(dp2379
g21
S'[)'
p2380
sbsS'CA_CALIBRATION_SCALE'
p2381
g2367
sS'CA_DESC'
p2382
Nstp2383
Rp2384
s(V2-methylhexane
p2385
VNPL
p2386
tp2387
g4
(g5
g6
(dp2388
S'CA_COMMENT'
p2389
NsS'CO_COMP_NAME'
p2390
g2385
sS'SYSTIME'
p2391
g4
(g11
g12
(lp2392
g14
(S'\x07\xde\x05\x01\x00\x00\x00\x00\x00\x00'
p2393
tp2394
Rp2395
aNatp2396
Rp2397
(dp2398
g21
S'[)'
p2399
sbsS'CA_CALIBRATION_SCALE'
p2400
g2386
sS'CA_DESC'
p2401
Nstp2402
Rp2403
s(Vdimethylsulfide
p2404
VNPL
p2405
tp2406
g4
(g5
g6
(dp2407
S'CA_COMMENT'
p2408
NsS'CO_COMP_NAME'
p2409
g2404
sS'SYSTIME'
p2410
g4
(g11
g12
(lp2411
g14
(S'\x07\xe9\x03\x11\r\x1b\x07\x02G{'
p2412
tp2413
Rp2414
aNatp2415
Rp2416
(dp2417
g21
S'[)'
p2418
sbsS'CA_CALIBRATION_SCALE'
p2419
g2405
sS'CA_DESC'
p2420
Nstp2421
Rp2422
s(VHFC-4310mee
p2423
VSIO2014
p2424
tp2425
g4
(g5
g6
(dp2426
S'CA_COMMENT'
p2427
NsS'CO_COMP_NAME'
p2428
g2423
sS'SYSTIME'
p2429
g4
(g11
g12
(lp2430
g14
(S'\x07\xde\x05\x01\x00\x00\x00\x00\x00\x00'
p2431
tp2432
Rp2433
aNatp2434
Rp2435
(dp2436
g21
S'[)'
p2437
sbsS'CA_CALIBRATION_SCALE'
p2438
g2424
sS'CA_DESC'
p2439
Nstp2440
Rp2441
s(Vmethyl-cyclohexane
p2442
VNPL
p2443
tp2444
g4
(g5
g6
(dp2445
S'CA_COMMENT'
p2446
NsS'CO_COMP_NAME'
p2447
g2442
sS'SYSTIME'
p2448
g4
(g11
g12
(lp2449
g14
(S'\x07\xde\x05\x01\x00\x00\x00\x00\x00\x00'
p2450
tp2451
Rp2452
aNatp2453
Rp2454
(dp2455
g21
S'[)'
p2456
sbsS'CA_CALIBRATION_SCALE'
p2457
g2443
sS'CA_DESC'
p2458
Nstp2459
Rp2460
s(Vmethanol
p2461
VNPL
p2462
tp2463
g4
(g5
g6
(dp2464
S'CA_COMMENT'
p2465
NsS'CO_COMP_NAME'
p2466
g2461
sS'SYSTIME'
p2467
g4
(g11
g12
(lp2468
g14
(S'\x07\xde\x05\x01\x00\x00\x00\x00\x00\x00'
p2469
tp2470
Rp2471
aNatp2472
Rp2473
(dp2474
g21
S'[)'
p2475
sbsS'CA_CALIBRATION_SCALE'
p2476
g2462
sS'CA_DESC'
p2477
Nstp2478
Rp2479
s(Vmethanol
p2480
VApel Riemer
p2481
tp2482
g4
(g5
g6
(dp2483
S'CA_COMMENT'
p2484
NsS'CO_COMP_NAME'
p2485
g2480
sS'SYSTIME'
p2486
g4
(g11
g12
(lp2487
g14
(S'\x07\xe7\x02\x0f\x0e\x1b\x02\x0e5"'
p2488
tp2489
Rp2490
aNatp2491
Rp2492
(dp2493
g21
S'[)'
p2494
sbsS'CA_CALIBRATION_SCALE'
p2495
g2481
sS'CA_DESC'
p2496
Nstp2497
Rp2498
s(Vn-undecane
p2499
VApel Riemer
p2500
tp2501
g4
(g5
g6
(dp2502
S'CA_COMMENT'
p2503
NsS'CO_COMP_NAME'
p2504
g2499
sS'SYSTIME'
p2505
g4
(g11
g12
(lp2506
g14
(S'\x07\xe7\x02\x0f\x0e!7\x05\x9e\xc8'
p2507
tp2508
Rp2509
aNatp2510
Rp2511
(dp2512
g21
S'[)'
p2513
sbsS'CA_CALIBRATION_SCALE'
p2514
g2500
sS'CA_DESC'
p2515
Nstp2516
Rp2517
s(Vlimonene
p2518
VNPL
p2519
tp2520
g4
(g5
g6
(dp2521
S'CA_COMMENT'
p2522
NsS'CO_COMP_NAME'
p2523
g2518
sS'SYSTIME'
p2524
g4
(g11
g12
(lp2525
g14
(S'\x07\xde\x05\x01\x00\x00\x00\x00\x00\x00'
p2526
tp2527
Rp2528
aNatp2529
Rp2530
(dp2531
g21
S'[)'
p2532
sbsS'CA_CALIBRATION_SCALE'
p2533
g2519
sS'CA_DESC'
p2534
Nstp2535
Rp2536
s(Valpha-phellandrene
p2537
VApel Riemer
p2538
tp2539
g4
(g5
g6
(dp2540
S'CA_COMMENT'
p2541
NsS'CO_COMP_NAME'
p2542
g2537
sS'SYSTIME'
p2543
g4
(g11
g12
(lp2544
g14
(S'\x07\xe7\x02\x0f\x0e!7\x053['
p2545
tp2546
Rp2547
aNatp2548
Rp2549
(dp2550
g21
S'[)'
p2551
sbsS'CA_CALIBRATION_SCALE'
p2552
g2538
sS'CA_DESC'
p2553
Nstp2554
Rp2555
s(V2-4-dimethylpentane
p2556
VApel Riemer
p2557
tp2558
g4
(g5
g6
(dp2559
S'CA_COMMENT'
p2560
NsS'CO_COMP_NAME'
p2561
g2556
sS'SYSTIME'
p2562
g4
(g11
g12
(lp2563
g14
(S'\x07\xe7\x02\x0f\x0e!7\x02\x0bx'
p2564
tp2565
Rp2566
aNatp2567
Rp2568
(dp2569
g21
S'[)'
p2570
sbsS'CA_CALIBRATION_SCALE'
p2571
g2557
sS'CA_DESC'
p2572
Nstp2573
Rp2574
s(Vnitrogen_trifluoride
p2575
VSIO2012
p2576
tp2577
g4
(g5
g6
(dp2578
S'CA_COMMENT'
p2579
NsS'CO_COMP_NAME'
p2580
g2575
sS'SYSTIME'
p2581
g4
(g11
g12
(lp2582
g14
(S'\x07\xde\x05\x01\x00\x00\x00\x00\x00\x00'
p2583
tp2584
Rp2585
aNatp2586
Rp2587
(dp2588
g21
S'[)'
p2589
sbsS'CA_CALIBRATION_SCALE'
p2590
g2576
sS'CA_DESC'
p2591
Nstp2592
Rp2593
s(V3-methylbenzaldehyde
p2594
VNPL
p2595
tp2596
g4
(g5
g6
(dp2597
S'CA_COMMENT'
p2598
NsS'CO_COMP_NAME'
p2599
g2594
sS'SYSTIME'
p2600
g4
(g11
g12
(lp2601
g14
(S'\x07\xde\x05\x01\x00\x00\x00\x00\x00\x00'
p2602
tp2603
Rp2604
aNatp2605
Rp2606
(dp2607
g21
S'[)'
p2608
sbsS'CA_CALIBRATION_SCALE'
p2609
g2595
sS'CA_DESC'
p2610
Nstp2611
Rp2612
s(VPFC-218
p2613
VSIO2007
p2614
tp2615
g4
(g5
g6
(dp2616
S'CA_COMMENT'
p2617
NsS'CO_COMP_NAME'
p2618
g2613
sS'SYSTIME'
p2619
g4
(g11
g12
(lp2620
g14
(S'\x07\xde\x05\x01\x00\x00\x00\x00\x00\x00'
p2621
tp2622
Rp2623
aNatp2624
Rp2625
(dp2626
g21
S'[)'
p2627
sbsS'CA_CALIBRATION_SCALE'
p2628
g2614
sS'CA_DESC'
p2629
Nstp2630
Rp2631
s(Vn-decane
p2632
VNPL
p2633
tp2634
g4
(g5
g6
(dp2635
S'CA_COMMENT'
p2636
NsS'CO_COMP_NAME'
p2637
g2632
sS'SYSTIME'
p2638
g4
(g11
g12
(lp2639
g14
(S'\x07\xde\x05\x01\x00\x00\x00\x00\x00\x00'
p2640
tp2641
Rp2642
aNatp2643
Rp2644
(dp2645
g21
S'[)'
p2646
sbsS'CA_CALIBRATION_SCALE'
p2647
g2633
sS'CA_DESC'
p2648
Nstp2649
Rp2650
s(Vn-nonane
p2651
VNPL
p2652
tp2653
g4
(g5
g6
(dp2654
S'CA_COMMENT'
p2655
NsS'CO_COMP_NAME'
p2656
g2651
sS'SYSTIME'
p2657
g4
(g11
g12
(lp2658
g14
(S'\x07\xde\x05\x01\x00\x00\x00\x00\x00\x00'
p2659
tp2660
Rp2661
aNatp2662
Rp2663
(dp2664
g21
S'[)'
p2665
sbsS'CA_CALIBRATION_SCALE'
p2666
g2652
sS'CA_DESC'
p2667
Nstp2668
Rp2669
s(Vtrichloromethane
p2670
VSIO2005
p2671
tp2672
g4
(g5
g6
(dp2673
S'CA_COMMENT'
p2674
NsS'CO_COMP_NAME'
p2675
g2670
sS'SYSTIME'
p2676
g4
(g11
g12
(lp2677
g14
(S'\x07\xde\x05\x01\x00\x00\x00\x00\x00\x00'
p2678
tp2679
Rp2680
aNatp2681
Rp2682
(dp2683
g21
S'[)'
p2684
sbsS'CA_CALIBRATION_SCALE'
p2685
g2671
sS'CA_DESC'
p2686
Nstp2687
Rp2688
s(V2-methylbutane
p2689
VApel Riemer
p2690
tp2691
g4
(g5
g6
(dp2692
S'CA_COMMENT'
p2693
NsS'CO_COMP_NAME'
p2694
g2689
sS'SYSTIME'
p2695
g4
(g11
g12
(lp2696
g14
(S'\x07\xe7\x02\x0f\x0e!7\x00\x03?'
p2697
tp2698
Rp2699
aNatp2700
Rp2701
(dp2702
g21
S'[)'
p2703
sbsS'CA_CALIBRATION_SCALE'
p2704
g2690
sS'CA_DESC'
p2705
Nstp2706
Rp2707
s(Vditerpenes
p2708
VApel-Riemer
p2709
tp2710
g4
(g5
g6
(dp2711
S'CA_COMMENT'
p2712
NsS'CO_COMP_NAME'
p2713
g2708
sS'SYSTIME'
p2714
g4
(g11
g12
(lp2715
g14
(S'\x07\xe9\x06\x02\x0b\x0c4\t\x12\xd3'
p2716
tp2717
Rp2718
aNatp2719
Rp2720
(dp2721
g21
S'[)'
p2722
sbsS'CA_CALIBRATION_SCALE'
p2723
g2709
sS'CA_DESC'
p2724
Nstp2725
Rp2726
s(Vsesquiterpenes
p2727
VApel-Riemer
p2728
tp2729
g4
(g5
g6
(dp2730
S'CA_COMMENT'
p2731
NsS'CO_COMP_NAME'
p2732
g2727
sS'SYSTIME'
p2733
g4
(g11
g12
(lp2734
g14
(S'\x07\xe9\x06\x02\x0b\x0c4\t\x08('
p2735
tp2736
Rp2737
aNatp2738
Rp2739
(dp2740
g21
S'[)'
p2741
sbsS'CA_CALIBRATION_SCALE'
p2742
g2728
sS'CA_DESC'
p2743
Nstp2744
Rp2745
s(Vbutanone
p2746
VApel Riemer
p2747
tp2748
g4
(g5
g6
(dp2749
S'CA_COMMENT'
p2750
NsS'CO_COMP_NAME'
p2751
g2746
sS'SYSTIME'
p2752
g4
(g11
g12
(lp2753
g14
(S'\x07\xe7\x02\x0f\x0e!7\x01\xaaP'
p2754
tp2755
Rp2756
aNatp2757
Rp2758
(dp2759
g21
S'[)'
p2760
sbsS'CA_CALIBRATION_SCALE'
p2761
g2747
sS'CA_DESC'
p2762
Nstp2763
Rp2764
s(VHFC-152a
p2765
VSIO2005
p2766
tp2767
g4
(g5
g6
(dp2768
S'CA_COMMENT'
p2769
NsS'CO_COMP_NAME'
p2770
g2765
sS'SYSTIME'
p2771
g4
(g11
g12
(lp2772
g14
(S'\x07\xde\x05\x01\x00\x00\x00\x00\x00\x00'
p2773
tp2774
Rp2775
aNatp2776
Rp2777
(dp2778
g21
S'[)'
p2779
sbsS'CA_CALIBRATION_SCALE'
p2780
g2766
sS'CA_DESC'
p2781
Nstp2782
Rp2783
s(Vbutenes
p2784
VNPL
p2785
tp2786
g4
(g5
g6
(dp2787
S'CA_COMMENT'
p2788
NsS'CO_COMP_NAME'
p2789
g2784
sS'SYSTIME'
p2790
g4
(g11
g12
(lp2791
g14
(S'\x07\xde\x05\x01\x00\x00\x00\x00\x00\x00'
p2792
tp2793
Rp2794
aNatp2795
Rp2796
(dp2797
g21
S'[)'
p2798
sbsS'CA_CALIBRATION_SCALE'
p2799
g2785
sS'CA_DESC'
p2800
Nstp2801
Rp2802
s(Vchlorobenzene
p2803
VApel-Riemer
p2804
tp2805
g4
(g5
g6
(dp2806
S'CA_COMMENT'
p2807
NsS'CO_COMP_NAME'
p2808
g2803
sS'SYSTIME'
p2809
g4
(g11
g12
(lp2810
g14
(S'\x07\xe9\t\x0b\x0b\x17\x04\x02C\xe5'
p2811
tp2812
Rp2813
aNatp2814
Rp2815
(dp2816
g21
S'[)'
p2817
sbsS'CA_CALIBRATION_SCALE'
p2818
g2804
sS'CA_DESC'
p2819
Nstp2820
Rp2821
s(Vbeta-pinene
p2822
VApel-Riemer
p2823
tp2824
g4
(g5
g6
(dp2825
S'CA_COMMENT'
p2826
NsS'CO_COMP_NAME'
p2827
g2822
sS'SYSTIME'
p2828
g4
(g11
g12
(lp2829
g14
(S'\x07\xe7\x02\x0f\x0e \x0c\x06\xf1Y'
p2830
tp2831
Rp2832
aNatp2833
Rp2834
(dp2835
g21
S'[)'
p2836
sbsS'CA_CALIBRATION_SCALE'
p2837
g2823
sS'CA_DESC'
p2838
Nstp2839
Rp2840
s(Vethyne
p2841
VApel-Riemer
p2842
tp2843
g4
(g5
g6
(dp2844
S'CA_COMMENT'
p2845
NsS'CO_COMP_NAME'
p2846
g2841
sS'SYSTIME'
p2847
g4
(g11
g12
(lp2848
g14
(S'\x07\xe7\x02\x0f\x0e \x0b\x0bq\x9f'
p2849
tp2850
Rp2851
aNatp2852
Rp2853
(dp2854
g21
S'[)'
p2855
sbsS'CA_CALIBRATION_SCALE'
p2856
g2842
sS'CA_DESC'
p2857
Nstp2858
Rp2859
s(Vstyrene
p2860
VApel-Riemer
p2861
tp2862
g4
(g5
g6
(dp2863
S'CA_COMMENT'
p2864
NsS'CO_COMP_NAME'
p2865
g2860
sS'SYSTIME'
p2866
g4
(g11
g12
(lp2867
g14
(S'\x07\xe7\x02\x0f\x0e \x0c\x05\x1e\x85'
p2868
tp2869
Rp2870
aNatp2871
Rp2872
(dp2873
g21
S'[)'
p2874
sbsS'CA_CALIBRATION_SCALE'
p2875
g2861
sS'CA_DESC'
p2876
Nstp2877
Rp2878
s(V1-3-5-trimethylbenzene
p2879
VApel-Riemer
p2880
tp2881
g4
(g5
g6
(dp2882
S'CA_COMMENT'
p2883
NsS'CO_COMP_NAME'
p2884
g2879
sS'SYSTIME'
p2885
g4
(g11
g12
(lp2886
g14
(S'\x07\xe7\x02\x0f\x0e \x0c\x06y\xee'
p2887
tp2888
Rp2889
aNatp2890
Rp2891
(dp2892
g21
S'[)'
p2893
sbsS'CA_CALIBRATION_SCALE'
p2894
g2880
sS'CA_DESC'
p2895
Nstp2896
Rp2897
s(Vbenzene
p2898
VUB-p
p2899
tp2900
g4
(g5
g6
(dp2901
S'CA_COMMENT'
p2902
NsS'CO_COMP_NAME'
p2903
g2898
sS'SYSTIME'
p2904
g4
(g11
g12
(lp2905
g14
(S'\x07\xde\x05\x01\x00\x00\x00\x00\x00\x00'
p2906
tp2907
Rp2908
aNatp2909
Rp2910
(dp2911
g21
S'[)'
p2912
sbsS'CA_CALIBRATION_SCALE'
p2913
g2899
sS'CA_DESC'
p2914
Nstp2915
Rp2916
s(V2-methylpropenal
p2917
VApel Riemer
p2918
tp2919
g4
(g5
g6
(dp2920
S'CA_COMMENT'
p2921
NsS'CO_COMP_NAME'
p2922
g2917
sS'SYSTIME'
p2923
g4
(g11
g12
(lp2924
g14
(S'\x07\xe7\x02\x0f\x0e!7\x01\x07\xed'
p2925
tp2926
Rp2927
aNatp2928
Rp2929
(dp2930
g21
S'[)'
p2931
sbsS'CA_CALIBRATION_SCALE'
p2932
g2918
sS'CA_DESC'
p2933
Nstp2934
Rp2935
s(V3-methylheptane
p2936
VApel Riemer
p2937
tp2938
g4
(g5
g6
(dp2939
S'CA_COMMENT'
p2940
NsS'CO_COMP_NAME'
p2941
g2936
sS'SYSTIME'
p2942
g4
(g11
g12
(lp2943
g14
(S'\x07\xe7\x02\x0f\x0e!7\x03P\xa9'
p2944
tp2945
Rp2946
aNatp2947
Rp2948
(dp2949
g21
S'[)'
p2950
sbsS'CA_CALIBRATION_SCALE'
p2951
g2937
sS'CA_DESC'
p2952
Nstp2953
Rp2954
s(Vmass_121_organic_compounds
p2955
VNPL
p2956
tp2957
g4
(g5
g6
(dp2958
S'CA_COMMENT'
p2959
NsS'CO_COMP_NAME'
p2960
g2955
sS'SYSTIME'
p2961
g4
(g11
g12
(lp2962
g14
(S'\x07\xe9\x01\x1f\x07\x05\x1a\x0ci\x07'
p2963
tp2964
Rp2965
aNatp2966
Rp2967
(dp2968
g21
S'[)'
p2969
sbsS'CA_CALIBRATION_SCALE'
p2970
g2956
sS'CA_DESC'
p2971
Nstp2972
Rp2973
s(Vcarbon_monoxide
p2974
VWMO CO X2014
p2975
tp2976
g4
(g5
g6
(dp2977
S'CA_COMMENT'
p2978
NsS'CO_COMP_NAME'
p2979
g2974
sS'SYSTIME'
p2980
g4
(g11
g12
(lp2981
g14
(S'\x07\xde\x05\x01\x00\x00\x00\x00\x00\x00'
p2982
tp2983
Rp2984
aNatp2985
Rp2986
(dp2987
g21
S'[)'
p2988
sbsS'CA_CALIBRATION_SCALE'
p2989
g2975
sS'CA_DESC'
p2990
Nstp2991
Rp2992
s(VH-2402
p2993
VSIO2014
p2994
tp2995
g4
(g5
g6
(dp2996
S'CA_COMMENT'
p2997
NsS'CO_COMP_NAME'
p2998
g2993
sS'SYSTIME'
p2999
g4
(g11
g12
(lp3000
g14
(S'\x07\xde\x05\x01\x00\x00\x00\x00\x00\x00'
p3001
tp3002
Rp3003
aNatp3004
Rp3005
(dp3006
g21
S'[)'
p3007
sbsS'CA_CALIBRATION_SCALE'
p3008
g2994
sS'CA_DESC'
p3009
Nstp3010
Rp3011
s(V2-3-dimethylpentane
p3012
VApel-Riemer
p3013
tp3014
g4
(g5
g6
(dp3015
S'CA_COMMENT'
p3016
NsS'CO_COMP_NAME'
p3017
g3012
sS'SYSTIME'
p3018
g4
(g11
g12
(lp3019
g14
(S'\x07\xe7\x02\x0f\x0e \x0c\x02k\n'
p3020
tp3021
Rp3022
aNatp3023
Rp3024
(dp3025
g21
S'[)'
p3026
sbsS'CA_CALIBRATION_SCALE'
p3027
g3013
sS'CA_DESC'
p3028
Nstp3029
Rp3030
s(VHFC-236fa
p3031
VSIO2014
p3032
tp3033
g4
(g5
g6
(dp3034
S'CA_COMMENT'
p3035
NsS'CO_COMP_NAME'
p3036
g3031
sS'SYSTIME'
p3037
g4
(g11
g12
(lp3038
g14
(S'\x07\xde\x05\x01\x00\x00\x00\x00\x00\x00'
p3039
tp3040
Rp3041
aNatp3042
Rp3043
(dp3044
g21
S'[)'
p3045
sbsS'CA_CALIBRATION_SCALE'
p3046
g3032
sS'CA_DESC'
p3047
Nstp3048
Rp3049
s(Vnitrogen_dioxide
p3050
VNPL+GPT
p3051
tp3052
g4
(g5
g6
(dp3053
S'CA_COMMENT'
p3054
NsS'CO_COMP_NAME'
p3055
g3050
sS'SYSTIME'
p3056
g4
(g11
g12
(lp3057
g14
(S'\x07\xde\x05\x01\x00\x00\x00\x00\x00\x00'
p3058
tp3059
Rp3060
aNatp3061
Rp3062
(dp3063
g21
S'[)'
p3064
sbsS'CA_CALIBRATION_SCALE'
p3065
g3051
sS'CA_DESC'
p3066
Nstp3067
Rp3068
s(Vpropane
p3069
VApel Riemer
p3070
tp3071
g4
(g5
g6
(dp3072
S'CA_COMMENT'
p3073
NsS'CO_COMP_NAME'
p3074
g3069
sS'SYSTIME'
p3075
g4
(g11
g12
(lp3076
g14
(S'\x07\xe7\x02\x0f\x0e!6\x0e\x92A'
p3077
tp3078
Rp3079
aNatp3080
Rp3081
(dp3082
g21
S'[)'
p3083
sbsS'CA_CALIBRATION_SCALE'
p3084
g3070
sS'CA_DESC'
p3085
Nstp3086
Rp3087
s(Vp-cymene
p3088
VNPL
p3089
tp3090
g4
(g5
g6
(dp3091
S'CA_COMMENT'
p3092
NsS'CO_COMP_NAME'
p3093
g3088
sS'SYSTIME'
p3094
g4
(g11
g12
(lp3095
g14
(S'\x07\xde\x05\x01\x00\x00\x00\x00\x00\x00'
p3096
tp3097
Rp3098
aNatp3099
Rp3100
(dp3101
g21
S'[)'
p3102
sbsS'CA_CALIBRATION_SCALE'
p3103
g3089
sS'CA_DESC'
p3104
Nstp3105
Rp3106
s(Visoprene
p3107
VApel Riemer
p3108
tp3109
g4
(g5
g6
(dp3110
S'CA_COMMENT'
p3111
NsS'CO_COMP_NAME'
p3112
g3107
sS'SYSTIME'
p3113
g4
(g11
g12
(lp3114
g14
(S'\x07\xe7\x02\x0f\x0e!7\x00\x87~'
p3115
tp3116
Rp3117
aNatp3118
Rp3119
(dp3120
g21
S'[)'
p3121
sbsS'CA_CALIBRATION_SCALE'
p3122
g3108
sS'CA_DESC'
p3123
Nstp3124
Rp3125
s(Vbenzene
p3126
VApel Riemer
p3127
tp3128
g4
(g5
g6
(dp3129
S'CA_COMMENT'
p3130
NsS'CO_COMP_NAME'
p3131
g3126
sS'SYSTIME'
p3132
g4
(g11
g12
(lp3133
g14
(S'\x07\xe7\x02\x0f\x0e!7\x02)\x9b'
p3134
tp3135
Rp3136
aNatp3137
Rp3138
(dp3139
g21
S'[)'
p3140
sbsS'CA_CALIBRATION_SCALE'
p3141
g3127
sS'CA_DESC'
p3142
Nstp3143
Rp3144
s(V1-2-3-trimethylbenzene
p3145
VApel Riemer
p3146
tp3147
g4
(g5
g6
(dp3148
S'CA_COMMENT'
p3149
NsS'CO_COMP_NAME'
p3150
g3145
sS'SYSTIME'
p3151
g4
(g11
g12
(lp3152
g14
(S'\x07\xe7\x02\x0f\x0e!7\x05U\x10'
p3153
tp3154
Rp3155
aNatp3156
Rp3157
(dp3158
g21
S'[)'
p3159
sbsS'CA_CALIBRATION_SCALE'
p3160
g3146
sS'CA_DESC'
p3161
Nstp3162
Rp3163
s(V2-oxopropanal
p3164
VNPL
p3165
tp3166
g4
(g5
g6
(dp3167
S'CA_COMMENT'
p3168
NsS'CO_COMP_NAME'
p3169
g3164
sS'SYSTIME'
p3170
g4
(g11
g12
(lp3171
g14
(S'\x07\xde\x05\x01\x00\x00\x00\x00\x00\x00'
p3172
tp3173
Rp3174
aNatp3175
Rp3176
(dp3177
g21
S'[)'
p3178
sbsS'CA_CALIBRATION_SCALE'
p3179
g3165
sS'CA_DESC'
p3180
Nstp3181
Rp3182
s(Vdimethylsulfide
p3183
VApel-Riemer
p3184
tp3185
g4
(g5
g6
(dp3186
S'CA_COMMENT'
p3187
NsS'CO_COMP_NAME'
p3188
g3183
sS'SYSTIME'
p3189
g4
(g11
g12
(lp3190
g14
(S'\x07\xe9\x06\x02\x0b\x0c4\x08\xccu'
p3191
tp3192
Rp3193
aNatp3194
Rp3195
(dp3196
g21
S'[)'
p3197
sbsS'CA_CALIBRATION_SCALE'
p3198
g3184
sS'CA_DESC'
p3199
Nstp3200
Rp3201
s(V3-buten-2-one
p3202
VNPL
p3203
tp3204
g4
(g5
g6
(dp3205
S'CA_COMMENT'
p3206
NsS'CO_COMP_NAME'
p3207
g3202
sS'SYSTIME'
p3208
g4
(g11
g12
(lp3209
g14
(S'\x07\xde\x05\x01\x00\x00\x00\x00\x00\x00'
p3210
tp3211
Rp3212
aNatp3213
Rp3214
(dp3215
g21
S'[)'
p3216
sbsS'CA_CALIBRATION_SCALE'
p3217
g3203
sS'CA_DESC'
p3218
Nstp3219
Rp3220
s(Vcis-ocimene
p3221
VNPL
p3222
tp3223
g4
(g5
g6
(dp3224
S'CA_COMMENT'
p3225
NsS'CO_COMP_NAME'
p3226
g3221
sS'SYSTIME'
p3227
g4
(g11
g12
(lp3228
g14
(S'\x07\xde\x05\x01\x00\x00\x00\x00\x00\x00'
p3229
tp3230
Rp3231
aNatp3232
Rp3233
(dp3234
g21
S'[)'
p3235
sbsS'CA_CALIBRATION_SCALE'
p3236
g3222
sS'CA_DESC'
p3237
Nstp3238
Rp3239
s(V2-methylhexane
p3240
VApel-Riemer
p3241
tp3242
g4
(g5
g6
(dp3243
S'CA_COMMENT'
p3244
NsS'CO_COMP_NAME'
p3245
g3240
sS'SYSTIME'
p3246
g4
(g11
g12
(lp3247
g14
(S'\x07\xe7\x02\x0f\x0e \x0c\x026\xe3'
p3248
tp3249
Rp3250
aNatp3251
Rp3252
(dp3253
g21
S'[)'
p3254
sbsS'CA_CALIBRATION_SCALE'
p3255
g3241
sS'CA_DESC'
p3256
Nstp3257
Rp3258
s(V1-3-butadiene
p3259
VNPL
p3260
tp3261
g4
(g5
g6
(dp3262
S'CA_COMMENT'
p3263
NsS'CO_COMP_NAME'
p3264
g3259
sS'SYSTIME'
p3265
g4
(g11
g12
(lp3266
g14
(S'\x07\xde\x05\x01\x00\x00\x00\x00\x00\x00'
p3267
tp3268
Rp3269
aNatp3270
Rp3271
(dp3272
g21
S'[)'
p3273
sbsS'CA_CALIBRATION_SCALE'
p3274
g3260
sS'CA_DESC'
p3275
Nstp3276
Rp3277
s(Vdinitrogen_monoxide
p3278
VWMO N2O X2006A
p3279
tp3280
g4
(g5
g6
(dp3281
S'CA_COMMENT'
p3282
NsS'CO_COMP_NAME'
p3283
g3278
sS'SYSTIME'
p3284
g4
(g11
g12
(lp3285
g14
(S'\x07\xde\x05\x01\x00\x00\x00\x00\x00\x00'
p3286
tp3287
Rp3288
aNatp3289
Rp3290
(dp3291
g21
S'[)'
p3292
sbsS'CA_CALIBRATION_SCALE'
p3293
g3279
sS'CA_DESC'
p3294
Nstp3295
Rp3296
s(Vbenzaldehyde
p3297
VApel-Riemer
p3298
tp3299
g4
(g5
g6
(dp3300
S'CA_COMMENT'
p3301
NsS'CO_COMP_NAME'
p3302
g3297
sS'SYSTIME'
p3303
g4
(g11
g12
(lp3304
g14
(S'\x07\xe7\x02\x0f\x0e \x0c\x05\xd3V'
p3305
tp3306
Rp3307
aNatp3308
Rp3309
(dp3310
g21
S'[)'
p3311
sbsS'CA_CALIBRATION_SCALE'
p3312
g3298
sS'CA_DESC'
p3313
Nstp3314
Rp3315
s(V3-methylhexane
p3316
VApel-Riemer
p3317
tp3318
g4
(g5
g6
(dp3319
S'CA_COMMENT'
p3320
NsS'CO_COMP_NAME'
p3321
g3316
sS'SYSTIME'
p3322
g4
(g11
g12
(lp3323
g14
(S'\x07\xe7\x02\x0f\x0e \x0c\x02\xa08'
p3324
tp3325
Rp3326
aNatp3327
Rp3328
(dp3329
g21
S'[)'
p3330
sbsS'CA_CALIBRATION_SCALE'
p3331
g3317
sS'CA_DESC'
p3332
Nstp3333
Rp3334
s(V2-methylpropane
p3335
VApel-Riemer
p3336
tp3337
g4
(g5
g6
(dp3338
S'CA_COMMENT'
p3339
NsS'CO_COMP_NAME'
p3340
g3335
sS'SYSTIME'
p3341
g4
(g11
g12
(lp3342
g14
(S'\x07\xe7\x02\x0f\x0e \x0b\x0c\x88\x96'
p3343
tp3344
Rp3345
aNatp3346
Rp3347
(dp3348
g21
S'[)'
p3349
sbsS'CA_CALIBRATION_SCALE'
p3350
g3336
sS'CA_DESC'
p3351
Nstp3352
Rp3353
s(Vdibromomethane
p3354
VNOAA-Jul10-p
p3355
tp3356
g4
(g5
g6
(dp3357
S'CA_COMMENT'
p3358
NsS'CO_COMP_NAME'
p3359
g3354
sS'SYSTIME'
p3360
g4
(g11
g12
(lp3361
g14
(S'\x07\xde\x05\x01\x00\x00\x00\x00\x00\x00'
p3362
tp3363
Rp3364
aNatp3365
Rp3366
(dp3367
g21
S'[)'
p3368
sbsS'CA_CALIBRATION_SCALE'
p3369
g3355
sS'CA_DESC'
p3370
Nstp3371
Rp3372
s(V1-hexene
p3373
VNPL
p3374
tp3375
g4
(g5
g6
(dp3376
S'CA_COMMENT'
p3377
NsS'CO_COMP_NAME'
p3378
g3373
sS'SYSTIME'
p3379
g4
(g11
g12
(lp3380
g14
(S'\x07\xde\x05\x01\x00\x00\x00\x00\x00\x00'
p3381
tp3382
Rp3383
aNatp3384
Rp3385
(dp3386
g21
S'[)'
p3387
sbsS'CA_CALIBRATION_SCALE'
p3388
g3374
sS'CA_DESC'
p3389
Nstp3390
Rp3391
s(V3-methylpentane
p3392
VNPL
p3393
tp3394
g4
(g5
g6
(dp3395
S'CA_COMMENT'
p3396
NsS'CO_COMP_NAME'
p3397
g3392
sS'SYSTIME'
p3398
g4
(g11
g12
(lp3399
g14
(S'\x07\xde\x05\x01\x00\x00\x00\x00\x00\x00'
p3400
tp3401
Rp3402
aNatp3403
Rp3404
(dp3405
g21
S'[)'
p3406
sbsS'CA_CALIBRATION_SCALE'
p3407
g3393
sS'CA_DESC'
p3408
Nstp3409
Rp3410
s(Vacetonitrile
p3411
VNPL
p3412
tp3413
g4
(g5
g6
(dp3414
S'CA_COMMENT'
p3415
NsS'CO_COMP_NAME'
p3416
g3411
sS'SYSTIME'
p3417
g4
(g11
g12
(lp3418
g14
(S'\x07\xde\x05\x01\x00\x00\x00\x00\x00\x00'
p3419
tp3420
Rp3421
aNatp3422
Rp3423
(dp3424
g21
S'[)'
p3425
sbsS'CA_CALIBRATION_SCALE'
p3426
g3412
sS'CA_DESC'
p3427
Nstp3428
Rp3429
s(Vn-propanol
p3430
VApel-Riemer
p3431
tp3432
g4
(g5
g6
(dp3433
S'CA_COMMENT'
p3434
NsS'CO_COMP_NAME'
p3435
g3430
sS'SYSTIME'
p3436
g4
(g11
g12
(lp3437
g14
(S'\x07\xe7\x02\x0f\x0e \x0b\x0e\xdeQ'
p3438
tp3439
Rp3440
aNatp3441
Rp3442
(dp3443
g21
S'[)'
p3444
sbsS'CA_CALIBRATION_SCALE'
p3445
g3431
sS'CA_DESC'
p3446
Nstp3447
Rp3448
s(V2-2-3-trimethylbutane
p3449
VNPL
p3450
tp3451
g4
(g5
g6
(dp3452
S'CA_COMMENT'
p3453
NsS'CO_COMP_NAME'
p3454
g3449
sS'SYSTIME'
p3455
g4
(g11
g12
(lp3456
g14
(S'\x07\xde\x05\x01\x00\x00\x00\x00\x00\x00'
p3457
tp3458
Rp3459
aNatp3460
Rp3461
(dp3462
g21
S'[)'
p3463
sbsS'CA_CALIBRATION_SCALE'
p3464
g3450
sS'CA_DESC'
p3465
Nstp3466
Rp3467
s(Vtoluene
p3468
VApel-Riemer
p3469
tp3470
g4
(g5
g6
(dp3471
S'CA_COMMENT'
p3472
NsS'CO_COMP_NAME'
p3473
g3468
sS'SYSTIME'
p3474
g4
(g11
g12
(lp3475
g14
(S'\x07\xe7\x02\x0f\x0e \x0c\x03\xb5\x19'
p3476
tp3477
Rp3478
aNatp3479
Rp3480
(dp3481
g21
S'[)'
p3482
sbsS'CA_CALIBRATION_SCALE'
p3483
g3469
sS'CA_DESC'
p3484
Nstp3485
Rp3486
s(Vsulfur_hexafluoride
p3487
VSIO2005
p3488
tp3489
g4
(g5
g6
(dp3490
S'CA_COMMENT'
p3491
NsS'CO_COMP_NAME'
p3492
g3487
sS'SYSTIME'
p3493
g4
(g11
g12
(lp3494
g14
(S'\x07\xde\x05\x01\x00\x00\x00\x00\x00\x00'
p3495
tp3496
Rp3497
aNatp3498
Rp3499
(dp3500
g21
S'[)'
p3501
sbsS'CA_CALIBRATION_SCALE'
p3502
g3488
sS'CA_DESC'
p3503
Nstp3504
Rp3505
s(V3-carene
p3506
VNPL
p3507
tp3508
g4
(g5
g6
(dp3509
S'CA_COMMENT'
p3510
NsS'CO_COMP_NAME'
p3511
g3506
sS'SYSTIME'
p3512
g4
(g11
g12
(lp3513
g14
(S'\x07\xde\x05\x01\x00\x00\x00\x00\x00\x00'
p3514
tp3515
Rp3516
aNatp3517
Rp3518
(dp3519
g21
S'[)'
p3520
sbsS'CA_CALIBRATION_SCALE'
p3521
g3507
sS'CA_DESC'
p3522
Nstp3523
Rp3524
s(Vpropane
p3525
VEmpa-2015-p
p3526
tp3527
g4
(g5
g6
(dp3528
S'CA_COMMENT'
p3529
NsS'CO_COMP_NAME'
p3530
g3525
sS'SYSTIME'
p3531
g4
(g11
g12
(lp3532
g14
(S'\x07\xde\x05\x01\x00\x00\x00\x00\x00\x00'
p3533
tp3534
Rp3535
aNatp3536
Rp3537
(dp3538
g21
S'[)'
p3539
sbsS'CA_CALIBRATION_SCALE'
p3540
g3526
sS'CA_DESC'
p3541
Nstp3542
Rp3543
s(Vn-decane
p3544
VApel Riemer
p3545
tp3546
g4
(g5
g6
(dp3547
S'CA_COMMENT'
p3548
NsS'CO_COMP_NAME'
p3549
g3544
sS'SYSTIME'
p3550
g4
(g11
g12
(lp3551
g14
(S'\x07\xe7\x02\x0f\x0e!7\x05\x13\x8f'
p3552
tp3553
Rp3554
aNatp3555
Rp3556
(dp3557
g21
S'[)'
p3558
sbsS'CA_CALIBRATION_SCALE'
p3559
g3545
sS'CA_DESC'
p3560
Nstp3561
Rp3562
s(Vethylbenzene
p3563
VApel-Riemer
p3564
tp3565
g4
(g5
g6
(dp3566
S'CA_COMMENT'
p3567
NsS'CO_COMP_NAME'
p3568
g3563
sS'SYSTIME'
p3569
g4
(g11
g12
(lp3570
g14
(S'\x07\xe7\x02\x0f\x0e \x0c\x04\xa9\xca'
p3571
tp3572
Rp3573
aNatp3574
Rp3575
(dp3576
g21
S'[)'
p3577
sbsS'CA_CALIBRATION_SCALE'
p3578
g3564
sS'CA_DESC'
p3579
Nstp3580
Rp3581
s(Vsulfuryl_fluoride
p3582
VSIO2007
p3583
tp3584
g4
(g5
g6
(dp3585
S'CA_COMMENT'
p3586
NsS'CO_COMP_NAME'
p3587
g3582
sS'SYSTIME'
p3588
g4
(g11
g12
(lp3589
g14
(S'\x07\xde\x05\x01\x00\x00\x00\x00\x00\x00'
p3590
tp3591
Rp3592
aNatp3593
Rp3594
(dp3595
g21
S'[)'
p3596
sbsS'CA_CALIBRATION_SCALE'
p3597
g3583
sS'CA_DESC'
p3598
Nstp3599
Rp3600
s(V1-butene
p3601
VNPL
p3602
tp3603
g4
(g5
g6
(dp3604
S'CA_COMMENT'
p3605
NsS'CO_COMP_NAME'
p3606
g3601
sS'SYSTIME'
p3607
g4
(g11
g12
(lp3608
g14
(S'\x07\xde\x05\x01\x00\x00\x00\x00\x00\x00'
p3609
tp3610
Rp3611
aNatp3612
Rp3613
(dp3614
g21
S'[)'
p3615
sbsS'CA_CALIBRATION_SCALE'
p3616
g3602
sS'CA_DESC'
p3617
Nstp3618
Rp3619
s(Vo-xylene
p3620
VApel Riemer
p3621
tp3622
g4
(g5
g6
(dp3623
S'CA_COMMENT'
p3624
NsS'CO_COMP_NAME'
p3625
g3620
sS'SYSTIME'
p3626
g4
(g11
g12
(lp3627
g14
(S'\x07\xe7\x02\x0f\x0e!7\x03\xfe\x88'
p3628
tp3629
Rp3630
aNatp3631
Rp3632
(dp3633
g21
S'[)'
p3634
sbsS'CA_CALIBRATION_SCALE'
p3635
g3621
sS'CA_DESC'
p3636
Nstp3637
Rp3638
s(Vdichloromethane
p3639
VNOAA-2003
p3640
tp3641
g4
(g5
g6
(dp3642
S'CA_COMMENT'
p3643
NsS'CO_COMP_NAME'
p3644
g3639
sS'SYSTIME'
p3645
g4
(g11
g12
(lp3646
g14
(S'\x07\xde\x05\x01\x00\x00\x00\x00\x00\x00'
p3647
tp3648
Rp3649
aNatp3650
Rp3651
(dp3652
g21
S'[)'
p3653
sbsS'CA_CALIBRATION_SCALE'
p3654
g3640
sS'CA_DESC'
p3655
Nstp3656
Rp3657
s(Vmass_71_organic_compounds
p3658
VNPL
p3659
tp3660
g4
(g5
g6
(dp3661
S'CA_COMMENT'
p3662
NsS'CO_COMP_NAME'
p3663
g3658
sS'SYSTIME'
p3664
g4
(g11
g12
(lp3665
g14
(S'\x07\xe7\x05\t\x070)\x05+\x19'
p3666
tp3667
Rp3668
aNatp3669
Rp3670
(dp3671
g21
S'[)'
p3672
sbsS'CA_CALIBRATION_SCALE'
p3673
g3659
sS'CA_DESC'
p3674
Nstp3675
Rp3676
s(V2-methylpropane
p3677
VNPL
p3678
tp3679
g4
(g5
g6
(dp3680
S'CA_COMMENT'
p3681
NsS'CO_COMP_NAME'
p3682
g3677
sS'SYSTIME'
p3683
g4
(g11
g12
(lp3684
g14
(S'\x07\xde\x05\x01\x00\x00\x00\x00\x00\x00'
p3685
tp3686
Rp3687
aNatp3688
Rp3689
(dp3690
g21
S'[)'
p3691
sbsS'CA_CALIBRATION_SCALE'
p3692
g3678
sS'CA_DESC'
p3693
Nstp3694
Rp3695
s(Vmass_73_organic_compounds
p3696
VNPL
p3697
tp3698
g4
(g5
g6
(dp3699
S'CA_COMMENT'
p3700
NsS'CO_COMP_NAME'
p3701
g3696
sS'SYSTIME'
p3702
g4
(g11
g12
(lp3703
g14
(S'\x07\xe7\x05\t\x070)\x05?5'
p3704
tp3705
Rp3706
aNatp3707
Rp3708
(dp3709
g21
S'[)'
p3710
sbsS'CA_CALIBRATION_SCALE'
p3711
g3697
sS'CA_DESC'
p3712
Nstp3713
Rp3714
s(Vmass_61.065_organic_compounds
p3715
VNPL
p3716
tp3717
g4
(g5
g6
(dp3718
S'CA_COMMENT'
p3719
NsS'CO_COMP_NAME'
p3720
g3715
sS'SYSTIME'
p3721
g4
(g11
g12
(lp3722
g14
(S'\x07\xe9\x01\x1f\x07\x05\x1a\x0ci\x07'
p3723
tp3724
Rp3725
aNatp3726
Rp3727
(dp3728
g21
S'[)'
p3729
sbsS'CA_CALIBRATION_SCALE'
p3730
g3716
sS'CA_DESC'
p3731
Nstp3732
Rp3733
s(Valpha-phellandrene
p3734
VNPL
p3735
tp3736
g4
(g5
g6
(dp3737
S'CA_COMMENT'
p3738
NsS'CO_COMP_NAME'
p3739
g3734
sS'SYSTIME'
p3740
g4
(g11
g12
(lp3741
g14
(S'\x07\xde\x05\x01\x00\x00\x00\x00\x00\x00'
p3742
tp3743
Rp3744
aNatp3745
Rp3746
(dp3747
g21
S'[)'
p3748
sbsS'CA_CALIBRATION_SCALE'
p3749
g3735
sS'CA_DESC'
p3750
Nstp3751
Rp3752
s(Vn-butanal
p3753
VApel Riemer
p3754
tp3755
g4
(g5
g6
(dp3756
S'CA_COMMENT'
p3757
NsS'CO_COMP_NAME'
p3758
g3753
sS'SYSTIME'
p3759
g4
(g11
g12
(lp3760
g14
(S'\x07\xe7\x02\x0f\x0e!7\x01\x8b\xd6'
p3761
tp3762
Rp3763
aNatp3764
Rp3765
(dp3766
g21
S'[)'
p3767
sbsS'CA_CALIBRATION_SCALE'
p3768
g3754
sS'CA_DESC'
p3769
Nstp3770
Rp3771
s(Visoprene
p3772
VApel-Riemer
p3773
tp3774
g4
(g5
g6
(dp3775
S'CA_COMMENT'
p3776
NsS'CO_COMP_NAME'
p3777
g3772
sS'SYSTIME'
p3778
g4
(g11
g12
(lp3779
g14
(S'\x07\xe7\x02\x0f\x0e \x0b\x0e+{'
p3780
tp3781
Rp3782
aNatp3783
Rp3784
(dp3785
g21
S'[)'
p3786
sbsS'CA_CALIBRATION_SCALE'
p3787
g3773
sS'CA_DESC'
p3788
Nstp3789
Rp3790
s(Vhexanal
p3791
VApel Riemer
p3792
tp3793
g4
(g5
g6
(dp3794
S'CA_COMMENT'
p3795
NsS'CO_COMP_NAME'
p3796
g3791
sS'SYSTIME'
p3797
g4
(g11
g12
(lp3798
g14
(S'\x07\xe7\x02\x0f\x0e!7\x03n\xa5'
p3799
tp3800
Rp3801
aNatp3802
Rp3803
(dp3804
g21
S'[)'
p3805
sbsS'CA_CALIBRATION_SCALE'
p3806
g3792
sS'CA_DESC'
p3807
Nstp3808
Rp3809
s(Vn-octane
p3810
VApel-Riemer
p3811
tp3812
g4
(g5
g6
(dp3813
S'CA_COMMENT'
p3814
NsS'CO_COMP_NAME'
p3815
g3810
sS'SYSTIME'
p3816
g4
(g11
g12
(lp3817
g14
(S'\x07\xe7\x02\x0f\x0e \x0c\x04o\x86'
p3818
tp3819
Rp3820
aNatp3821
Rp3822
(dp3823
g21
S'[)'
p3824
sbsS'CA_CALIBRATION_SCALE'
p3825
g3811
sS'CA_DESC'
p3826
Nstp3827
Rp3828
s(Vhydrogen
p3829
VMPI-2009
p3830
tp3831
g4
(g5
g6
(dp3832
S'CA_COMMENT'
p3833
g1134
sS'CO_COMP_NAME'
p3834
g3829
sS'SYSTIME'
p3835
g4
(g11
g12
(lp3836
g14
(S'\x07\xe8\x04\x05\t.:\x0e\xbd\x17'
p3837
tp3838
Rp3839
aNatp3840
Rp3841
(dp3842
g21
S'[)'
p3843
sbsS'CA_CALIBRATION_SCALE'
p3844
g3830
sS'CA_DESC'
p3845
Nstp3846
Rp3847
s(V2-methyl-1-butene
p3848
VNPL
p3849
tp3850
g4
(g5
g6
(dp3851
S'CA_COMMENT'
p3852
NsS'CO_COMP_NAME'
p3853
g3848
sS'SYSTIME'
p3854
g4
(g11
g12
(lp3855
g14
(S'\x07\xde\x05\x01\x00\x00\x00\x00\x00\x00'
p3856
tp3857
Rp3858
aNatp3859
Rp3860
(dp3861
g21
S'[)'
p3862
sbsS'CA_CALIBRATION_SCALE'
p3863
g3849
sS'CA_DESC'
p3864
Nstp3865
Rp3866
s(V3-methylheptane
p3867
VNPL
p3868
tp3869
g4
(g5
g6
(dp3870
S'CA_COMMENT'
p3871
NsS'CO_COMP_NAME'
p3872
g3867
sS'SYSTIME'
p3873
g4
(g11
g12
(lp3874
g14
(S'\x07\xde\x05\x01\x00\x00\x00\x00\x00\x00'
p3875
tp3876
Rp3877
aNatp3878
Rp3879
(dp3880
g21
S'[)'
p3881
sbsS'CA_CALIBRATION_SCALE'
p3882
g3868
sS'CA_DESC'
p3883
Nstp3884
Rp3885
s(Vm-p-xylene
p3886
VApel-Riemer
p3887
tp3888
g4
(g5
g6
(dp3889
S'CA_COMMENT'
p3890
NsS'CO_COMP_NAME'
p3891
g3886
sS'SYSTIME'
p3892
g4
(g11
g12
(lp3893
g14
(S'\x07\xe7\x02\x0f\x0e \x0c\x04\xe6\xc5'
p3894
tp3895
Rp3896
aNatp3897
Rp3898
(dp3899
g21
S'[)'
p3900
sbsS'CA_CALIBRATION_SCALE'
p3901
g3887
sS'CA_DESC'
p3902
Nstp3903
Rp3904
s(VHCFC-22
p3905
VSIO2005
p3906
tp3907
g4
(g5
g6
(dp3908
S'CA_COMMENT'
p3909
NsS'CO_COMP_NAME'
p3910
g3905
sS'SYSTIME'
p3911
g4
(g11
g12
(lp3912
g14
(S'\x07\xde\x05\x01\x00\x00\x00\x00\x00\x00'
p3913
tp3914
Rp3915
aNatp3916
Rp3917
(dp3918
g21
S'[)'
p3919
sbsS'CA_CALIBRATION_SCALE'
p3920
g3906
sS'CA_DESC'
p3921
Nstp3922
Rp3923
s(V3-methyl-1-butene
p3924
VNPL
p3925
tp3926
g4
(g5
g6
(dp3927
S'CA_COMMENT'
p3928
NsS'CO_COMP_NAME'
p3929
g3924
sS'SYSTIME'
p3930
g4
(g11
g12
(lp3931
g14
(S'\x07\xde\x05\x01\x00\x00\x00\x00\x00\x00'
p3932
tp3933
Rp3934
aNatp3935
Rp3936
(dp3937
g21
S'[)'
p3938
sbsS'CA_CALIBRATION_SCALE'
p3939
g3925
sS'CA_DESC'
p3940
Nstp3941
Rp3942
s(Vn-heptanal
p3943
VNPL
p3944
tp3945
g4
(g5
g6
(dp3946
S'CA_COMMENT'
p3947
NsS'CO_COMP_NAME'
p3948
g3943
sS'SYSTIME'
p3949
g4
(g11
g12
(lp3950
g14
(S'\x07\xde\x05\x01\x00\x00\x00\x00\x00\x00'
p3951
tp3952
Rp3953
aNatp3954
Rp3955
(dp3956
g21
S'[)'
p3957
sbsS'CA_CALIBRATION_SCALE'
p3958
g3944
sS'CA_DESC'
p3959
Nstp3960
Rp3961
s(Vethanol
p3962
VApel-Riemer
p3963
tp3964
g4
(g5
g6
(dp3965
S'CA_COMMENT'
p3966
NsS'CO_COMP_NAME'
p3967
g3962
sS'SYSTIME'
p3968
g4
(g11
g12
(lp3969
g14
(S'\x07\xe7\x02\x0f\x0e \x0b\r\x02\n'
p3970
tp3971
Rp3972
aNatp3973
Rp3974
(dp3975
g21
S'[)'
p3976
sbsS'CA_CALIBRATION_SCALE'
p3977
g3963
sS'CA_DESC'
p3978
Nstp3979
Rp3980
s(V1-3-5-trimethylbenzene
p3981
VApel Riemer
p3982
tp3983
g4
(g5
g6
(dp3984
S'CA_COMMENT'
p3985
NsS'CO_COMP_NAME'
p3986
g3981
sS'SYSTIME'
p3987
g4
(g11
g12
(lp3988
g14
(S'\x07\xe7\x02\x0f\x0e!7\x04\x98<'
p3989
tp3990
Rp3991
aNatp3992
Rp3993
(dp3994
g21
S'[)'
p3995
sbsS'CA_CALIBRATION_SCALE'
p3996
g3982
sS'CA_DESC'
p3997
Nstp3998
Rp3999
s(VHFC-245fa
p4000
VSIO2014
p4001
tp4002
g4
(g5
g6
(dp4003
S'CA_COMMENT'
p4004
NsS'CO_COMP_NAME'
p4005
g4000
sS'SYSTIME'
p4006
g4
(g11
g12
(lp4007
g14
(S'\x07\xde\x05\x01\x00\x00\x00\x00\x00\x00'
p4008
tp4009
Rp4010
aNatp4011
Rp4012
(dp4013
g21
S'[)'
p4014
sbsS'CA_CALIBRATION_SCALE'
p4015
g4001
sS'CA_DESC'
p4016
Nstp4017
Rp4018
s(Vmass_93.06_organic_compounds
p4019
VNPL
p4020
tp4021
g4
(g5
g6
(dp4022
S'CA_COMMENT'
p4023
NsS'CO_COMP_NAME'
p4024
g4019
sS'SYSTIME'
p4025
g4
(g11
g12
(lp4026
g14
(S'\x07\xe9\x01\x1f\x07\x05\x1a\x0ci\x07'
p4027
tp4028
Rp4029
aNatp4030
Rp4031
(dp4032
g21
S'[)'
p4033
sbsS'CA_CALIBRATION_SCALE'
p4034
g4020
sS'CA_DESC'
p4035
Nstp4036
Rp4037
s(V2-3-dimethylbutane
p4038
VApel-Riemer
p4039
tp4040
g4
(g5
g6
(dp4041
S'CA_COMMENT'
p4042
NsS'CO_COMP_NAME'
p4043
g4038
sS'SYSTIME'
p4044
g4
(g11
g12
(lp4045
g14
(S'\x07\xe7\x02\x0f\x0e \x0c\x00\r!'
p4046
tp4047
Rp4048
aNatp4049
Rp4050
(dp4051
g21
S'[)'
p4052
sbsS'CA_CALIBRATION_SCALE'
p4053
g4039
sS'CA_DESC'
p4054
Nstp4055
Rp4056
s(Vn-pentane
p4057
VApel Riemer
p4058
tp4059
g4
(g5
g6
(dp4060
S'CA_COMMENT'
p4061
NsS'CO_COMP_NAME'
p4062
g4057
sS'SYSTIME'
p4063
g4
(g11
g12
(lp4064
g14
(S'\x07\xe7\x02\x0f\x0e!7\x00h\x92'
p4065
tp4066
Rp4067
aNatp4068
Rp4069
(dp4070
g21
S'[)'
p4071
sbsS'CA_CALIBRATION_SCALE'
p4072
g4058
sS'CA_DESC'
p4073
Nstp4074
Rp4075
s(V2-3-dimethylbutane
p4076
VApel Riemer
p4077
tp4078
g4
(g5
g6
(dp4079
S'CA_COMMENT'
p4080
NsS'CO_COMP_NAME'
p4081
g4076
sS'SYSTIME'
p4082
g4
(g11
g12
(lp4083
g14
(S"\x07\xe7\x02\x0f\x0e!7\x01'\xe5"
p4084
tp4085
Rp4086
aNatp4087
Rp4088
(dp4089
g21
S'[)'
p4090
sbsS'CA_CALIBRATION_SCALE'
p4091
g4077
sS'CA_DESC'
p4092
Nstp4093
Rp4094
s(V1-ethyl-4-methylbenzene
p4095
VNPL
p4096
tp4097
g4
(g5
g6
(dp4098
S'CA_COMMENT'
p4099
NsS'CO_COMP_NAME'
p4100
g4095
sS'SYSTIME'
p4101
g4
(g11
g12
(lp4102
g14
(S'\x07\xde\x05\x01\x00\x00\x00\x00\x00\x00'
p4103
tp4104
Rp4105
aNatp4106
Rp4107
(dp4108
g21
S'[)'
p4109
sbsS'CA_CALIBRATION_SCALE'
p4110
g4096
sS'CA_DESC'
p4111
Nstp4112
Rp4113
s(V1-butyne
p4114
VNPL
p4115
tp4116
g4
(g5
g6
(dp4117
S'CA_COMMENT'
p4118
NsS'CO_COMP_NAME'
p4119
g4114
sS'SYSTIME'
p4120
g4
(g11
g12
(lp4121
g14
(S'\x07\xde\x05\x01\x00\x00\x00\x00\x00\x00'
p4122
tp4123
Rp4124
aNatp4125
Rp4126
(dp4127
g21
S'[)'
p4128
sbsS'CA_CALIBRATION_SCALE'
p4129
g4115
sS'CA_DESC'
p4130
Nstp4131
Rp4132
s(Vmass_61.028_organic_compounds
p4133
VNPL
p4134
tp4135
g4
(g5
g6
(dp4136
S'CA_COMMENT'
p4137
NsS'CO_COMP_NAME'
p4138
g4133
sS'SYSTIME'
p4139
g4
(g11
g12
(lp4140
g14
(S'\x07\xe9\x01\x1f\x07\x05\x1a\x0ci\x07'
p4141
tp4142
Rp4143
aNatp4144
Rp4145
(dp4146
g21
S'[)'
p4147
sbsS'CA_CALIBRATION_SCALE'
p4148
g4134
sS'CA_DESC'
p4149
Nstp4150
Rp4151
s(V1-3-5-trimethylbenzene
p4152
VNPL
p4153
tp4154
g4
(g5
g6
(dp4155
S'CA_COMMENT'
p4156
NsS'CO_COMP_NAME'
p4157
g4152
sS'SYSTIME'
p4158
g4
(g11
g12
(lp4159
g14
(S'\x07\xde\x05\x01\x00\x00\x00\x00\x00\x00'
p4160
tp4161
Rp4162
aNatp4163
Rp4164
(dp4165
g21
S'[)'
p4166
sbsS'CA_CALIBRATION_SCALE'
p4167
g4153
sS'CA_DESC'
p4168
Nstp4169
Rp4170
s(Vn-pentadecane
p4171
VNPL
p4172
tp4173
g4
(g5
g6
(dp4174
S'CA_COMMENT'
p4175
NsS'CO_COMP_NAME'
p4176
g4171
sS'SYSTIME'
p4177
g4
(g11
g12
(lp4178
g14
(S'\x07\xde\x05\x01\x00\x00\x00\x00\x00\x00'
p4179
tp4180
Rp4181
aNatp4182
Rp4183
(dp4184
g21
S'[)'
p4185
sbsS'CA_CALIBRATION_SCALE'
p4186
g4172
sS'CA_DESC'
p4187
Nstp4188
Rp4189
s(Vn-dodecane
p4190
VApel Riemer
p4191
tp4192
g4
(g5
g6
(dp4193
S'CA_COMMENT'
p4194
NsS'CO_COMP_NAME'
p4195
g4190
sS'SYSTIME'
p4196
g4
(g11
g12
(lp4197
g14
(S"\x07\xe7\x02\x0f\x0e!7\x05\xbf'"
p4198
tp4199
Rp4200
aNatp4201
Rp4202
(dp4203
g21
S'[)'
p4204
sbsS'CA_CALIBRATION_SCALE'
p4205
g4191
sS'CA_DESC'
p4206
Nstp4207
Rp4208
s(V1-2-4-trimethylbenzene
p4209
VNPL
p4210
tp4211
g4
(g5
g6
(dp4212
S'CA_COMMENT'
p4213
NsS'CO_COMP_NAME'
p4214
g4209
sS'SYSTIME'
p4215
g4
(g11
g12
(lp4216
g14
(S'\x07\xde\x05\x01\x00\x00\x00\x00\x00\x00'
p4217
tp4218
Rp4219
aNatp4220
Rp4221
(dp4222
g21
S'[)'
p4223
sbsS'CA_CALIBRATION_SCALE'
p4224
g4210
sS'CA_DESC'
p4225
Nstp4226
Rp4227
s(Vmyrcene
p4228
VApel-Riemer
p4229
tp4230
g4
(g5
g6
(dp4231
S'CA_COMMENT'
p4232
NsS'CO_COMP_NAME'
p4233
g4228
sS'SYSTIME'
p4234
g4
(g11
g12
(lp4235
g14
(S'\x07\xe7\x02\x0f\x0e \x0c\x07(\x88'
p4236
tp4237
Rp4238
aNatp4239
Rp4240
(dp4241
g21
S'[)'
p4242
sbsS'CA_CALIBRATION_SCALE'
p4243
g4229
sS'CA_DESC'
p4244
Nstp4245
Rp4246
s(V4-methylbenzaldehyde
p4247
VNPL
p4248
tp4249
g4
(g5
g6
(dp4250
S'CA_COMMENT'
p4251
NsS'CO_COMP_NAME'
p4252
g4247
sS'SYSTIME'
p4253
g4
(g11
g12
(lp4254
g14
(S'\x07\xde\x05\x01\x00\x00\x00\x00\x00\x00'
p4255
tp4256
Rp4257
aNatp4258
Rp4259
(dp4260
g21
S'[)'
p4261
sbsS'CA_CALIBRATION_SCALE'
p4262
g4248
sS'CA_DESC'
p4263
Nstp4264
Rp4265
s(V3-methylhexane
p4266
VApel Riemer
p4267
tp4268
g4
(g5
g6
(dp4269
S'CA_COMMENT'
p4270
NsS'CO_COMP_NAME'
p4271
g4266
sS'SYSTIME'
p4272
g4
(g11
g12
(lp4273
g14
(S'\x07\xe7\x02\x0f\x0e!7\x02\xa4\xee'
p4274
tp4275
Rp4276
aNatp4277
Rp4278
(dp4279
g21
S'[)'
p4280
sbsS'CA_CALIBRATION_SCALE'
p4281
g4267
sS'CA_DESC'
p4282
Nstp4283
Rp4284
s(Vbenzene
p4285
VNPL
p4286
tp4287
g4
(g5
g6
(dp4288
S'CA_COMMENT'
p4289
NsS'CO_COMP_NAME'
p4290
g4285
sS'SYSTIME'
p4291
g4
(g11
g12
(lp4292
g14
(S'\x07\xde\x05\x01\x00\x00\x00\x00\x00\x00'
p4293
tp4294
Rp4295
aNatp4296
Rp4297
(dp4298
g21
S'[)'
p4299
sbsS'CA_CALIBRATION_SCALE'
p4300
g4286
sS'CA_DESC'
p4301
Nstp4302
Rp4303
s(Vbenzaldehyde
p4304
VApel Riemer
p4305
tp4306
g4
(g5
g6
(dp4307
S'CA_COMMENT'
p4308
NsS'CO_COMP_NAME'
p4309
g4304
sS'SYSTIME'
p4310
g4
(g11
g12
(lp4311
g14
(S'\x07\xe7\x02\x0f\x0e!7\x047\xc6'
p4312
tp4313
Rp4314
aNatp4315
Rp4316
(dp4317
g21
S'[)'
p4318
sbsS'CA_CALIBRATION_SCALE'
p4319
g4305
sS'CA_DESC'
p4320
Nstp4321
Rp4322
s(VCFC-115
p4323
VSIO2005
p4324
tp4325
g4
(g5
g6
(dp4326
S'CA_COMMENT'
p4327
NsS'CO_COMP_NAME'
p4328
g4323
sS'SYSTIME'
p4329
g4
(g11
g12
(lp4330
g14
(S'\x07\xde\x05\x01\x00\x00\x00\x00\x00\x00'
p4331
tp4332
Rp4333
aNatp4334
Rp4335
(dp4336
g21
S'[)'
p4337
sbsS'CA_CALIBRATION_SCALE'
p4338
g4324
sS'CA_DESC'
p4339
Nstp4340
Rp4341
s(V3-methylbutanal
p4342
VNPL
p4343
tp4344
g4
(g5
g6
(dp4345
S'CA_COMMENT'
p4346
NsS'CO_COMP_NAME'
p4347
g4342
sS'SYSTIME'
p4348
g4
(g11
g12
(lp4349
g14
(S'\x07\xde\x05\x01\x00\x00\x00\x00\x00\x00'
p4350
tp4351
Rp4352
aNatp4353
Rp4354
(dp4355
g21
S'[)'
p4356
sbsS'CA_CALIBRATION_SCALE'
p4357
g4343
sS'CA_DESC'
p4358
Nstp4359
Rp4360
s(VCFC-12
p4361
VSIO2005
p4362
tp4363
g4
(g5
g6
(dp4364
S'CA_COMMENT'
p4365
NsS'CO_COMP_NAME'
p4366
g4361
sS'SYSTIME'
p4367
g4
(g11
g12
(lp4368
g14
(S'\x07\xde\x05\x01\x00\x00\x00\x00\x00\x00'
p4369
tp4370
Rp4371
aNatp4372
Rp4373
(dp4374
g21
S'[)'
p4375
sbsS'CA_CALIBRATION_SCALE'
p4376
g4362
sS'CA_DESC'
p4377
Nstp4378
Rp4379
s(Vsum_propanone_propanal
p4380
VNPL
p4381
tp4382
g4
(g5
g6
(dp4383
S'CA_COMMENT'
p4384
NsS'CO_COMP_NAME'
p4385
g4380
sS'SYSTIME'
p4386
g4
(g11
g12
(lp4387
g14
(S'\x07\xde\x05\x01\x00\x00\x00\x00\x00\x00'
p4388
tp4389
Rp4390
aNatp4391
Rp4392
(dp4393
g21
S'[)'
p4394
sbsS'CA_CALIBRATION_SCALE'
p4395
g4381
sS'CA_DESC'
p4396
Nstp4397
Rp4398
s(Vmass_73.065_organic_compounds
p4399
VNPL
p4400
tp4401
g4
(g5
g6
(dp4402
S'CA_COMMENT'
p4403
NsS'CO_COMP_NAME'
p4404
g4399
sS'SYSTIME'
p4405
g4
(g11
g12
(lp4406
g14
(S'\x07\xe9\x01\x1f\x07\x05\x1a\x0ci\x07'
p4407
tp4408
Rp4409
aNatp4410
Rp4411
(dp4412
g21
S'[)'
p4413
sbsS'CA_CALIBRATION_SCALE'
p4414
g4400
sS'CA_DESC'
p4415
Nstp4416
Rp4417
s(V2-2-4-trimethylpentane
p4418
VApel Riemer
p4419
tp4420
g4
(g5
g6
(dp4421
S'CA_COMMENT'
p4422
NsS'CO_COMP_NAME'
p4423
g4418
sS'SYSTIME'
p4424
g4
(g11
g12
(lp4425
g14
(S'\x07\xe7\x02\x0f\x0e!7\x02\xe0}'
p4426
tp4427
Rp4428
aNatp4429
Rp4430
(dp4431
g21
S'[)'
p4432
sbsS'CA_CALIBRATION_SCALE'
p4433
g4419
sS'CA_DESC'
p4434
Nstp4435
Rp4436
s(Vn-propylbenzene
p4437
VNPL
p4438
tp4439
g4
(g5
g6
(dp4440
S'CA_COMMENT'
p4441
NsS'CO_COMP_NAME'
p4442
g4437
sS'SYSTIME'
p4443
g4
(g11
g12
(lp4444
g14
(S'\x07\xde\x05\x01\x00\x00\x00\x00\x00\x00'
p4445
tp4446
Rp4447
aNatp4448
Rp4449
(dp4450
g21
S'[)'
p4451
sbsS'CA_CALIBRATION_SCALE'
p4452
g4438
sS'CA_DESC'
p4453
Nstp4454
Rp4455
s(Valpha-terpinene
p4456
VNPL
p4457
tp4458
g4
(g5
g6
(dp4459
S'CA_COMMENT'
p4460
NsS'CO_COMP_NAME'
p4461
g4456
sS'SYSTIME'
p4462
g4
(g11
g12
(lp4463
g14
(S'\x07\xde\x05\x01\x00\x00\x00\x00\x00\x00'
p4464
tp4465
Rp4466
aNatp4467
Rp4468
(dp4469
g21
S'[)'
p4470
sbsS'CA_CALIBRATION_SCALE'
p4471
g4457
sS'CA_DESC'
p4472
Nstp4473
Rp4474
s(Vn-tetradecane
p4475
VNPL
p4476
tp4477
g4
(g5
g6
(dp4478
S'CA_COMMENT'
p4479
NsS'CO_COMP_NAME'
p4480
g4475
sS'SYSTIME'
p4481
g4
(g11
g12
(lp4482
g14
(S'\x07\xde\x05\x01\x00\x00\x00\x00\x00\x00'
p4483
tp4484
Rp4485
aNatp4486
Rp4487
(dp4488
g21
S'[)'
p4489
sbsS'CA_CALIBRATION_SCALE'
p4490
g4476
sS'CA_DESC'
p4491
Nstp4492
Rp4493
s(Vchlorobenzene
p4494
VRestek
p4495
tp4496
g4
(g5
g6
(dp4497
S'CA_COMMENT'
p4498
NsS'CO_COMP_NAME'
p4499
g4494
sS'SYSTIME'
p4500
g4
(g11
g12
(lp4501
g14
(S'\x07\xe9\x06\x02\x0b\x0c4\x08\xf1\xdc'
p4502
tp4503
Rp4504
aNatp4505
Rp4506
(dp4507
g21
S'[)'
p4508
sbsS'CA_CALIBRATION_SCALE'
p4509
g4495
sS'CA_DESC'
p4510
Nstp4511
Rp4512
s(Vn-butanal
p4513
VNPL
p4514
tp4515
g4
(g5
g6
(dp4516
S'CA_COMMENT'
p4517
NsS'CO_COMP_NAME'
p4518
g4513
sS'SYSTIME'
p4519
g4
(g11
g12
(lp4520
g14
(S'\x07\xde\x05\x01\x00\x00\x00\x00\x00\x00'
p4521
tp4522
Rp4523
aNatp4524
Rp4525
(dp4526
g21
S'[)'
p4527
sbsS'CA_CALIBRATION_SCALE'
p4528
g4514
sS'CA_DESC'
p4529
Nstp4530
Rp4531
s(Vn-undecane
p4532
VNPL
p4533
tp4534
g4
(g5
g6
(dp4535
S'CA_COMMENT'
p4536
NsS'CO_COMP_NAME'
p4537
g4532
sS'SYSTIME'
p4538
g4
(g11
g12
(lp4539
g14
(S'\x07\xde\x05\x01\x00\x00\x00\x00\x00\x00'
p4540
tp4541
Rp4542
aNatp4543
Rp4544
(dp4545
g21
S'[)'
p4546
sbsS'CA_CALIBRATION_SCALE'
p4547
g4533
sS'CA_DESC'
p4548
Nstp4549
Rp4550
s(Vterpinolene
p4551
VNPL
p4552
tp4553
g4
(g5
g6
(dp4554
S'CA_COMMENT'
p4555
NsS'CO_COMP_NAME'
p4556
g4551
sS'SYSTIME'
p4557
g4
(g11
g12
(lp4558
g14
(S'\x07\xde\x05\x01\x00\x00\x00\x00\x00\x00'
p4559
tp4560
Rp4561
aNatp4562
Rp4563
(dp4564
g21
S'[)'
p4565
sbsS'CA_CALIBRATION_SCALE'
p4566
g4552
sS'CA_DESC'
p4567
Nstp4568
Rp4569
s(Vmethyl_acetate
p4570
VApel-Riemer
p4571
tp4572
g4
(g5
g6
(dp4573
S'CA_COMMENT'
p4574
NsS'CO_COMP_NAME'
p4575
g4570
sS'SYSTIME'
p4576
g4
(g11
g12
(lp4577
g14
(S'\x07\xe9\t\x0b\x0b\x17\x04\x02C\xe5'
p4578
tp4579
Rp4580
aNatp4581
Rp4582
(dp4583
g21
S'[)'
p4584
sbsS'CA_CALIBRATION_SCALE'
p4585
g4571
sS'CA_DESC'
p4586
Nstp4587
Rp4588
s(VHFC-227ea
p4589
VSIO2014
p4590
tp4591
g4
(g5
g6
(dp4592
S'CA_COMMENT'
p4593
NsS'CO_COMP_NAME'
p4594
g4589
sS'SYSTIME'
p4595
g4
(g11
g12
(lp4596
g14
(S'\x07\xde\x05\x01\x00\x00\x00\x00\x00\x00'
p4597
tp4598
Rp4599
aNatp4600
Rp4601
(dp4602
g21
S'[)'
p4603
sbsS'CA_CALIBRATION_SCALE'
p4604
g4590
sS'CA_DESC'
p4605
Nstp4606
Rp4607
s(Vethanal
p4608
VApel-Riemer
p4609
tp4610
g4
(g5
g6
(dp4611
S'CA_COMMENT'
p4612
NsS'CO_COMP_NAME'
p4613
g4608
sS'SYSTIME'
p4614
g4
(g11
g12
(lp4615
g14
(S'\x07\xe7\x08\x1c\x0c\x0e\x0c\x03\xe6z'
p4616
tp4617
Rp4618
aNatp4619
Rp4620
(dp4621
g21
S'[)'
p4622
sbsS'CA_CALIBRATION_SCALE'
p4623
g4609
sS'CA_DESC'
p4624
Nstp4625
Rp4626
s(Vmyrcene
p4627
VApel Riemer
p4628
tp4629
g4
(g5
g6
(dp4630
S'CA_COMMENT'
p4631
NsS'CO_COMP_NAME'
p4632
g4627
sS'SYSTIME'
p4633
g4
(g11
g12
(lp4634
g14
(S'\x07\xe7\x02\x0f\x0e!7\x04\xf5]'
p4635
tp4636
Rp4637
aNatp4638
Rp4639
(dp4640
g21
S'[)'
p4641
sbsS'CA_CALIBRATION_SCALE'
p4642
g4628
sS'CA_DESC'
p4643
Nstp4644
Rp4645
s(Vcamphene
p4646
VNPL
p4647
tp4648
g4
(g5
g6
(dp4649
S'CA_COMMENT'
p4650
NsS'CO_COMP_NAME'
p4651
g4646
sS'SYSTIME'
p4652
g4
(g11
g12
(lp4653
g14
(S'\x07\xde\x05\x01\x00\x00\x00\x00\x00\x00'
p4654
tp4655
Rp4656
aNatp4657
Rp4658
(dp4659
g21
S'[)'
p4660
sbsS'CA_CALIBRATION_SCALE'
p4661
g4647
sS'CA_DESC'
p4662
Nstp4663
Rp4664
s(Vethanal
p4665
VNPL
p4666
tp4667
g4
(g5
g6
(dp4668
S'CA_COMMENT'
p4669
NsS'CO_COMP_NAME'
p4670
g4665
sS'SYSTIME'
p4671
g4
(g11
g12
(lp4672
g14
(S'\x07\xde\x05\x01\x00\x00\x00\x00\x00\x00'
p4673
tp4674
Rp4675
aNatp4676
Rp4677
(dp4678
g21
S'[)'
p4679
sbsS'CA_CALIBRATION_SCALE'
p4680
g4666
sS'CA_DESC'
p4681
Nstp4682
Rp4683
s(Vcis-2-butene
p4684
VNPL
p4685
tp4686
g4
(g5
g6
(dp4687
S'CA_COMMENT'
p4688
NsS'CO_COMP_NAME'
p4689
g4684
sS'SYSTIME'
p4690
g4
(g11
g12
(lp4691
g14
(S'\x07\xde\x05\x01\x00\x00\x00\x00\x00\x00'
p4692
tp4693
Rp4694
aNatp4695
Rp4696
(dp4697
g21
S'[)'
p4698
sbsS'CA_CALIBRATION_SCALE'
p4699
g4685
sS'CA_DESC'
p4700
Nstp4701
Rp4702
s(Vn-dodecane
p4703
VApel-Riemer
p4704
tp4705
g4
(g5
g6
(dp4706
S'CA_COMMENT'
p4707
NsS'CO_COMP_NAME'
p4708
g4703
sS'SYSTIME'
p4709
g4
(g11
g12
(lp4710
g14
(S'\x07\xe7\x02\x0f\x0e \x0c\x08\x82G'
p4711
tp4712
Rp4713
aNatp4714
Rp4715
(dp4716
g21
S'[)'
p4717
sbsS'CA_CALIBRATION_SCALE'
p4718
g4704
sS'CA_DESC'
p4719
Nstp4720
Rp4721
s(Vcarbon_monoxide
p4722
VWMO CO X2014A
p4723
tp4724
g4
(g5
g6
(dp4725
S'CA_COMMENT'
p4726
NsS'CO_COMP_NAME'
p4727
g4722
sS'SYSTIME'
p4728
g4
(g11
g12
(lp4729
g14
(S'\x07\xde\x05\x01\x00\x00\x00\x00\x00\x00'
p4730
tp4731
Rp4732
aNatp4733
Rp4734
(dp4735
g21
S'[)'
p4736
sbsS'CA_CALIBRATION_SCALE'
p4737
g4723
sS'CA_DESC'
p4738
Nstp4739
Rp4740
s(Vbutanone
p4741
VNPL
p4742
tp4743
g4
(g5
g6
(dp4744
S'CA_COMMENT'
p4745
NsS'CO_COMP_NAME'
p4746
g4741
sS'SYSTIME'
p4747
g4
(g11
g12
(lp4748
g14
(S'\x07\xde\x05\x01\x00\x00\x00\x00\x00\x00'
p4749
tp4750
Rp4751
aNatp4752
Rp4753
(dp4754
g21
S'[)'
p4755
sbsS'CA_CALIBRATION_SCALE'
p4756
g4742
sS'CA_DESC'
p4757
Nstp4758
Rp4759
s(Vm-cymene
p4760
VNPL
p4761
tp4762
g4
(g5
g6
(dp4763
S'CA_COMMENT'
p4764
NsS'CO_COMP_NAME'
p4765
g4760
sS'SYSTIME'
p4766
g4
(g11
g12
(lp4767
g14
(S'\x07\xde\x05\x01\x00\x00\x00\x00\x00\x00'
p4768
tp4769
Rp4770
aNatp4771
Rp4772
(dp4773
g21
S'[)'
p4774
sbsS'CA_CALIBRATION_SCALE'
p4775
g4761
sS'CA_DESC'
p4776
Nstp4777
Rp4778
s(Vbeta-pinene
p4779
VApel Riemer
p4780
tp4781
g4
(g5
g6
(dp4782
S'CA_COMMENT'
p4783
NsS'CO_COMP_NAME'
p4784
g4779
sS'SYSTIME'
p4785
g4
(g11
g12
(lp4786
g14
(S'\x07\xe7\x02\x0f\x0e!7\x04\xd5\x8b'
p4787
tp4788
Rp4789
aNatp4790
Rp4791
(dp4792
g21
S'[)'
p4793
sbsS'CA_CALIBRATION_SCALE'
p4794
g4780
sS'CA_DESC'
p4795
Nstp4796
Rp4797
s(V2-methylpropane
p4798
VApel Riemer
p4799
tp4800
g4
(g5
g6
(dp4801
S'CA_COMMENT'
p4802
NsS'CO_COMP_NAME'
p4803
g4798
sS'SYSTIME'
p4804
g4
(g11
g12
(lp4805
g14
(S'\x07\xe7\x02\x0f\x0e!6\x0e\xe4f'
p4806
tp4807
Rp4808
aNatp4809
Rp4810
(dp4811
g21
S'[)'
p4812
sbsS'CA_CALIBRATION_SCALE'
p4813
g4799
sS'CA_DESC'
p4814
Nstp4815
Rp4816
s(Vcyclo-hexane
p4817
VNPL
p4818
tp4819
g4
(g5
g6
(dp4820
S'CA_COMMENT'
p4821
NsS'CO_COMP_NAME'
p4822
g4817
sS'SYSTIME'
p4823
g4
(g11
g12
(lp4824
g14
(S'\x07\xde\x05\x01\x00\x00\x00\x00\x00\x00'
p4825
tp4826
Rp4827
aNatp4828
Rp4829
(dp4830
g21
S'[)'
p4831
sbsS'CA_CALIBRATION_SCALE'
p4832
g4818
sS'CA_DESC'
p4833
Nstp4834
Rp4835
s(Vmass_73.028_organic_compounds
p4836
VNPL
p4837
tp4838
g4
(g5
g6
(dp4839
S'CA_COMMENT'
p4840
NsS'CO_COMP_NAME'
p4841
g4836
sS'SYSTIME'
p4842
g4
(g11
g12
(lp4843
g14
(S'\x07\xe9\x01\x1f\x07\x05\x1a\x0ci\x07'
p4844
tp4845
Rp4846
aNatp4847
Rp4848
(dp4849
g21
S'[)'
p4850
sbsS'CA_CALIBRATION_SCALE'
p4851
g4837
sS'CA_DESC'
p4852
Nstp4853
Rp4854
s(Valpha-pinene
p4855
VApel-Riemer
p4856
tp4857
g4
(g5
g6
(dp4858
S'CA_COMMENT'
p4859
NsS'CO_COMP_NAME'
p4860
g4855
sS'SYSTIME'
p4861
g4
(g11
g12
(lp4862
g14
(S'\x07\xe7\x02\x0f\x0e \x0c\x06\x05\x88'
p4863
tp4864
Rp4865
aNatp4866
Rp4867
(dp4868
g21
S'[)'
p4869
sbsS'CA_CALIBRATION_SCALE'
p4870
g4856
sS'CA_DESC'
p4871
Nstp4872
Rp4873
s(Vn-butane
p4874
VNPL
p4875
tp4876
g4
(g5
g6
(dp4877
S'CA_COMMENT'
p4878
NsS'CO_COMP_NAME'
p4879
g4874
sS'SYSTIME'
p4880
g4
(g11
g12
(lp4881
g14
(S'\x07\xde\x05\x01\x00\x00\x00\x00\x00\x00'
p4882
tp4883
Rp4884
aNatp4885
Rp4886
(dp4887
g21
S'[)'
p4888
sbsS'CA_CALIBRATION_SCALE'
p4889
g4875
sS'CA_DESC'
p4890
Nstp4891
Rp4892
s(Visohexanes
p4893
VNPL
p4894
tp4895
g4
(g5
g6
(dp4896
S'CA_COMMENT'
p4897
NsS'CO_COMP_NAME'
p4898
g4893
sS'SYSTIME'
p4899
g4
(g11
g12
(lp4900
g14
(S'\x07\xde\x05\x01\x00\x00\x00\x00\x00\x00'
p4901
tp4902
Rp4903
aNatp4904
Rp4905
(dp4906
g21
S'[)'
p4907
sbsS'CA_CALIBRATION_SCALE'
p4908
g4894
sS'CA_DESC'
p4909
Nstp4910
Rp4911
s(V2-methyl-2-butene
p4912
VApel-Riemer
p4913
tp4914
g4
(g5
g6
(dp4915
S'CA_COMMENT'
p4916
NsS'CO_COMP_NAME'
p4917
g4912
sS'SYSTIME'
p4918
g4
(g11
g12
(lp4919
g14
(S'\x07\xe7\x02\x0f\x0e \x0b\x0ed\xb4'
p4920
tp4921
Rp4922
aNatp4923
Rp4924
(dp4925
g21
S'[)'
p4926
sbsS'CA_CALIBRATION_SCALE'
p4927
g4913
sS'CA_DESC'
p4928
Nstp4929
Rp4930
s(Vchloromethane
p4931
VSIO2005
p4932
tp4933
g4
(g5
g6
(dp4934
S'CA_COMMENT'
p4935
NsS'CO_COMP_NAME'
p4936
g4931
sS'SYSTIME'
p4937
g4
(g11
g12
(lp4938
g14
(S'\x07\xde\x05\x01\x00\x00\x00\x00\x00\x00'
p4939
tp4940
Rp4941
aNatp4942
Rp4943
(dp4944
g21
S'[)'
p4945
sbsS'CA_CALIBRATION_SCALE'
p4946
g4932
sS'CA_DESC'
p4947
Nstp4948
Rp4949
s(Vcyclo-pentane
p4950
VNPL
p4951
tp4952
g4
(g5
g6
(dp4953
S'CA_COMMENT'
p4954
NsS'CO_COMP_NAME'
p4955
g4950
sS'SYSTIME'
p4956
g4
(g11
g12
(lp4957
g14
(S'\x07\xde\x05\x01\x00\x00\x00\x00\x00\x00'
p4958
tp4959
Rp4960
aNatp4961
Rp4962
(dp4963
g21
S'[)'
p4964
sbsS'CA_CALIBRATION_SCALE'
p4965
g4951
sS'CA_DESC'
p4966
Nstp4967
Rp4968
s(Vn-butane
p4969
VApel Riemer
p4970
tp4971
g4
(g5
g6
(dp4972
S'CA_COMMENT'
p4973
NsS'CO_COMP_NAME'
p4974
g4969
sS'SYSTIME'
p4975
g4
(g11
g12
(lp4976
g14
(S'\x07\xe7\x02\x0f\x0e!6\x0f\x04g'
p4977
tp4978
Rp4979
aNatp4980
Rp4981
(dp4982
g21
S'[)'
p4983
sbsS'CA_CALIBRATION_SCALE'
p4984
g4970
sS'CA_DESC'
p4985
Nstp4986
Rp4987
s(Vethanal
p4988
VApel Riemer
p4989
tp4990
g4
(g5
g6
(dp4991
S'CA_COMMENT'
p4992
NsS'CO_COMP_NAME'
p4993
g4988
sS'SYSTIME'
p4994
g4
(g11
g12
(lp4995
g14
(S'\x07\xe7\x08\x1c\x0c\x0e\x08\x02!`'
p4996
tp4997
Rp4998
aNatp4999
Rp5000
(dp5001
g21
S'[)'
p5002
sbsS'CA_CALIBRATION_SCALE'
p5003
g4989
sS'CA_DESC'
p5004
Nstp5005
Rp5006
s(Vmass_93_organic_compounds
p5007
VNPL
p5008
tp5009
g4
(g5
g6
(dp5010
S'CA_COMMENT'
p5011
NsS'CO_COMP_NAME'
p5012
g5007
sS'SYSTIME'
p5013
g4
(g11
g12
(lp5014
g14
(S'\x07\xe9\x01\x1f\x07\x05\x1a\x0ci\x07'
p5015
tp5016
Rp5017
aNatp5018
Rp5019
(dp5020
g21
S'[)'
p5021
sbsS'CA_CALIBRATION_SCALE'
p5022
g5008
sS'CA_DESC'
p5023
Nstp5024
Rp5025
s(Vlimonene
p5026
VApel Riemer
p5027
tp5028
g4
(g5
g6
(dp5029
S'CA_COMMENT'
p5030
NsS'CO_COMP_NAME'
p5031
g5026
sS'SYSTIME'
p5032
g4
(g11
g12
(lp5033
g14
(S'\x07\xe7\x02\x0f\x0e!7\x05\x7f\xcc'
p5034
tp5035
Rp5036
aNatp5037
Rp5038
(dp5039
g21
S'[)'
p5040
sbsS'CA_CALIBRATION_SCALE'
p5041
g5027
sS'CA_DESC'
p5042
Nstp5043
Rp5044
s(Vmyrcene
p5045
VNPL
p5046
tp5047
g4
(g5
g6
(dp5048
S'CA_COMMENT'
p5049
NsS'CO_COMP_NAME'
p5050
g5045
sS'SYSTIME'
p5051
g4
(g11
g12
(lp5052
g14
(S'\x07\xde\x05\x01\x00\x00\x00\x00\x00\x00'
p5053
tp5054
Rp5055
aNatp5056
Rp5057
(dp5058
g21
S'[)'
p5059
sbsS'CA_CALIBRATION_SCALE'
p5060
g5046
sS'CA_DESC'
p5061
Nstp5062
Rp5063
s(Vmonoterpenes
p5064
VApel-Riemer
p5065
tp5066
g4
(g5
g6
(dp5067
S'CA_COMMENT'
p5068
NsS'CO_COMP_NAME'
p5069
g5064
sS'SYSTIME'
p5070
g4
(g11
g12
(lp5071
g14
(S'\x07\xe9\x06\x02\x0b\x0c4\x08\xd8\x83'
p5072
tp5073
Rp5074
aNatp5075
Rp5076
(dp5077
g21
S'[)'
p5078
sbsS'CA_CALIBRATION_SCALE'
p5079
g5065
sS'CA_DESC'
p5080
Nstp5081
Rp5082
s(Vpentanal
p5083
VApel-Riemer
p5084
tp5085
g4
(g5
g6
(dp5086
S'CA_COMMENT'
p5087
NsS'CO_COMP_NAME'
p5088
g5083
sS'SYSTIME'
p5089
g4
(g11
g12
(lp5090
g14
(S'\x07\xe7\x02\x0f\x0e \x0c\x02\xd6\xbd'
p5091
tp5092
Rp5093
aNatp5094
Rp5095
(dp5096
g21
S'[)'
p5097
sbsS'CA_CALIBRATION_SCALE'
p5098
g5084
sS'CA_DESC'
p5099
Nstp5100
Rp5101
s(Vethane
p5102
VSIO2005
p5103
tp5104
g4
(g5
g6
(dp5105
S'CA_COMMENT'
p5106
NsS'CO_COMP_NAME'
p5107
g5102
sS'SYSTIME'
p5108
g4
(g11
g12
(lp5109
g14
(S'\x07\xde\x05\x01\x00\x00\x00\x00\x00\x00'
p5110
tp5111
Rp5112
aNatp5113
Rp5114
(dp5115
g21
S'[)'
p5116
sbsS'CA_CALIBRATION_SCALE'
p5117
g5103
sS'CA_DESC'
p5118
Nstp5119
Rp5120
s(Vmethyl_tert_butyl_ether
p5121
VNPL
p5122
tp5123
g4
(g5
g6
(dp5124
S'CA_COMMENT'
p5125
NsS'CO_COMP_NAME'
p5126
g5121
sS'SYSTIME'
p5127
g4
(g11
g12
(lp5128
g14
(S'\x07\xe7\x06\x08\x0b\x05(\ts\x9c'
p5129
tp5130
Rp5131
aNatp5132
Rp5133
(dp5134
g21
S'[)'
p5135
sbsS'CA_CALIBRATION_SCALE'
p5136
g5122
sS'CA_DESC'
p5137
Nstp5138
Rp5139
s(VCFC-13
p5140
VSIO2005
p5141
tp5142
g4
(g5
g6
(dp5143
S'CA_COMMENT'
p5144
g1134
sS'CO_COMP_NAME'
p5145
g5140
sS'SYSTIME'
p5146
g4
(g11
g12
(lp5147
g14
(S'\x07\xe8\x04\x0f\x08%7\x0bI\x88'
p5148
tp5149
Rp5150
aNatp5151
Rp5152
(dp5153
g21
S'[)'
p5154
sbsS'CA_CALIBRATION_SCALE'
p5155
g5141
sS'CA_DESC'
p5156
Nstp5157
Rp5158
s(Vsabinene
p5159
VNPL
p5160
tp5161
g4
(g5
g6
(dp5162
S'CA_COMMENT'
p5163
NsS'CO_COMP_NAME'
p5164
g5159
sS'SYSTIME'
p5165
g4
(g11
g12
(lp5166
g14
(S'\x07\xde\x05\x01\x00\x00\x00\x00\x00\x00'
p5167
tp5168
Rp5169
aNatp5170
Rp5171
(dp5172
g21
S'[)'
p5173
sbsS'CA_CALIBRATION_SCALE'
p5174
g5160
sS'CA_DESC'
p5175
Nstp5176
Rp5177
s(Vbenzene
p5178
VSIO2005
p5179
tp5180
g4
(g5
g6
(dp5181
S'CA_COMMENT'
p5182
NsS'CO_COMP_NAME'
p5183
g5178
sS'SYSTIME'
p5184
g4
(g11
g12
(lp5185
g14
(S'\x07\xde\x05\x01\x00\x00\x00\x00\x00\x00'
p5186
tp5187
Rp5188
aNatp5189
Rp5190
(dp5191
g21
S'[)'
p5192
sbsS'CA_CALIBRATION_SCALE'
p5193
g5179
sS'CA_DESC'
p5194
Nstp5195
Rp5196
s(Vacrylonitrile
p5197
VApel-Riemer
p5198
tp5199
g4
(g5
g6
(dp5200
S'CA_COMMENT'
p5201
NsS'CO_COMP_NAME'
p5202
g5197
sS'SYSTIME'
p5203
g4
(g11
g12
(lp5204
g14
(S'\x07\xe9\x06\x02\x0b\x0c4\t\x00\x9f'
p5205
tp5206
Rp5207
aNatp5208
Rp5209
(dp5210
g21
S'[)'
p5211
sbsS'CA_CALIBRATION_SCALE'
p5212
g5198
sS'CA_DESC'
p5213
Nstp5214
Rp5215
s(Vn-hexadecane
p5216
VNPL
p5217
tp5218
g4
(g5
g6
(dp5219
S'CA_COMMENT'
p5220
NsS'CO_COMP_NAME'
p5221
g5216
sS'SYSTIME'
p5222
g4
(g11
g12
(lp5223
g14
(S'\x07\xde\x05\x01\x00\x00\x00\x00\x00\x00'
p5224
tp5225
Rp5226
aNatp5227
Rp5228
(dp5229
g21
S'[)'
p5230
sbsS'CA_CALIBRATION_SCALE'
p5231
g5217
sS'CA_DESC'
p5232
Nstp5233
Rp5234
s(Vn-heptane
p5235
VNPL
p5236
tp5237
g4
(g5
g6
(dp5238
S'CA_COMMENT'
p5239
NsS'CO_COMP_NAME'
p5240
g5235
sS'SYSTIME'
p5241
g4
(g11
g12
(lp5242
g14
(S'\x07\xde\x05\x01\x00\x00\x00\x00\x00\x00'
p5243
tp5244
Rp5245
aNatp5246
Rp5247
(dp5248
g21
S'[)'
p5249
sbsS'CA_CALIBRATION_SCALE'
p5250
g5236
sS'CA_DESC'
p5251
Nstp5252
Rp5253
s(Visoheptanes
p5254
VNPL
p5255
tp5256
g4
(g5
g6
(dp5257
S'CA_COMMENT'
p5258
NsS'CO_COMP_NAME'
p5259
g5254
sS'SYSTIME'
p5260
g4
(g11
g12
(lp5261
g14
(S'\x07\xde\x05\x01\x00\x00\x00\x00\x00\x00'
p5262
tp5263
Rp5264
aNatp5265
Rp5266
(dp5267
g21
S'[)'
p5268
sbsS'CA_CALIBRATION_SCALE'
p5269
g5255
sS'CA_DESC'
p5270
Nstp5271
Rp5272
s(Vn-undecanal
p5273
VNPL
p5274
tp5275
g4
(g5
g6
(dp5276
S'CA_COMMENT'
p5277
NsS'CO_COMP_NAME'
p5278
g5273
sS'SYSTIME'
p5279
g4
(g11
g12
(lp5280
g14
(S'\x07\xde\x05\x01\x00\x00\x00\x00\x00\x00'
p5281
tp5282
Rp5283
aNatp5284
Rp5285
(dp5286
g21
S'[)'
p5287
sbsS'CA_CALIBRATION_SCALE'
p5288
g5274
sS'CA_DESC'
p5289
Nstp5290
Rp5291
s(Vmethane
p5292
VWMO CH4 X2004
p5293
tp5294
g4
(g5
g6
(dp5295
S'CA_COMMENT'
p5296
NsS'CO_COMP_NAME'
p5297
g5292
sS'SYSTIME'
p5298
g4
(g11
g12
(lp5299
g14
(S'\x07\xde\x05\x01\x00\x00\x00\x00\x00\x00'
p5300
tp5301
Rp5302
aNatp5303
Rp5304
(dp5305
g21
S'[)'
p5306
sbsS'CA_CALIBRATION_SCALE'
p5307
g5293
sS'CA_DESC'
p5308
Nstp5309
Rp5310
s(Vtoluene
p5311
VSIO2005
p5312
tp5313
g4
(g5
g6
(dp5314
S'CA_COMMENT'
p5315
NsS'CO_COMP_NAME'
p5316
g5311
sS'SYSTIME'
p5317
g4
(g11
g12
(lp5318
g14
(S'\x07\xde\x05\x01\x00\x00\x00\x00\x00\x00'
p5319
tp5320
Rp5321
aNatp5322
Rp5323
(dp5324
g21
S'[)'
p5325
sbsS'CA_CALIBRATION_SCALE'
p5326
g5312
sS'CA_DESC'
p5327
Nstp5328
Rp5329
s(Vbutylacetat
p5330
VNPL
p5331
tp5332
g4
(g5
g6
(dp5333
S'CA_COMMENT'
p5334
NsS'CO_COMP_NAME'
p5335
g5330
sS'SYSTIME'
p5336
g4
(g11
g12
(lp5337
g14
(S'\x07\xde\x05\x01\x00\x00\x00\x00\x00\x00'
p5338
tp5339
Rp5340
aNatp5341
Rp5342
(dp5343
g21
S'[)'
p5344
sbsS'CA_CALIBRATION_SCALE'
p5345
g5331
sS'CA_DESC'
p5346
Nstp5347
Rp5348
s(Vmass_59_organic_compounds
p5349
VNPL
p5350
tp5351
g4
(g5
g6
(dp5352
S'CA_COMMENT'
p5353
NsS'CO_COMP_NAME'
p5354
g5349
sS'SYSTIME'
p5355
g4
(g11
g12
(lp5356
g14
(S'\x07\xe7\x05\t\x070)\x04\xd5\xdf'
p5357
tp5358
Rp5359
aNatp5360
Rp5361
(dp5362
g21
S'[)'
p5363
sbsS'CA_CALIBRATION_SCALE'
p5364
g5350
sS'CA_DESC'
p5365
Nstp5366
Rp5367
s(Vm-p-xylene
p5368
VApel Riemer
p5369
tp5370
g4
(g5
g6
(dp5371
S'CA_COMMENT'
p5372
NsS'CO_COMP_NAME'
p5373
g5368
sS'SYSTIME'
p5374
g4
(g11
g12
(lp5375
g14
(S'\x07\xe7\x02\x0f\x0e!7\x03\xc6\x0e'
p5376
tp5377
Rp5378
aNatp5379
Rp5380
(dp5381
g21
S'[)'
p5382
sbsS'CA_CALIBRATION_SCALE'
p5383
g5369
sS'CA_DESC'
p5384
Nstp5385
Rp5386
s(Vpropene
p5387
VApel Riemer
p5388
tp5389
g4
(g5
g6
(dp5390
S'CA_COMMENT'
p5391
NsS'CO_COMP_NAME'
p5392
g5387
sS'SYSTIME'
p5393
g4
(g11
g12
(lp5394
g14
(S'\x07\xe7\x02\x0f\x0e!6\x0en6'
p5395
tp5396
Rp5397
aNatp5398
Rp5399
(dp5400
g21
S'[)'
p5401
sbsS'CA_CALIBRATION_SCALE'
p5402
g5388
sS'CA_DESC'
p5403
Nstp5404
Rp5405
s(Valpha-thujene
p5406
VNPL
p5407
tp5408
g4
(g5
g6
(dp5409
S'CA_COMMENT'
p5410
NsS'CO_COMP_NAME'
p5411
g5406
sS'SYSTIME'
p5412
g4
(g11
g12
(lp5413
g14
(S'\x07\xde\x05\x01\x00\x00\x00\x00\x00\x00'
p5414
tp5415
Rp5416
aNatp5417
Rp5418
(dp5419
g21
S'[)'
p5420
sbsS'CA_CALIBRATION_SCALE'
p5421
g5407
sS'CA_DESC'
p5422
Nstp5423
Rp5424
s(Vm-xylene
p5425
VNPL
p5426
tp5427
g4
(g5
g6
(dp5428
S'CA_COMMENT'
p5429
NsS'CO_COMP_NAME'
p5430
g5425
sS'SYSTIME'
p5431
g4
(g11
g12
(lp5432
g14
(S'\x07\xe7\x08\x1c\x0c\t\x01\x0b\xd01'
p5433
tp5434
Rp5435
aNatp5436
Rp5437
(dp5438
g21
S'[)'
p5439
sbsS'CA_CALIBRATION_SCALE'
p5440
g5426
sS'CA_DESC'
p5441
Nstp5442
Rp5443
s(V2-methylbenzaldehyde
p5444
VNPL
p5445
tp5446
g4
(g5
g6
(dp5447
S'CA_COMMENT'
p5448
NsS'CO_COMP_NAME'
p5449
g5444
sS'SYSTIME'
p5450
g4
(g11
g12
(lp5451
g14
(S'\x07\xde\x05\x01\x00\x00\x00\x00\x00\x00'
p5452
tp5453
Rp5454
aNatp5455
Rp5456
(dp5457
g21
S'[)'
p5458
sbsS'CA_CALIBRATION_SCALE'
p5459
g5445
sS'CA_DESC'
p5460
Nstp5461
Rp5462
s(Vn-decanal
p5463
VNPL
p5464
tp5465
g4
(g5
g6
(dp5466
S'CA_COMMENT'
p5467
NsS'CO_COMP_NAME'
p5468
g5463
sS'SYSTIME'
p5469
g4
(g11
g12
(lp5470
g14
(S'\x07\xde\x05\x01\x00\x00\x00\x00\x00\x00'
p5471
tp5472
Rp5473
aNatp5474
Rp5475
(dp5476
g21
S'[)'
p5477
sbsS'CA_CALIBRATION_SCALE'
p5478
g5464
sS'CA_DESC'
p5479
Nstp5480
Rp5481
s(Vn-butane
p5482
VApel-Riemer
p5483
tp5484
g4
(g5
g6
(dp5485
S'CA_COMMENT'
p5486
NsS'CO_COMP_NAME'
p5487
g5482
sS'SYSTIME'
p5488
g4
(g11
g12
(lp5489
g14
(S'\x07\xe7\x02\x0f\x0e \x0b\x0c\xc7\xc7'
p5490
tp5491
Rp5492
aNatp5493
Rp5494
(dp5495
g21
S'[)'
p5496
sbsS'CA_CALIBRATION_SCALE'
p5497
g5483
sS'CA_DESC'
p5498
Nstp5499
Rp5500
s(V3-methylpentane
p5501
VApel Riemer
p5502
tp5503
g4
(g5
g6
(dp5504
S'CA_COMMENT'
p5505
NsS'CO_COMP_NAME'
p5506
g5501
sS'SYSTIME'
p5507
g4
(g11
g12
(lp5508
g14
(S'\x07\xe7\x02\x0f\x0e!7\x01\xc8K'
p5509
tp5510
Rp5511
aNatp5512
Rp5513
(dp5514
g21
S'[)'
p5515
sbsS'CA_CALIBRATION_SCALE'
p5516
g5502
sS'CA_DESC'
p5517
Nstp5518
Rp5519
s(Vpropene
p5520
VNPL
p5521
tp5522
g4
(g5
g6
(dp5523
S'CA_COMMENT'
p5524
NsS'CO_COMP_NAME'
p5525
g5520
sS'SYSTIME'
p5526
g4
(g11
g12
(lp5527
g14
(S'\x07\xde\x05\x01\x00\x00\x00\x00\x00\x00'
p5528
tp5529
Rp5530
aNatp5531
Rp5532
(dp5533
g21
S'[)'
p5534
sbsS'CA_CALIBRATION_SCALE'
p5535
g5521
sS'CA_DESC'
p5536
Nstp5537
Rp5538
s(V2-4-dimethylpentane
p5539
VApel-Riemer
p5540
tp5541
g4
(g5
g6
(dp5542
S'CA_COMMENT'
p5543
NsS'CO_COMP_NAME'
p5544
g5539
sS'SYSTIME'
p5545
g4
(g11
g12
(lp5546
g14
(S'\x07\xe7\x02\x0f\x0e \x0c\x01\x92\xab'
p5547
tp5548
Rp5549
aNatp5550
Rp5551
(dp5552
g21
S'[)'
p5553
sbsS'CA_CALIBRATION_SCALE'
p5554
g5540
sS'CA_DESC'
p5555
Nstp5556
Rp5557
s(Visoprene
p5558
VNPL
p5559
tp5560
g4
(g5
g6
(dp5561
S'CA_COMMENT'
p5562
NsS'CO_COMP_NAME'
p5563
g5558
sS'SYSTIME'
p5564
g4
(g11
g12
(lp5565
g14
(S'\x07\xde\x05\x01\x00\x00\x00\x00\x00\x00'
p5566
tp5567
Rp5568
aNatp5569
Rp5570
(dp5571
g21
S'[)'
p5572
sbsS'CA_CALIBRATION_SCALE'
p5573
g5559
sS'CA_DESC'
p5574
Nstp5575
Rp5576
s(VHFC-125
p5577
VSIO2014
p5578
tp5579
g4
(g5
g6
(dp5580
S'CA_COMMENT'
p5581
NsS'CO_COMP_NAME'
p5582
g5577
sS'SYSTIME'
p5583
g4
(g11
g12
(lp5584
g14
(S'\x07\xde\x05\x01\x00\x00\x00\x00\x00\x00'
p5585
tp5586
Rp5587
aNatp5588
Rp5589
(dp5590
g21
S'[)'
p5591
sbsS'CA_CALIBRATION_SCALE'
p5592
g5578
sS'CA_DESC'
p5593
Nstp5594
Rp5595
s(V2-methylbutane
p5596
VNPL
p5597
tp5598
g4
(g5
g6
(dp5599
S'CA_COMMENT'
p5600
NsS'CO_COMP_NAME'
p5601
g5596
sS'SYSTIME'
p5602
g4
(g11
g12
(lp5603
g14
(S'\x07\xde\x05\x01\x00\x00\x00\x00\x00\x00'
p5604
tp5605
Rp5606
aNatp5607
Rp5608
(dp5609
g21
S'[)'
p5610
sbsS'CA_CALIBRATION_SCALE'
p5611
g5597
sS'CA_DESC'
p5612
Nstp5613
Rp5614
s(Vmass_69_organic_compounds
p5615
VApel-Riemer
p5616
tp5617
g4
(g5
g6
(dp5618
S'CA_COMMENT'
p5619
NsS'CO_COMP_NAME'
p5620
g5615
sS'SYSTIME'
p5621
g4
(g11
g12
(lp5622
g14
(S'\x07\xe9\t\x0b\x0b\x17\x04\x02C\xe5'
p5623
tp5624
Rp5625
aNatp5626
Rp5627
(dp5628
g21
S'[)'
p5629
sbsS'CA_CALIBRATION_SCALE'
p5630
g5616
sS'CA_DESC'
p5631
Nstp5632
Rp5633
s(Vmonoterpenes
p5634
VNPL
p5635
tp5636
g4
(g5
g6
(dp5637
S'CA_COMMENT'
p5638
NsS'CO_COMP_NAME'
p5639
g5634
sS'SYSTIME'
p5640
g4
(g11
g12
(lp5641
g14
(S'\x07\xde\x05\x01\x00\x00\x00\x00\x00\x00'
p5642
tp5643
Rp5644
aNatp5645
Rp5646
(dp5647
g21
S'[)'
p5648
sbsS'CA_CALIBRATION_SCALE'
p5649
g5635
sS'CA_DESC'
p5650
Nstp5651
Rp5652
s(V2-2-dimethylbutane
p5653
VApel Riemer
p5654
tp5655
g4
(g5
g6
(dp5656
S'CA_COMMENT'
p5657
NsS'CO_COMP_NAME'
p5658
g5653
sS'SYSTIME'
p5659
g4
(g11
g12
(lp5660
g14
(S'\x07\xe7\x02\x0f\x0e!7\x00\xc7\x93'
p5661
tp5662
Rp5663
aNatp5664
Rp5665
(dp5666
g21
S'[)'
p5667
sbsS'CA_CALIBRATION_SCALE'
p5668
g5654
sS'CA_DESC'
p5669
Nstp5670
Rp5671
s(Vpropanone
p5672
VNPL
p5673
tp5674
g4
(g5
g6
(dp5675
S'CA_COMMENT'
p5676
NsS'CO_COMP_NAME'
p5677
g5672
sS'SYSTIME'
p5678
g4
(g11
g12
(lp5679
g14
(S'\x07\xde\x05\x01\x00\x00\x00\x00\x00\x00'
p5680
tp5681
Rp5682
aNatp5683
Rp5684
(dp5685
g21
S'[)'
p5686
sbsS'CA_CALIBRATION_SCALE'
p5687
g5673
sS'CA_DESC'
p5688
Nstp5689
Rp5690
s(VCFC-11
p5691
VSIO2005
p5692
tp5693
g4
(g5
g6
(dp5694
S'CA_COMMENT'
p5695
NsS'CO_COMP_NAME'
p5696
g5691
sS'SYSTIME'
p5697
g4
(g11
g12
(lp5698
g14
(S'\x07\xde\x05\x01\x00\x00\x00\x00\x00\x00'
p5699
tp5700
Rp5701
aNatp5702
Rp5703
(dp5704
g21
S'[)'
p5705
sbsS'CA_CALIBRATION_SCALE'
p5706
g5692
sS'CA_DESC'
p5707
Nstp5708
Rp5709
s(Vmass_71_organic_compounds
p5710
VApel-Riemer
p5711
tp5712
g4
(g5
g6
(dp5713
S'CA_COMMENT'
p5714
NsS'CO_COMP_NAME'
p5715
g5710
sS'SYSTIME'
p5716
g4
(g11
g12
(lp5717
g14
(S'\x07\xe9\x06\x02\x0b\x0c4\x08\xa3\x1f'
p5718
tp5719
Rp5720
aNatp5721
Rp5722
(dp5723
g21
S'[)'
p5724
sbsS'CA_CALIBRATION_SCALE'
p5725
g5711
sS'CA_DESC'
p5726
Nstp5727
Rp5728
s(Vn-nonane
p5729
VApel-Riemer
p5730
tp5731
g4
(g5
g6
(dp5732
S'CA_COMMENT'
p5733
NsS'CO_COMP_NAME'
p5734
g5729
sS'SYSTIME'
p5735
g4
(g11
g12
(lp5736
g14
(S'\x07\xe7\x02\x0f\x0e \x0c\x05\x9b\x0e'
p5737
tp5738
Rp5739
aNatp5740
Rp5741
(dp5742
g21
S'[)'
p5743
sbsS'CA_CALIBRATION_SCALE'
p5744
g5730
sS'CA_DESC'
p5745
Nstp5746
Rp5747
s(Valpha-pinene
p5748
VNPL
p5749
tp5750
g4
(g5
g6
(dp5751
S'CA_COMMENT'
p5752
NsS'CO_COMP_NAME'
p5753
g5748
sS'SYSTIME'
p5754
g4
(g11
g12
(lp5755
g14
(S'\x07\xde\x05\x01\x00\x00\x00\x00\x00\x00'
p5756
tp5757
Rp5758
aNatp5759
Rp5760
(dp5761
g21
S'[)'
p5762
sbsS'CA_CALIBRATION_SCALE'
p5763
g5749
sS'CA_DESC'
p5764
Nstp5765
Rp5766
s(Vmethyl_acetate
p5767
VNPL
p5768
tp5769
g4
(g5
g6
(dp5770
S'CA_COMMENT'
p5771
NsS'CO_COMP_NAME'
p5772
g5767
sS'SYSTIME'
p5773
g4
(g11
g12
(lp5774
g14
(S'\x07\xe9\x06\x02\x0b\x0c4\t\x1a3'
p5775
tp5776
Rp5777
aNatp5778
Rp5779
(dp5780
g21
S'[)'
p5781
sbsS'CA_CALIBRATION_SCALE'
p5782
g5768
sS'CA_DESC'
p5783
Nstp5784
Rp5785
s(Vdibromomethane
p5786
VNOAA-2004
p5787
tp5788
g4
(g5
g6
(dp5789
S'CA_COMMENT'
p5790
NsS'CO_COMP_NAME'
p5791
g5786
sS'SYSTIME'
p5792
g4
(g11
g12
(lp5793
g14
(S'\x07\xde\x05\x01\x00\x00\x00\x00\x00\x00'
p5794
tp5795
Rp5796
aNatp5797
Rp5798
(dp5799
g21
S'[)'
p5800
sbsS'CA_CALIBRATION_SCALE'
p5801
g5787
sS'CA_DESC'
p5802
Nstp5803
Rp5804
s(Vbenzaldehyde
p5805
VNPL
p5806
tp5807
g4
(g5
g6
(dp5808
S'CA_COMMENT'
p5809
NsS'CO_COMP_NAME'
p5810
g5805
sS'SYSTIME'
p5811
g4
(g11
g12
(lp5812
g14
(S'\x07\xde\x05\x01\x00\x00\x00\x00\x00\x00'
p5813
tp5814
Rp5815
aNatp5816
Rp5817
(dp5818
g21
S'[)'
p5819
sbsS'CA_CALIBRATION_SCALE'
p5820
g5806
sS'CA_DESC'
p5821
Nstp5822
Rp5823
s(Vbenzene
p5824
VSIO-p
p5825
tp5826
g4
(g5
g6
(dp5827
S'CA_COMMENT'
p5828
NsS'CO_COMP_NAME'
p5829
g5824
sS'SYSTIME'
p5830
g4
(g11
g12
(lp5831
g14
(S'\x07\xde\x05\x01\x00\x00\x00\x00\x00\x00'
p5832
tp5833
Rp5834
aNatp5835
Rp5836
(dp5837
g21
S'[)'
p5838
sbsS'CA_CALIBRATION_SCALE'
p5839
g5825
sS'CA_DESC'
p5840
Nstp5841
Rp5842
s(Vn-pentane
p5843
VNPL
p5844
tp5845
g4
(g5
g6
(dp5846
S'CA_COMMENT'
p5847
NsS'CO_COMP_NAME'
p5848
g5843
sS'SYSTIME'
p5849
g4
(g11
g12
(lp5850
g14
(S'\x07\xde\x05\x01\x00\x00\x00\x00\x00\x00'
p5851
tp5852
Rp5853
aNatp5854
Rp5855
(dp5856
g21
S'[)'
p5857
sbsS'CA_CALIBRATION_SCALE'
p5858
g5844
sS'CA_DESC'
p5859
Nstp5860
Rp5861
s(V2-propanol
p5862
VNPL
p5863
tp5864
g4
(g5
g6
(dp5865
S'CA_COMMENT'
p5866
NsS'CO_COMP_NAME'
p5867
g5862
sS'SYSTIME'
p5868
g4
(g11
g12
(lp5869
g14
(S'\x07\xde\x05\x01\x00\x00\x00\x00\x00\x00'
p5870
tp5871
Rp5872
aNatp5873
Rp5874
(dp5875
g21
S'[)'
p5876
sbsS'CA_CALIBRATION_SCALE'
p5877
g5863
sS'CA_DESC'
p5878
Nstp5879
Rp5880
s(Vpentenes
p5881
VNPL
p5882
tp5883
g4
(g5
g6
(dp5884
S'CA_COMMENT'
p5885
NsS'CO_COMP_NAME'
p5886
g5881
sS'SYSTIME'
p5887
g4
(g11
g12
(lp5888
g14
(S'\x07\xde\x05\x01\x00\x00\x00\x00\x00\x00'
p5889
tp5890
Rp5891
aNatp5892
Rp5893
(dp5894
g21
S'[)'
p5895
sbsS'CA_CALIBRATION_SCALE'
p5896
g5882
sS'CA_DESC'
p5897
Nstp5898
Rp5899
s(Vnaphthalene
p5900
VApel Riemer
p5901
tp5902
g4
(g5
g6
(dp5903
S'CA_COMMENT'
p5904
NsS'CO_COMP_NAME'
p5905
g5900
sS'SYSTIME'
p5906
g4
(g11
g12
(lp5907
g14
(S'\x07\xe7\x02\x0f\x0e!7\x05\xdf+'
p5908
tp5909
Rp5910
aNatp5911
Rp5912
(dp5913
g21
S'[)'
p5914
sbsS'CA_CALIBRATION_SCALE'
p5915
g5901
sS'CA_DESC'
p5916
Nstp5917
Rp5918
s(VHFC-134a
p5919
VSIO2005
p5920
tp5921
g4
(g5
g6
(dp5922
S'CA_COMMENT'
p5923
NsS'CO_COMP_NAME'
p5924
g5919
sS'SYSTIME'
p5925
g4
(g11
g12
(lp5926
g14
(S'\x07\xde\x05\x01\x00\x00\x00\x00\x00\x00'
p5927
tp5928
Rp5929
aNatp5930
Rp5931
(dp5932
g21
S'[)'
p5933
sbsS'CA_CALIBRATION_SCALE'
p5934
g5920
sS'CA_DESC'
p5935
Nstp5936
Rp5937
s(V3-buten-2-one
p5938
VApel-Riemer
p5939
tp5940
g4
(g5
g6
(dp5941
S'CA_COMMENT'
p5942
NsS'CO_COMP_NAME'
p5943
g5938
sS'SYSTIME'
p5944
g4
(g11
g12
(lp5945
g14
(S'\x07\xe7\x02\x0f\x0e \x0c\x00y\xb0'
p5946
tp5947
Rp5948
aNatp5949
Rp5950
(dp5951
g21
S'[)'
p5952
sbsS'CA_CALIBRATION_SCALE'
p5953
g5939
sS'CA_DESC'
p5954
Nstp5955
Rp5956
s(Vcarbon_monoxide
p5957
VWMO CO X2004
p5958
tp5959
g4
(g5
g6
(dp5960
S'CA_COMMENT'
p5961
NsS'CO_COMP_NAME'
p5962
g5957
sS'SYSTIME'
p5963
g4
(g11
g12
(lp5964
g14
(S'\x07\xde\x05\x01\x00\x00\x00\x00\x00\x00'
p5965
tp5966
Rp5967
aNatp5968
Rp5969
(dp5970
g21
S'[)'
p5971
sbsS'CA_CALIBRATION_SCALE'
p5972
g5958
sS'CA_DESC'
p5973
Nstp5974
Rp5975
s(Vmethyl-cyclohexane
p5976
VApel-Riemer
p5977
tp5978
g4
(g5
g6
(dp5979
S'CA_COMMENT'
p5980
NsS'CO_COMP_NAME'
p5981
g5976
sS'SYSTIME'
p5982
g4
(g11
g12
(lp5983
g14
(S'\x07\xe7\x02\x0f\x0e \x0c\x03tq'
p5984
tp5985
Rp5986
aNatp5987
Rp5988
(dp5989
g21
S'[)'
p5990
sbsS'CA_CALIBRATION_SCALE'
p5991
g5977
sS'CA_DESC'
p5992
Nstp5993
Rp5994
s(Vn-undecane
p5995
VApel-Riemer
p5996
tp5997
g4
(g5
g6
(dp5998
S'CA_COMMENT'
p5999
NsS'CO_COMP_NAME'
p6000
g5995
sS'SYSTIME'
p6001
g4
(g11
g12
(lp6002
g14
(S'\x07\xe7\x02\x0f\x0e \x0c\x08I\xd9'
p6003
tp6004
Rp6005
aNatp6006
Rp6007
(dp6008
g21
S'[)'
p6009
sbsS'CA_CALIBRATION_SCALE'
p6010
g5996
sS'CA_DESC'
p6011
Nstp6012
Rp6013
s(Vmass_47_organic_compounds
p6014
VNPL
p6015
tp6016
g4
(g5
g6
(dp6017
S'CA_COMMENT'
p6018
NsS'CO_COMP_NAME'
p6019
g6014
sS'SYSTIME'
p6020
g4
(g11
g12
(lp6021
g14
(S'\x07\xe9\x01\x1f\x07\x05\x1a\x0ci\x07'
p6022
tp6023
Rp6024
aNatp6025
Rp6026
(dp6027
g21
S'[)'
p6028
sbsS'CA_CALIBRATION_SCALE'
p6029
g6015
sS'CA_DESC'
p6030
Nstp6031
Rp6032
s(VHFC-143a
p6033
VSIO2007
p6034
tp6035
g4
(g5
g6
(dp6036
S'CA_COMMENT'
p6037
NsS'CO_COMP_NAME'
p6038
g6033
sS'SYSTIME'
p6039
g4
(g11
g12
(lp6040
g14
(S'\x07\xde\x05\x01\x00\x00\x00\x00\x00\x00'
p6041
tp6042
Rp6043
aNatp6044
Rp6045
(dp6046
g21
S'[)'
p6047
sbsS'CA_CALIBRATION_SCALE'
p6048
g6034
sS'CA_DESC'
p6049
Nstp6050
Rp6051
s(V2-2-dimethylbutane
p6052
VNPL
p6053
tp6054
g4
(g5
g6
(dp6055
S'CA_COMMENT'
p6056
NsS'CO_COMP_NAME'
p6057
g6052
sS'SYSTIME'
p6058
g4
(g11
g12
(lp6059
g14
(S'\x07\xde\x05\x01\x00\x00\x00\x00\x00\x00'
p6060
tp6061
Rp6062
aNatp6063
Rp6064
(dp6065
g21
S'[)'
p6066
sbsS'CA_CALIBRATION_SCALE'
p6067
g6053
sS'CA_DESC'
p6068
Nstp6069
Rp6070
s(Vbenzene
p6071
VApel-Riemer
p6072
tp6073
g4
(g5
g6
(dp6074
S'CA_COMMENT'
p6075
NsS'CO_COMP_NAME'
p6076
g6071
sS'SYSTIME'
p6077
g4
(g11
g12
(lp6078
g14
(S'\x07\xe7\x02\x0f\x0e \x0c\x01\xc7?'
p6079
tp6080
Rp6081
aNatp6082
Rp6083
(dp6084
g21
S'[)'
p6085
sbsS'CA_CALIBRATION_SCALE'
p6086
g6072
sS'CA_DESC'
p6087
Nstp6088
Rp6089
s(Vn-dodecane
p6090
VNPL
p6091
tp6092
g4
(g5
g6
(dp6093
S'CA_COMMENT'
p6094
NsS'CO_COMP_NAME'
p6095
g6090
sS'SYSTIME'
p6096
g4
(g11
g12
(lp6097
g14
(S'\x07\xde\x05\x01\x00\x00\x00\x00\x00\x00'
p6098
tp6099
Rp6100
aNatp6101
Rp6102
(dp6103
g21
S'[)'
p6104
sbsS'CA_CALIBRATION_SCALE'
p6105
g6091
sS'CA_DESC'
p6106
Nstp6107
Rp6108
s(Vdichloromethane
p6109
VSIO2014
p6110
tp6111
g4
(g5
g6
(dp6112
S'CA_COMMENT'
p6113
NsS'CO_COMP_NAME'
p6114
g6109
sS'SYSTIME'
p6115
g4
(g11
g12
(lp6116
g14
(S'\x07\xde\x05\x01\x00\x00\x00\x00\x00\x00'
p6117
tp6118
Rp6119
aNatp6120
Rp6121
(dp6122
g21
S'[)'
p6123
sbsS'CA_CALIBRATION_SCALE'
p6124
g6110
sS'CA_DESC'
p6125
Nstp6126
Rp6127
s(Vn-pentane
p6128
VApel-Riemer
p6129
tp6130
g4
(g5
g6
(dp6131
S'CA_COMMENT'
p6132
NsS'CO_COMP_NAME'
p6133
g6128
sS'SYSTIME'
p6134
g4
(g11
g12
(lp6135
g14
(S'\x07\xe7\x02\x0f\x0e \x0b\r\xee3'
p6136
tp6137
Rp6138
aNatp6139
Rp6140
(dp6141
g21
S'[)'
p6142
sbsS'CA_CALIBRATION_SCALE'
p6143
g6129
sS'CA_DESC'
p6144
Nstp6145
Rp6146
s(Vmass_93.070_organic_compounds
p6147
VNPL
p6148
tp6149
g4
(g5
g6
(dp6150
S'CA_COMMENT'
p6151
NsS'CO_COMP_NAME'
p6152
g6147
sS'SYSTIME'
p6153
g4
(g11
g12
(lp6154
g14
(S'\x07\xe9\x01\x1f\x07\x05\x1a\x0ci\x07'
p6155
tp6156
Rp6157
aNatp6158
Rp6159
(dp6160
g21
S'[)'
p6161
sbsS'CA_CALIBRATION_SCALE'
p6162
g6148
sS'CA_DESC'
p6163
Nstp6164
Rp6165
s(V2-methylpentane
p6166
VApel-Riemer
p6167
tp6168
g4
(g5
g6
(dp6169
S'CA_COMMENT'
p6170
NsS'CO_COMP_NAME'
p6171
g6166
sS'SYSTIME'
p6172
g4
(g11
g12
(lp6173
g14
(S'\x07\xe7\x02\x0f\x0e \x0c\x00Au'
p6174
tp6175
Rp6176
aNatp6177
Rp6178
(dp6179
g21
S'[)'
p6180
sbsS'CA_CALIBRATION_SCALE'
p6181
g6167
sS'CA_DESC'
p6182
Nstp6183
Rp6184
s(V2-propenal
p6185
VNPL
p6186
tp6187
g4
(g5
g6
(dp6188
S'CA_COMMENT'
p6189
NsS'CO_COMP_NAME'
p6190
g6185
sS'SYSTIME'
p6191
g4
(g11
g12
(lp6192
g14
(S'\x07\xde\x05\x01\x00\x00\x00\x00\x00\x00'
p6193
tp6194
Rp6195
aNatp6196
Rp6197
(dp6198
g21
S'[)'
p6199
sbsS'CA_CALIBRATION_SCALE'
p6200
g6186
sS'CA_DESC'
p6201
Nstp6202
Rp6203
s(Vmass_107.086_organic_compounds
p6204
VNPL
p6205
tp6206
g4
(g5
g6
(dp6207
S'CA_COMMENT'
p6208
NsS'CO_COMP_NAME'
p6209
g6204
sS'SYSTIME'
p6210
g4
(g11
g12
(lp6211
g14
(S'\x07\xe9\x01\x1f\x07\x05\x1a\x0ci\x07'
p6212
tp6213
Rp6214
aNatp6215
Rp6216
(dp6217
g21
S'[)'
p6218
sbsS'CA_CALIBRATION_SCALE'
p6219
g6205
sS'CA_DESC'
p6220
Nstp6221
Rp6222
s(Vcyclo-pentene
p6223
VNPL
p6224
tp6225
g4
(g5
g6
(dp6226
S'CA_COMMENT'
p6227
NsS'CO_COMP_NAME'
p6228
g6223
sS'SYSTIME'
p6229
g4
(g11
g12
(lp6230
g14
(S'\x07\xde\x05\x01\x00\x00\x00\x00\x00\x00'
p6231
tp6232
Rp6233
aNatp6234
Rp6235
(dp6236
g21
S'[)'
p6237
sbsS'CA_CALIBRATION_SCALE'
p6238
g6224
sS'CA_DESC'
p6239
Nstp6240
Rp6241
s(Vpropyne
p6242
VApel-Riemer
p6243
tp6244
g4
(g5
g6
(dp6245
S'CA_COMMENT'
p6246
NsS'CO_COMP_NAME'
p6247
g6242
sS'SYSTIME'
p6248
g4
(g11
g12
(lp6249
g14
(S'\x07\xe7\x02\x0f\x0e \x0b\x0cP\xfc'
p6250
tp6251
Rp6252
aNatp6253
Rp6254
(dp6255
g21
S'[)'
p6256
sbsS'CA_CALIBRATION_SCALE'
p6257
g6243
sS'CA_DESC'
p6258
Nstp6259
Rp6260
s(Vpropyne
p6261
VApel Riemer
p6262
tp6263
g4
(g5
g6
(dp6264
S'CA_COMMENT'
p6265
NsS'CO_COMP_NAME'
p6266
g6261
sS'SYSTIME'
p6267
g4
(g11
g12
(lp6268
g14
(S'\x07\xe7\x02\x0f\x0e!6\x0e\xc1\x1a'
p6269
tp6270
Rp6271
aNatp6272
Rp6273
(dp6274
g21
S'[)'
p6275
sbsS'CA_CALIBRATION_SCALE'
p6276
g6262
sS'CA_DESC'
p6277
Nstp6278
Rp6279
s(Vmass_73.065_organic_compounds
p6280
VApel-Riemer
p6281
tp6282
g4
(g5
g6
(dp6283
S'CA_COMMENT'
p6284
NsS'CO_COMP_NAME'
p6285
g6280
sS'SYSTIME'
p6286
g4
(g11
g12
(lp6287
g14
(S'\x07\xe9\x06\x02\x0b\x0c4\x08\xab\xa3'
p6288
tp6289
Rp6290
aNatp6291
Rp6292
(dp6293
g21
S'[)'
p6294
sbsS'CA_CALIBRATION_SCALE'
p6295
g6281
sS'CA_DESC'
p6296
Nstp6297
Rp6298
s(Vmethane
p6299
VNOAA04
p6300
tp6301
g4
(g5
g6
(dp6302
S'CA_COMMENT'
p6303
NsS'CO_COMP_NAME'
p6304
g6299
sS'SYSTIME'
p6305
g4
(g11
g12
(lp6306
g14
(S'\x07\xde\x05\x01\x00\x00\x00\x00\x00\x00'
p6307
tp6308
Rp6309
aNatp6310
Rp6311
(dp6312
g21
S'[)'
p6313
sbsS'CA_CALIBRATION_SCALE'
p6314
g6300
sS'CA_DESC'
p6315
Nstp6316
Rp6317
s(VC8-alkylbenzenes
p6318
VNPL
p6319
tp6320
g4
(g5
g6
(dp6321
S'CA_COMMENT'
p6322
NsS'CO_COMP_NAME'
p6323
g6318
sS'SYSTIME'
p6324
g4
(g11
g12
(lp6325
g14
(S'\x07\xde\x05\x01\x00\x00\x00\x00\x00\x00'
p6326
tp6327
Rp6328
aNatp6329
Rp6330
(dp6331
g21
S'[)'
p6332
sbsS'CA_CALIBRATION_SCALE'
p6333
g6319
sS'CA_DESC'
p6334
Nstp6335
Rp6336
s(Vgamma-terpinene
p6337
VNPL
p6338
tp6339
g4
(g5
g6
(dp6340
S'CA_COMMENT'
p6341
NsS'CO_COMP_NAME'
p6342
g6337
sS'SYSTIME'
p6343
g4
(g11
g12
(lp6344
g14
(S'\x07\xde\x05\x01\x00\x00\x00\x00\x00\x00'
p6345
tp6346
Rp6347
aNatp6348
Rp6349
(dp6350
g21
S'[)'
p6351
sbsS'CA_CALIBRATION_SCALE'
p6352
g6338
sS'CA_DESC'
p6353
Nstp6354
Rp6355
s(Vn-nonane
p6356
VApel Riemer
p6357
tp6358
g4
(g5
g6
(dp6359
S'CA_COMMENT'
p6360
NsS'CO_COMP_NAME'
p6361
g6356
sS'SYSTIME'
p6362
g4
(g11
g12
(lp6363
g14
(S'\x07\xe7\x02\x0f\x0e!7\x04\x1ak'
p6364
tp6365
Rp6366
aNatp6367
Rp6368
(dp6369
g21
S'[)'
p6370
sbsS'CA_CALIBRATION_SCALE'
p6371
g6357
sS'CA_DESC'
p6372
Nstp6373
Rp6374
s(Valpha-pinene
p6375
VApel Riemer
p6376
tp6377
g4
(g5
g6
(dp6378
S'CA_COMMENT'
p6379
NsS'CO_COMP_NAME'
p6380
g6375
sS'SYSTIME'
p6381
g4
(g11
g12
(lp6382
g14
(S'\x07\xe7\x02\x0f\x0e!7\x04V\x14'
p6383
tp6384
Rp6385
aNatp6386
Rp6387
(dp6388
g21
S'[)'
p6389
sbsS'CA_CALIBRATION_SCALE'
p6390
g6376
sS'CA_DESC'
p6391
Nstp6392
Rp6393
s(Vstyrene
p6394
VApel Riemer
p6395
tp6396
g4
(g5
g6
(dp6397
S'CA_COMMENT'
p6398
NsS'CO_COMP_NAME'
p6399
g6394
sS'SYSTIME'
p6400
g4
(g11
g12
(lp6401
g14
(S'\x07\xe7\x02\x0f\x0e!7\x03\xe1g'
p6402
tp6403
Rp6404
aNatp6405
Rp6406
(dp6407
g21
S'[)'
p6408
sbsS'CA_CALIBRATION_SCALE'
p6409
g6395
sS'CA_DESC'
p6410
Nstp6411
Rp6412
s(Vmass_69_organic_compounds
p6413
VNPL
p6414
tp6415
g4
(g5
g6
(dp6416
S'CA_COMMENT'
p6417
NsS'CO_COMP_NAME'
p6418
g6413
sS'SYSTIME'
p6419
g4
(g11
g12
(lp6420
g14
(S'\x07\xe7\x05\t\x070)\x05\x1b\x06'
p6421
tp6422
Rp6423
aNatp6424
Rp6425
(dp6426
g21
S'[)'
p6427
sbsS'CA_CALIBRATION_SCALE'
p6428
g6414
sS'CA_DESC'
p6429
Nstp6430
Rp6431
s(Vp-xylene
p6432
VNPL
p6433
tp6434
g4
(g5
g6
(dp6435
S'CA_COMMENT'
p6436
NsS'CO_COMP_NAME'
p6437
g6432
sS'SYSTIME'
p6438
g4
(g11
g12
(lp6439
g14
(S'\x07\xe7\x08\x1c\x0c\x08\x04\r\x98\xcf'
p6440
tp6441
Rp6442
aNatp6443
Rp6444
(dp6445
g21
S'[)'
p6446
sbsS'CA_CALIBRATION_SCALE'
p6447
g6433
sS'CA_DESC'
p6448
Nstp6449
Rp6450
s(VHFC-32
p6451
VSIO2007
p6452
tp6453
g4
(g5
g6
(dp6454
S'CA_COMMENT'
p6455
NsS'CO_COMP_NAME'
p6456
g6451
sS'SYSTIME'
p6457
g4
(g11
g12
(lp6458
g14
(S'\x07\xde\x05\x01\x00\x00\x00\x00\x00\x00'
p6459
tp6460
Rp6461
aNatp6462
Rp6463
(dp6464
g21
S'[)'
p6465
sbsS'CA_CALIBRATION_SCALE'
p6466
g6452
sS'CA_DESC'
p6467
Nstp6468
Rp6469
s(V2-4-dimethylpentane
p6470
VNPL
p6471
tp6472
g4
(g5
g6
(dp6473
S'CA_COMMENT'
p6474
NsS'CO_COMP_NAME'
p6475
g6470
sS'SYSTIME'
p6476
g4
(g11
g12
(lp6477
g14
(S'\x07\xde\x05\x01\x00\x00\x00\x00\x00\x00'
p6478
tp6479
Rp6480
aNatp6481
Rp6482
(dp6483
g21
S'[)'
p6484
sbsS'CA_CALIBRATION_SCALE'
p6485
g6471
sS'CA_DESC'
p6486
Nstp6487
Rp6488
s(Vchlorobenzene
p6489
VNPL
p6490
tp6491
g4
(g5
g6
(dp6492
S'CA_COMMENT'
p6493
NsS'CO_COMP_NAME'
p6494
g6489
sS'SYSTIME'
p6495
g4
(g11
g12
(lp6496
g14
(S'\x07\xde\x05\x01\x00\x00\x00\x00\x00\x00'
p6497
tp6498
Rp6499
aNatp6500
Rp6501
(dp6502
g21
S'[)'
p6503
sbsS'CA_CALIBRATION_SCALE'
p6504
g6490
sS'CA_DESC'
p6505
Nstp6506
Rp6507
s(Vcis-2-pentene
p6508
VNPL
p6509
tp6510
g4
(g5
g6
(dp6511
S'CA_COMMENT'
p6512
NsS'CO_COMP_NAME'
p6513
g6508
sS'SYSTIME'
p6514
g4
(g11
g12
(lp6515
g14
(S'\x07\xde\x05\x01\x00\x00\x00\x00\x00\x00'
p6516
tp6517
Rp6518
aNatp6519
Rp6520
(dp6521
g21
S'[)'
p6522
sbsS'CA_CALIBRATION_SCALE'
p6523
g6509
sS'CA_DESC'
p6524
Nstp6525
Rp6526
s(Vmethanal
p6527
VApel-Riemer
p6528
tp6529
g4
(g5
g6
(dp6530
S'CA_COMMENT'
p6531
NsS'CO_COMP_NAME'
p6532
g6527
sS'SYSTIME'
p6533
g4
(g11
g12
(lp6534
g14
(S'\x07\xe9\t\x0b\x0b\x17\x04\x02C\xe5'
p6535
tp6536
Rp6537
aNatp6538
Rp6539
(dp6540
g21
S'[)'
p6541
sbsS'CA_CALIBRATION_SCALE'
p6542
g6528
sS'CA_DESC'
p6543
Nstp6544
Rp6545
s(Vo-xylene
p6546
VApel-Riemer
p6547
tp6548
g4
(g5
g6
(dp6549
S'CA_COMMENT'
p6550
NsS'CO_COMP_NAME'
p6551
g6546
sS'SYSTIME'
p6552
g4
(g11
g12
(lp6553
g14
(S'\x07\xe7\x02\x0f\x0e \x0c\x05aK'
p6554
tp6555
Rp6556
aNatp6557
Rp6558
(dp6559
g21
S'[)'
p6560
sbsS'CA_CALIBRATION_SCALE'
p6561
g6547
sS'CA_DESC'
p6562
Nstp6563
Rp6564
s(Vmass_57.033_organic_compounds
p6565
VNPL
p6566
tp6567
g4
(g5
g6
(dp6568
S'CA_COMMENT'
p6569
NsS'CO_COMP_NAME'
p6570
g6565
sS'SYSTIME'
p6571
g4
(g11
g12
(lp6572
g14
(S'\x07\xe9\x01\x1f\x07\x05\x1a\x0ci\x07'
p6573
tp6574
Rp6575
aNatp6576
Rp6577
(dp6578
g21
S'[)'
p6579
sbsS'CA_CALIBRATION_SCALE'
p6580
g6566
sS'CA_DESC'
p6581
Nstp6582
Rp6583
s(Vethene
p6584
VApel Riemer
p6585
tp6586
g4
(g5
g6
(dp6587
S'CA_COMMENT'
p6588
NsS'CO_COMP_NAME'
p6589
g6584
sS'SYSTIME'
p6590
g4
(g11
g12
(lp6591
g14
(S'\x07\xe7\x02\x0f\x0e!6\r\xf6\x9a'
p6592
tp6593
Rp6594
aNatp6595
Rp6596
(dp6597
g21
S'[)'
p6598
sbsS'CA_CALIBRATION_SCALE'
p6599
g6585
sS'CA_DESC'
p6600
Nstp6601
Rp6602
s(Vmass_107_organic_compounds
p6603
VNPL
p6604
tp6605
g4
(g5
g6
(dp6606
S'CA_COMMENT'
p6607
NsS'CO_COMP_NAME'
p6608
g6603
sS'SYSTIME'
p6609
g4
(g11
g12
(lp6610
g14
(S'\x07\xe7\x05\t\x070)\x05P\x8f'
p6611
tp6612
Rp6613
aNatp6614
Rp6615
(dp6616
g21
S'[)'
p6617
sbsS'CA_CALIBRATION_SCALE'
p6618
g6604
sS'CA_DESC'
p6619
Nstp6620
Rp6621
s(V1-2-3-trimethylbenzene
p6622
VApel-Riemer
p6623
tp6624
g4
(g5
g6
(dp6625
S'CA_COMMENT'
p6626
NsS'CO_COMP_NAME'
p6627
g6622
sS'SYSTIME'
p6628
g4
(g11
g12
(lp6629
g14
(S'\x07\xe7\x02\x0f\x0e \x0c\x07\xd7{'
p6630
tp6631
Rp6632
aNatp6633
Rp6634
(dp6635
g21
S'[)'
p6636
sbsS'CA_CALIBRATION_SCALE'
p6637
g6623
sS'CA_DESC'
p6638
Nstp6639
Rp6640
s(Vn-decane
p6641
VApel-Riemer
p6642
tp6643
g4
(g5
g6
(dp6644
S'CA_COMMENT'
p6645
NsS'CO_COMP_NAME'
p6646
g6641
sS'SYSTIME'
p6647
g4
(g11
g12
(lp6648
g14
(S'\x07\xe7\x02\x0f\x0e \x0c\x07]%'
p6649
tp6650
Rp6651
aNatp6652
Rp6653
(dp6654
g21
S'[)'
p6655
sbsS'CA_CALIBRATION_SCALE'
p6656
g6642
sS'CA_DESC'
p6657
Nstp6658
Rp6659
s(Vmass_93.091_organic_compounds
p6660
VNPL
p6661
tp6662
g4
(g5
g6
(dp6663
S'CA_COMMENT'
p6664
NsS'CO_COMP_NAME'
p6665
g6660
sS'SYSTIME'
p6666
g4
(g11
g12
(lp6667
g14
(S'\x07\xe9\x01\x1f\x07\x05\x1a\x0ci\x07'
p6668
tp6669
Rp6670
aNatp6671
Rp6672
(dp6673
g21
S'[)'
p6674
sbsS'CA_CALIBRATION_SCALE'
p6675
g6661
sS'CA_DESC'
p6676
Nstp6677
Rp6678
s(Vn-heptane
p6679
VApel-Riemer
p6680
tp6681
g4
(g5
g6
(dp6682
S'CA_COMMENT'
p6683
NsS'CO_COMP_NAME'
p6684
g6679
sS'SYSTIME'
p6685
g4
(g11
g12
(lp6686
g14
(S'\x07\xe7\x02\x0f\x0e \x0c\x03?I'
p6687
tp6688
Rp6689
aNatp6690
Rp6691
(dp6692
g21
S'[)'
p6693
sbsS'CA_CALIBRATION_SCALE'
p6694
g6680
sS'CA_DESC'
p6695
Nstp6696
Rp6697
s(V1-ethyl-3-methylbenzene
p6698
VNPL
p6699
tp6700
g4
(g5
g6
(dp6701
S'CA_COMMENT'
p6702
NsS'CO_COMP_NAME'
p6703
g6698
sS'SYSTIME'
p6704
g4
(g11
g12
(lp6705
g14
(S'\x07\xde\x05\x01\x00\x00\x00\x00\x00\x00'
p6706
tp6707
Rp6708
aNatp6709
Rp6710
(dp6711
g21
S'[)'
p6712
sbsS'CA_CALIBRATION_SCALE'
p6713
g6699
sS'CA_DESC'
p6714
Nstp6715
Rp6716
s(Vethane
p6717
VSIO-p
p6718
tp6719
g4
(g5
g6
(dp6720
S'CA_COMMENT'
p6721
NsS'CO_COMP_NAME'
p6722
g6717
sS'SYSTIME'
p6723
g4
(g11
g12
(lp6724
g14
(S'\x07\xde\x05\x01\x00\x00\x00\x00\x00\x00'
p6725
tp6726
Rp6727
aNatp6728
Rp6729
(dp6730
g21
S'[)'
p6731
sbsS'CA_CALIBRATION_SCALE'
p6732
g6718
sS'CA_DESC'
p6733
Nstp6734
Rp6735
s(V1-pentene
p6736
VNPL
p6737
tp6738
g4
(g5
g6
(dp6739
S'CA_COMMENT'
p6740
NsS'CO_COMP_NAME'
p6741
g6736
sS'SYSTIME'
p6742
g4
(g11
g12
(lp6743
g14
(S'\x07\xde\x05\x01\x00\x00\x00\x00\x00\x00'
p6744
tp6745
Rp6746
aNatp6747
Rp6748
(dp6749
g21
S'[)'
p6750
sbsS'CA_CALIBRATION_SCALE'
p6751
g6737
sS'CA_DESC'
p6752
Nstp6753
Rp6754
s(Vbutanales
p6755
VNPL
p6756
tp6757
g4
(g5
g6
(dp6758
S'CA_COMMENT'
p6759
NsS'CO_COMP_NAME'
p6760
g6755
sS'SYSTIME'
p6761
g4
(g11
g12
(lp6762
g14
(S'\x07\xde\x05\x01\x00\x00\x00\x00\x00\x00'
p6763
tp6764
Rp6765
aNatp6766
Rp6767
(dp6768
g21
S'[)'
p6769
sbsS'CA_CALIBRATION_SCALE'
p6770
g6756
sS'CA_DESC'
p6771
Nstp6772
Rp6773
s(Vbromoform
p6774
VNOAA-2003
p6775
tp6776
g4
(g5
g6
(dp6777
S'CA_COMMENT'
p6778
NsS'CO_COMP_NAME'
p6779
g6774
sS'SYSTIME'
p6780
g4
(g11
g12
(lp6781
g14
(S'\x07\xde\x05\x01\x00\x00\x00\x00\x00\x00'
p6782
tp6783
Rp6784
aNatp6785
Rp6786
(dp6787
g21
S'[)'
p6788
sbsS'CA_CALIBRATION_SCALE'
p6789
g6775
sS'CA_DESC'
p6790
Nstp6791
Rp6792
s(Vcyclo-hexane
p6793
VApel Riemer
p6794
tp6795
g4
(g5
g6
(dp6796
S'CA_COMMENT'
p6797
NsS'CO_COMP_NAME'
p6798
g6793
sS'SYSTIME'
p6799
g4
(g11
g12
(lp6800
g14
(S'\x07\xe7\x02\x0f\x0e!7\x02G\xd7'
p6801
tp6802
Rp6803
aNatp6804
Rp6805
(dp6806
g21
S'[)'
p6807
sbsS'CA_CALIBRATION_SCALE'
p6808
g6794
sS'CA_DESC'
p6809
Nstp6810
Rp6811
s(Vhexanal
p6812
VApel-Riemer
p6813
tp6814
g4
(g5
g6
(dp6815
S'CA_COMMENT'
p6816
NsS'CO_COMP_NAME'
p6817
g6812
sS'SYSTIME'
p6818
g4
(g11
g12
(lp6819
g14
(S'\x07\xe7\x02\x0f\x0e \x0c\x040a'
p6820
tp6821
Rp6822
aNatp6823
Rp6824
(dp6825
g21
S'[)'
p6826
sbsS'CA_CALIBRATION_SCALE'
p6827
g6813
sS'CA_DESC'
p6828
Nstp6829
Rp6830
s(Vn-octane
p6831
VApel Riemer
p6832
tp6833
g4
(g5
g6
(dp6834
S'CA_COMMENT'
p6835
NsS'CO_COMP_NAME'
p6836
g6831
sS'SYSTIME'
p6837
g4
(g11
g12
(lp6838
g14
(S'\x07\xe7\x02\x0f\x0e!7\x03\x88t'
p6839
tp6840
Rp6841
aNatp6842
Rp6843
(dp6844
g21
S'[)'
p6845
sbsS'CA_CALIBRATION_SCALE'
p6846
g6832
sS'CA_DESC'
p6847
Nstp6848
Rp6849
s(V1-2-3-trimethylbenzene
p6850
VNPL
p6851
tp6852
g4
(g5
g6
(dp6853
S'CA_COMMENT'
p6854
NsS'CO_COMP_NAME'
p6855
g6850
sS'SYSTIME'
p6856
g4
(g11
g12
(lp6857
g14
(S'\x07\xde\x05\x01\x00\x00\x00\x00\x00\x00'
p6858
tp6859
Rp6860
aNatp6861
Rp6862
(dp6863
g21
S'[)'
p6864
sbsS'CA_CALIBRATION_SCALE'
p6865
g6851
sS'CA_DESC'
p6866
Nstp6867
Rp6868
s.