(dp0
V1
p1
ccopy_reg
_reconstructor
p2
(cnilutility.datatypes
DataObject
p3
c__builtin__
dict
p4
(dp5
S'DL_COMMENT'
p6
NsS'DL_DATA_LEVEL'
p7
g1
sS'SYSTIME'
p8
g2
(cnilutility.datetime_helper
DatetimeInterval
p9
c__builtin__
list
p10
(lp11
cdatetime
datetime
p12
(S'\x07\xde\x05\x01\x00\x00\x00\x00\x00\x00'
p13
tp14
Rp15
aNatp16
Rp17
(dp18
S'bounds'
p19
S'[)'
p20
sbsS'DL_NAME'
p21
Vphysical parameters
p22
sS'DL_DESC'
p23
VData processed to physical parameters. Same time resolution as level 0. This data level is generally not meant for long term preservation in ebas and is mostly used for near realtime processing dataflow through EBAS.
p24
stp25
Rp26
sV1.5
p27
g2
(g3
g4
(dp28
S'DL_COMMENT'
p29
NsS'DL_DATA_LEVEL'
p30
g27
sS'SYSTIME'
p31
g2
(g9
g10
(lp32
g12
(S'\x07\xde\x05\x01\x00\x00\x00\x00\x00\x00'
p33
tp34
Rp35
aNatp36
Rp37
(dp38
g19
S'[)'
p39
sbsS'DL_NAME'
p40
Vprocessed, no manual QA
p41
sS'DL_DESC'
p42
VData processed to physical parameters, aggregated to hourly averages, info on atmospheric variability included. This format is the result of automated (unattended) near-real-time data processing. Not quality assured by human inspection.
p43
stp44
Rp45
sV0.5
p46
g2
(g3
g4
(dp47
S'DL_COMMENT'
p48
NsS'DL_DATA_LEVEL'
p49
g46
sS'SYSTIME'
p50
g2
(g9
g10
(lp51
g12
(S'\x07\xde\x05\x01\x00\x00\x00\x00\x00\x00'
p52
tp53
Rp54
aNatp55
Rp56
(dp57
g19
S'[)'
p58
sbsS'DL_NAME'
p59
Vraw instrument data, flagged
p60
sS'DL_DESC'
p61
VRaw data as they come out of the instrument. Original time resolution (native to instrument). Flag information included. This data level is generally not meant for long term preservation in ebas and is mostly used for near realtime processing through EBAS
p62
stp63
Rp64
sV1b
p65
g2
(g3
g4
(dp66
S'DL_COMMENT'
p67
NsS'DL_DATA_LEVEL'
p68
g65
sS'SYSTIME'
p69
g2
(g9
g10
(lp70
g12
(S'\x07\xe9\x08\x12\x10(%\no\x8e'
p71
tp72
Rp73
aNatp74
Rp75
(dp76
g19
S'[)'
p77
sbsS'DL_NAME'
p78
Vphysical parameters, automatic QA
p79
sS'DL_DESC'
p80
VData processed to physical parameters. Same time resolution as level 0. This data level is generally not meant for long term preservation in ebas and is mostly used for near realtime processing dataflow through EBAS. No manual QA applied
p81
stp82
Rp83
sV0b
p84
g2
(g3
g4
(dp85
S'DL_COMMENT'
p86
NsS'DL_DATA_LEVEL'
p87
g84
sS'SYSTIME'
p88
g2
(g9
g10
(lp89
g12
(S'\x07\xde\x05\x01\x00\x00\x00\x00\x00\x00'
p90
tp91
Rp92
aNatp93
Rp94
(dp95
g19
S'[)'
p96
sbsS'DL_NAME'
p97
Vraw instrument data, automatically flagg
p98
sS'DL_DESC'
p99
VRaw data as they come out of the instrument. Original time resolution (native to instrument). Automatic flag information included.
p100
stp101
Rp102
sV0
p103
g2
(g3
g4
(dp104
S'DL_COMMENT'
p105
NsS'DL_DATA_LEVEL'
p106
g103
sS'SYSTIME'
p107
g2
(g9
g10
(lp108
g12
(S'\x07\xde\x05\x01\x00\x00\x00\x00\x00\x00'
p109
tp110
Rp111
aNatp112
Rp113
(dp114
g19
S'[)'
p115
sbsS'DL_NAME'
p116
Vraw instrument data
p117
sS'DL_DESC'
p118
VRaw data as they come out of the instrument. Original time resolution (native to instrument). This data level is generally not meant for long term preservation in ebas and is mostly used for near realtime processing dataflow through EBAS.
p119
stp120
Rp121
sV0a
p122
g2
(g3
g4
(dp123
S'DL_COMMENT'
p124
NsS'DL_DATA_LEVEL'
p125
g122
sS'SYSTIME'
p126
g2
(g9
g10
(lp127
g12
(S'\x07\xde\x05\x01\x00\x00\x00\x00\x00\x00'
p128
tp129
Rp130
aNatp131
Rp132
(dp133
g19
S'[)'
p134
sbsS'DL_NAME'
p135
Vraw instrument data, manually flagged
p136
sS'DL_DESC'
p137
VRaw data as they come out of the instrument. Original time resolution (native to instrument). Manual flag information included.
p138
stp139
Rp140
sV2a
p141
g2
(g3
g4
(dp142
S'DL_COMMENT'
p143
NsS'DL_DATA_LEVEL'
p144
g141
sS'SYSTIME'
p145
g2
(g9
g10
(lp146
g12
(S'\x07\xe9\x08\x12\x10..\t\xf5\xf2'
p147
tp148
Rp149
aNatp150
Rp151
(dp152
g19
S'[)'
p153
sbsS'DL_NAME'
p154
Vfinal, manual QA
p155
sS'DL_DESC'
p156
VPhysical parameters, aggregated (if needed), info on variability recommended, quality assured by human inspection. This is the typical EBAS data level meant for dissemination and long term preservation. Same as data level 2
p157
stp158
Rp159
sV2b
p160
g2
(g3
g4
(dp161
S'DL_COMMENT'
p162
NsS'DL_DATA_LEVEL'
p163
g160
sS'SYSTIME'
p164
g2
(g9
g10
(lp165
g12
(S'\x07\xe9\x08\x12\x10..\t\xf5\xf2'
p166
tp167
Rp168
aNatp169
Rp170
(dp171
g19
S'[)'
p172
sbsS'DL_NAME'
p173
Vprocessed, no manual QA
p174
sS'DL_DESC'
p175
VData processed to physical parameters, aggregated to hourly averages, info on atmospheric variability included. This format is the result of automated (unattended) near-real-time data processing. Not quality assured by human inspection. Same as data level 1.5
p176
stp177
Rp178
sV3b
p179
g2
(g3
g4
(dp180
S'DL_COMMENT'
p181
NsS'DL_DATA_LEVEL'
p182
g179
sS'SYSTIME'
p183
g2
(g9
g10
(lp184
g12
(S'\x07\xde\x05\x01\x00\x00\x00\x00\x00\x00'
p185
tp186
Rp187
aNatp188
Rp189
(dp190
g19
S'[)'
p191
sbsS'DL_NAME'
p192
Vderived nrt
p193
sS'DL_DESC'
p194
VData product generated from NRT data of one or several instruments
p195
stp196
Rp197
sV2
p198
g2
(g3
g4
(dp199
S'DL_COMMENT'
p200
NsS'DL_DATA_LEVEL'
p201
g198
sS'SYSTIME'
p202
g2
(g9
g10
(lp203
g12
(S'\x07\xde\x05\x01\x00\x00\x00\x00\x00\x00'
p204
tp205
Rp206
aNatp207
Rp208
(dp209
g19
S'[)'
p210
sbsS'DL_NAME'
p211
Vfinal
p212
sS'DL_DESC'
p213
VPhysical parameters, aggregated (if needed), info on variability recommended, quality assured by human inspection. This is the typical EBAS data level meant for dissemination and long term preservation.
p214
stp215
Rp216
sV3a
p217
g2
(g3
g4
(dp218
S'DL_COMMENT'
p219
NsS'DL_DATA_LEVEL'
p220
g217
sS'SYSTIME'
p221
g2
(g9
g10
(lp222
g12
(S'\x07\xde\x05\x01\x00\x00\x00\x00\x00\x00'
p223
tp224
Rp225
aNatp226
Rp227
(dp228
g19
S'[)'
p229
sbsS'DL_NAME'
p230
Vderived
p231
sS'DL_DESC'
p232
VData product generated from lower data levels of one or several instruments. Otherwise like level 2.
p233
stp234
Rp235
sV1a
p236
g2
(g3
g4
(dp237
S'DL_COMMENT'
p238
NsS'DL_DATA_LEVEL'
p239
g236
sS'SYSTIME'
p240
g2
(g9
g10
(lp241
g12
(S'\x07\xe9\x08\x12\x10(%\no\x8e'
p242
tp243
Rp244
aNatp245
Rp246
(dp247
g19
S'[)'
p248
sbsS'DL_NAME'
p249
Vphysical parameters, manual QA
p250
sS'DL_DESC'
p251
VData processed to physical parameters. Same time resolution as level 0. This data level is generally not meant for long term preservation in ebas and is mostly used for processing dataflow through EBAS. Manual QA applied
p252
stp253
Rp254
s.