(dp0
(Vhigh_vol_sampler
p1
VMCV
p2
VCAV-A/mb
p3
tp4
ccopy_reg
_reconstructor
p5
(cnilutility.datatypes
DataObject
p6
c__builtin__
dict
p7
(dp8
S'FM_MODEL'
p9
g3
sS'FT_TYPE'
p10
g1
sS'FM_MANUFACTURER'
p11
g2
stp12
Rp13
s(Vfilter_absorption_photometer
p14
VMagee
p15
VAE33
p16
tp17
g5
(g6
g7
(dp18
S'FM_MODEL'
p19
g16
sS'FT_TYPE'
p20
g14
sS'FM_MANUFACTURER'
p21
g15
stp22
Rp23
s(Vtdmps
p24
VTROPOS
p25
VTROPOS-TDMPS
p26
tp27
g5
(g6
g7
(dp28
S'FM_MODEL'
p29
g26
sS'FT_TYPE'
p30
g24
sS'FM_MANUFACTURER'
p31
g25
stp32
Rp33
s(Vcpc
p34
VGE
p35
VRich
p36
tp37
g5
(g6
g7
(dp38
S'FM_MODEL'
p39
g36
sS'FT_TYPE'
p40
g34
sS'FM_MANUFACTURER'
p41
g35
stp42
Rp43
s(Vonline_crds
p44
VPicarro
p45
VG5310
p46
tp47
g5
(g6
g7
(dp48
S'FM_MODEL'
p49
g46
sS'FT_TYPE'
p50
g44
sS'FM_MANUFACTURER'
p51
g45
stp52
Rp53
s(Vaerosol_mass_spectrometer
p54
VAerodyne
p55
VHR-ToF-AMS
p56
tp57
g5
(g6
g7
(dp58
S'FM_MODEL'
p59
g56
sS'FT_TYPE'
p60
g54
sS'FM_MANUFACTURER'
p61
g55
stp62
Rp63
s(Vchemiluminescence_molybdenum+thermal
p64
VEnvea
p65
VAC32e
p66
tp67
g5
(g6
g7
(dp68
S'FM_MODEL'
p69
g66
sS'FT_TYPE'
p70
g64
sS'FM_MANUFACTURER'
p71
g65
stp72
Rp73
s(VPTR-MS
p74
VIonicon Analytik
p75
VPTR-TOF 1000 ultra
p76
tp77
g5
(g6
g7
(dp78
S'FM_MODEL'
p79
g76
sS'FT_TYPE'
p80
g74
sS'FM_MANUFACTURER'
p81
g75
stp82
Rp83
s(Vonline_thermal-optical_analysis
p84
VAEROSOL MAGEE SCIENTIFIC
p85
VTotal Carbon Analyzer Model TCA08
p86
tp87
g5
(g6
g7
(dp88
S'FM_MODEL'
p89
g86
sS'FT_TYPE'
p90
g84
sS'FM_MANUFACTURER'
p91
g85
stp92
Rp93
s(Vonline_gc
p94
VBoulder AIR+SRI
p95
VBA-NMHC-2116+SRI-310 GC/FID
p96
tp97
g5
(g6
g7
(dp98
S'FM_MODEL'
p99
g96
sS'FT_TYPE'
p100
g94
sS'FM_MANUFACTURER'
p101
g95
stp102
Rp103
s(Vbulk_sampler
p104
VIVL
p105
Vhg
p106
tp107
g5
(g6
g7
(dp108
S'FM_MODEL'
p109
g106
sS'FT_TYPE'
p110
g104
sS'FM_MANUFACTURER'
p111
g105
stp112
Rp113
s(Voptical_particle_size_spectrometer
p114
VGRIMM
p115
V190
p116
tp117
g5
(g6
g7
(dp118
S'FM_MODEL'
p119
g116
sS'FT_TYPE'
p120
g114
sS'FM_MANUFACTURER'
p121
g115
stp122
Rp123
s(Vsmps
p124
VTSI
p125
V3082
p126
tp127
g5
(g6
g7
(dp128
S'FM_MODEL'
p129
g126
sS'FT_TYPE'
p130
g124
sS'FM_MANUFACTURER'
p131
g125
stp132
Rp133
s(Vsun_tracking_filter_radiometer
p134
VPREDE
p135
VPOM-02
p136
tp137
g5
(g6
g7
(dp138
S'FM_MODEL'
p139
g136
sS'FT_TYPE'
p140
g134
sS'FM_MANUFACTURER'
p141
g135
stp142
Rp143
s(Vaws
p144
VVaisala
p145
VHMP60
p146
tp147
g5
(g6
g7
(dp148
S'FM_MODEL'
p149
g146
sS'FT_TYPE'
p150
g144
sS'FM_MANUFACTURER'
p151
g145
stp152
Rp153
s(Vonline_gc
p154
VAgilent
p155
V6890GC/FID
p156
tp157
g5
(g6
g7
(dp158
S'FM_MODEL'
p159
g156
sS'FT_TYPE'
p160
g154
sS'FM_MANUFACTURER'
p161
g155
stp162
Rp163
s(Vfilter_absorption_photometer
p164
VMetOne
p165
VBC 1054
p166
tp167
g5
(g6
g7
(dp168
S'FM_MODEL'
p169
g166
sS'FT_TYPE'
p170
g164
sS'FM_MANUFACTURER'
p171
g165
stp172
Rp173
s(Vv-tdmps
p174
VTROPOS
p175
VTROPOS_V-TDMPS
p176
tp177
g5
(g6
g7
(dp178
S'FM_MODEL'
p179
g176
sS'FT_TYPE'
p180
g174
sS'FM_MANUFACTURER'
p181
g175
stp182
Rp183
s(Vonline_gc
p184
VSRI
p185
V8610 GC
p186
tp187
g5
(g6
g7
(dp188
S'FM_MODEL'
p189
g186
sS'FT_TYPE'
p190
g184
sS'FM_MANUFACTURER'
p191
g185
stp192
Rp193
s(Vnephelometer
p194
VMeteorology Research, Inc.
p195
V1550
p196
tp197
g5
(g6
g7
(dp198
S'FM_MODEL'
p199
g196
sS'FT_TYPE'
p200
g194
sS'FM_MANUFACTURER'
p201
g195
stp202
Rp203
s(Vchemiluminescence_photolytic
p204
VEcotech
p205
V9841T
p206
tp207
g5
(g6
g7
(dp208
S'FM_MODEL'
p209
g206
sS'FT_TYPE'
p210
g204
sS'FM_MANUFACTURER'
p211
g205
stp212
Rp213
s(Vfilter_absorption_photometer
p214
VMagee
p215
VAE16
p216
tp217
g5
(g6
g7
(dp218
S'FM_MODEL'
p219
g216
sS'FT_TYPE'
p220
g214
sS'FM_MANUFACTURER'
p221
g215
stp222
Rp223
s(Vchemiluminescence_molybdenum
p224
VEcophysics
p225
VCLD700ALppt
p226
tp227
g5
(g6
g7
(dp228
S'FM_MODEL'
p229
g226
sS'FT_TYPE'
p230
g224
sS'FM_MANUFACTURER'
p231
g225
stp232
Rp233
s(Vaws
p234
VVaisala
p235
VMAWS420
p236
tp237
g5
(g6
g7
(dp238
S'FM_MODEL'
p239
g236
sS'FT_TYPE'
p240
g234
sS'FM_MANUFACTURER'
p241
g235
stp242
Rp243
s(Vndir
p244
VThermo
p245
V48i TL
p246
tp247
g5
(g6
g7
(dp248
S'FM_MODEL'
p249
g246
sS'FT_TYPE'
p250
g244
sS'FM_MANUFACTURER'
p251
g245
stp252
Rp253
s(Vchemiluminescence_photolytic
p254
VThermo
p255
V42C-TL
p256
tp257
g5
(g6
g7
(dp258
S'FM_MODEL'
p259
g256
sS'FT_TYPE'
p260
g254
sS'FM_MANUFACTURER'
p261
g255
stp262
Rp263
s(Vchemiluminescence_molybdenum
p264
VEcophysics
p265
VCLD770ALppt
p266
tp267
g5
(g6
g7
(dp268
S'FM_MODEL'
p269
g266
sS'FT_TYPE'
p270
g264
sS'FM_MANUFACTURER'
p271
g265
stp272
Rp273
s(Vsmps
p274
VTROPOS
p275
VTROPOS-TSMPS
p276
tp277
g5
(g6
g7
(dp278
S'FM_MODEL'
p279
g276
sS'FT_TYPE'
p280
g274
sS'FM_MANUFACTURER'
p281
g275
stp282
Rp283
s(Vcpc
p284
VAerosol Dynamics
p285
VMAGIC 200
p286
tp287
g5
(g6
g7
(dp288
S'FM_MODEL'
p289
g286
sS'FT_TYPE'
p290
g284
sS'FM_MANUFACTURER'
p291
g285
stp292
Rp293
s(Vchemiluminescence_photolytic
p294
VEcophysics
p295
VCLD770ALppt
p296
tp297
g5
(g6
g7
(dp298
S'FM_MODEL'
p299
g296
sS'FT_TYPE'
p300
g294
sS'FM_MANUFACTURER'
p301
g295
stp302
Rp303
s(Vsmps
p304
VGRIMM
p305
V55-900+5.705+5.706
p306
tp307
g5
(g6
g7
(dp308
S'FM_MODEL'
p309
g306
sS'FT_TYPE'
p310
g304
sS'FM_MANUFACTURER'
p311
g305
stp312
Rp313
s(Vdenuder
p314
VUBA
p315
VOlaf
p316
tp317
g5
(g6
g7
(dp318
S'FM_MODEL'
p319
g316
sS'FT_TYPE'
p320
g314
sS'FM_MANUFACTURER'
p321
g315
stp322
Rp323
s(Vwet_only_sampler
p324
VEigenbrodt
p325
VNSA181KS
p326
tp327
g5
(g6
g7
(dp328
S'FM_MODEL'
p329
g326
sS'FT_TYPE'
p330
g324
sS'FM_MANUFACTURER'
p331
g325
stp332
Rp333
s(Vchemiluminescence_molybdenum
p334
VTeledyne API
p335
V200E
p336
tp337
g5
(g6
g7
(dp338
S'FM_MODEL'
p339
g336
sS'FT_TYPE'
p340
g334
sS'FM_MANUFACTURER'
p341
g335
stp342
Rp343
s(Vbulk_sampler
p344
VAmbiental
p345
VCPS004
p346
tp347
g5
(g6
g7
(dp348
S'FM_MODEL'
p349
g346
sS'FT_TYPE'
p350
g344
sS'FM_MANUFACTURER'
p351
g345
stp352
Rp353
s(Vchemiluminescence_molybdenum
p354
VTeledyne API
p355
VT200U
p356
tp357
g5
(g6
g7
(dp358
S'FM_MODEL'
p359
g356
sS'FT_TYPE'
p360
g354
sS'FM_MANUFACTURER'
p361
g355
stp362
Rp363
s(Vwet_only_sampler
p364
VMCV
p365
VCLA-001-E
p366
tp367
g5
(g6
g7
(dp368
S'FM_MODEL'
p369
g366
sS'FT_TYPE'
p370
g364
sS'FM_MANUFACTURER'
p371
g365
stp372
Rp373
s(Vhigh_vol_sampler
p374
VNILU
p375
VNILU Custom Hi-Vol
p376
tp377
g5
(g6
g7
(dp378
S'FM_MODEL'
p379
g376
sS'FT_TYPE'
p380
g374
sS'FM_MANUFACTURER'
p381
g375
stp382
Rp383
s(Vpollen_monitor
p384
VSwisens
p385
VSwisensPoleno Mars
p386
tp387
g5
(g6
g7
(dp388
S'FM_MODEL'
p389
g386
sS'FT_TYPE'
p390
g384
sS'FM_MANUFACTURER'
p391
g385
stp392
Rp393
s(Vfilter_absorption_photometer
p394
VMISU
p395
VPSAP-1W
p396
tp397
g5
(g6
g7
(dp398
S'FM_MODEL'
p399
g396
sS'FT_TYPE'
p400
g394
sS'FM_MANUFACTURER'
p401
g395
stp402
Rp403
s(Vchemiluminescence_molybdenum
p404
VTeledyne API
p405
V200EU
p406
tp407
g5
(g6
g7
(dp408
S'FM_MODEL'
p409
g406
sS'FT_TYPE'
p410
g404
sS'FM_MANUFACTURER'
p411
g405
stp412
Rp413
s(VPTR-MS
p414
VTOFWERK
p415
VVocus PTR-TOF S
p416
tp417
g5
(g6
g7
(dp418
S'FM_MODEL'
p419
g416
sS'FT_TYPE'
p420
g414
sS'FM_MANUFACTURER'
p421
g415
stp422
Rp423
s(Vonline_gc
p424
VAGAGE+Agilent+Agilent
p425
VMEDUSA+6890N+5975B
p426
tp427
g5
(g6
g7
(dp428
S'FM_MODEL'
p429
g426
sS'FT_TYPE'
p430
g424
sS'FM_MANUFACTURER'
p431
g425
stp432
Rp433
s(Vbulk_sampler
p434
VNalgene
p435
V7142-0030
p436
tp437
g5
(g6
g7
(dp438
S'FM_MODEL'
p439
g436
sS'FT_TYPE'
p440
g434
sS'FM_MANUFACTURER'
p441
g435
stp442
Rp443
s(Vonline_gc
p444
VSyntech Spectras
p445
VGC855
p446
tp447
g5
(g6
g7
(dp448
S'FM_MODEL'
p449
g446
sS'FT_TYPE'
p450
g444
sS'FM_MANUFACTURER'
p451
g445
stp452
Rp453
s(Vnephelometer
p454
Vacoem
p455
VAurora NE-400
p456
tp457
g5
(g6
g7
(dp458
S'FM_MODEL'
p459
g456
sS'FT_TYPE'
p460
g454
sS'FM_MANUFACTURER'
p461
g455
stp462
Rp463
s(Vwet_only_sampler
p464
VEigenbrodt
p465
VNSA181S
p466
tp467
g5
(g6
g7
(dp468
S'FM_MODEL'
p469
g466
sS'FT_TYPE'
p470
g464
sS'FM_MANUFACTURER'
p471
g465
stp472
Rp473
s(Vchemiluminescence_molybdenum
p474
VTeledyne API
p475
VT200
p476
tp477
g5
(g6
g7
(dp478
S'FM_MODEL'
p479
g476
sS'FT_TYPE'
p480
g474
sS'FM_MANUFACTURER'
p481
g475
stp482
Rp483
s(Vcpc
p484
VTSI
p485
V3022
p486
tp487
g5
(g6
g7
(dp488
S'FM_MODEL'
p489
g486
sS'FT_TYPE'
p490
g484
sS'FM_MANUFACTURER'
p491
g485
stp492
Rp493
s(Vfilter_2pack
p494
VNILU
p495
VTwo stage open face
p496
tp497
g5
(g6
g7
(dp498
S'FM_MODEL'
p499
g496
sS'FT_TYPE'
p500
g494
sS'FM_MANUFACTURER'
p501
g495
stp502
Rp503
s(Vhigh_vol_sampler
p504
VAndersen
p505
VGraseby Andersen GMW
p506
tp507
g5
(g6
g7
(dp508
S'FM_MODEL'
p509
g506
sS'FT_TYPE'
p510
g504
sS'FM_MANUFACTURER'
p511
g505
stp512
Rp513
s(Vpollen_monitor
p514
VPlair
p515
VRapid-E
p516
tp517
g5
(g6
g7
(dp518
S'FM_MODEL'
p519
g516
sS'FT_TYPE'
p520
g514
sS'FM_MANUFACTURER'
p521
g515
stp522
Rp523
s(Vchemiluminescence_photolytic
p524
VThermo
p525
V42i-TL
p526
tp527
g5
(g6
g7
(dp528
S'FM_MODEL'
p529
g526
sS'FT_TYPE'
p530
g524
sS'FM_MANUFACTURER'
p531
g525
stp532
Rp533
s(Vdmps
p534
VTSI
p535
V3934
p536
tp537
g5
(g6
g7
(dp538
S'FM_MODEL'
p539
g536
sS'FT_TYPE'
p540
g534
sS'FM_MANUFACTURER'
p541
g535
stp542
Rp543
s(Vbeta_gauge_particulate_sampler
p544
VThermo
p545
VFH62I-R
p546
tp547
g5
(g6
g7
(dp548
S'FM_MODEL'
p549
g546
sS'FT_TYPE'
p550
g544
sS'FM_MANUFACTURER'
p551
g545
stp552
Rp553
s(Vsmps
p554
VTSI
p555
V3081A
p556
tp557
g5
(g6
g7
(dp558
S'FM_MODEL'
p559
g556
sS'FT_TYPE'
p560
g554
sS'FM_MANUFACTURER'
p561
g555
stp562
Rp563
s(Vbulk_sampler
p564
VEigenbrodt
p565
VNSA181K
p566
tp567
g5
(g6
g7
(dp568
S'FM_MODEL'
p569
g566
sS'FT_TYPE'
p570
g564
sS'FM_MANUFACTURER'
p571
g565
stp572
Rp573
s(Vonline_gc
p574
VAGAGE+Agilent
p575
VMEDUSA+5973GC/MS
p576
tp577
g5
(g6
g7
(dp578
S'FM_MODEL'
p579
g576
sS'FT_TYPE'
p580
g574
sS'FM_MANUFACTURER'
p581
g575
stp582
Rp583
s(Vbulk_sampler
p584
VLab Service Analytica
p585
VDepobulk
p586
tp587
g5
(g6
g7
(dp588
S'FM_MODEL'
p589
g586
sS'FT_TYPE'
p590
g584
sS'FM_MANUFACTURER'
p591
g585
stp592
Rp593
s(Vuv_abs
p594
VHoriba
p595
VAPOA-370
p596
tp597
g5
(g6
g7
(dp598
S'FM_MODEL'
p599
g596
sS'FT_TYPE'
p600
g594
sS'FM_MANUFACTURER'
p601
g595
stp602
Rp603
s(Vonline_gc
p604
VChromatotec
p605
VairmoVOC C6-C16
p606
tp607
g5
(g6
g7
(dp608
S'FM_MODEL'
p609
g606
sS'FT_TYPE'
p610
g604
sS'FM_MANUFACTURER'
p611
g605
stp612
Rp613
s(Vaws
p614
VVaisala
p615
VWXT510
p616
tp617
g5
(g6
g7
(dp618
S'FM_MODEL'
p619
g616
sS'FT_TYPE'
p620
g614
sS'FM_MANUFACTURER'
p621
g615
stp622
Rp623
s(Vfilter_3pack
p624
VNILU
p625
VThree stage open face
p626
tp627
g5
(g6
g7
(dp628
S'FM_MODEL'
p629
g626
sS'FT_TYPE'
p630
g624
sS'FM_MANUFACTURER'
p631
g625
stp632
Rp633
s(Vuv_abs
p634
VThermo
p635
V49C+49i
p636
tp637
g5
(g6
g7
(dp638
S'FM_MODEL'
p639
g636
sS'FT_TYPE'
p640
g634
sS'FM_MANUFACTURER'
p641
g635
stp642
Rp643
s(Vwet_only_sampler
p644
VEigenbrodt
p645
VNSA181K
p646
tp647
g5
(g6
g7
(dp648
S'FM_MODEL'
p649
g646
sS'FT_TYPE'
p650
g644
sS'FM_MANUFACTURER'
p651
g645
stp652
Rp653
s(Vdmps
p654
VTSI
p655
V3071A+3010
p656
tp657
g5
(g6
g7
(dp658
S'FM_MODEL'
p659
g656
sS'FT_TYPE'
p660
g654
sS'FM_MANUFACTURER'
p661
g655
stp662
Rp663
s(Vhigh_vol_sampler
p664
VTisch Environmental
p665
VTE-6070DV
p666
tp667
g5
(g6
g7
(dp668
S'FM_MODEL'
p669
g666
sS'FT_TYPE'
p670
g664
sS'FM_MANUFACTURER'
p671
g665
stp672
Rp673
s(Vglass_sinter
p674
VMCZ
p675
VMicroPNS
p676
tp677
g5
(g6
g7
(dp678
S'FM_MODEL'
p679
g676
sS'FT_TYPE'
p680
g674
sS'FM_MANUFACTURER'
p681
g675
stp682
Rp683
s(Vfilter_absorption_photometer
p684
VNOAA/ESRL/GMD
p685
VCLAP-10
p686
tp687
g5
(g6
g7
(dp688
S'FM_MODEL'
p689
g686
sS'FT_TYPE'
p690
g684
sS'FM_MANUFACTURER'
p691
g685
stp692
Rp693
s(Vsmps
p694
VUHEL
p695
Vcustom built
p696
tp697
g5
(g6
g7
(dp698
S'FM_MODEL'
p699
g696
sS'FT_TYPE'
p700
g694
sS'FM_MANUFACTURER'
p701
g695
stp702
Rp703
s(Vcpc
p704
VTSI
p705
V3771
p706
tp707
g5
(g6
g7
(dp708
S'FM_MODEL'
p709
g706
sS'FT_TYPE'
p710
g704
sS'FM_MANUFACTURER'
p711
g705
stp712
Rp713
s(Voptical_particle_size_spectrometer
p714
VPalas
p715
VFidas 200 E
p716
tp717
g5
(g6
g7
(dp718
S'FM_MODEL'
p719
g716
sS'FT_TYPE'
p720
g714
sS'FM_MANUFACTURER'
p721
g715
stp722
Rp723
s(VTEOM
p724
VThermo
p725
V1400ab
p726
tp727
g5
(g6
g7
(dp728
S'FM_MODEL'
p729
g726
sS'FT_TYPE'
p730
g724
sS'FM_MANUFACTURER'
p731
g725
stp732
Rp733
s(VCAPS
p734
VTeledyne
p735
VT500U
p736
tp737
g5
(g6
g7
(dp738
S'FM_MODEL'
p739
g736
sS'FT_TYPE'
p740
g734
sS'FM_MANUFACTURER'
p741
g735
stp742
Rp743
s(Vnephelometer
p744
VOptec
p745
VNGN-2a
p746
tp747
g5
(g6
g7
(dp748
S'FM_MODEL'
p749
g746
sS'FT_TYPE'
p750
g744
sS'FM_MANUFACTURER'
p751
g745
stp752
Rp753
s(Vbulk_sampler
p754
VIVL
p755
Vpop
p756
tp757
g5
(g6
g7
(dp758
S'FM_MODEL'
p759
g756
sS'FT_TYPE'
p760
g754
sS'FM_MANUFACTURER'
p761
g755
stp762
Rp763
s(Vlow_vol_sampler
p764
VCustom build - Leckel
p765
VModified LVS6
p766
tp767
g5
(g6
g7
(dp768
S'FM_MODEL'
p769
g766
sS'FT_TYPE'
p770
g764
sS'FM_MANUFACTURER'
p771
g765
stp772
Rp773
s(Vpollen_monitor
p774
VSwisens
p775
VSwisensPoleno Neptune
p776
tp777
g5
(g6
g7
(dp778
S'FM_MODEL'
p779
g776
sS'FT_TYPE'
p780
g774
sS'FM_MANUFACTURER'
p781
g775
stp782
Rp783
s(Vpassive_sampler
p784
VCEH
p785
VALPHA sampler
p786
tp787
g5
(g6
g7
(dp788
S'FM_MODEL'
p789
g786
sS'FT_TYPE'
p790
g784
sS'FM_MANUFACTURER'
p791
g785
stp792
Rp793
s(VTEOM
p794
VThermo
p795
V1405DF
p796
tp797
g5
(g6
g7
(dp798
S'FM_MODEL'
p799
g796
sS'FT_TYPE'
p800
g794
sS'FM_MANUFACTURER'
p801
g795
stp802
Rp803
s(Vsteel_canister
p804
VEntech
p805
VSilonite
p806
tp807
g5
(g6
g7
(dp808
S'FM_MODEL'
p809
g806
sS'FT_TYPE'
p810
g804
sS'FM_MANUFACTURER'
p811
g805
stp812
Rp813
s(VHg_mon
p814
VTekran
p815
V2537A
p816
tp817
g5
(g6
g7
(dp818
S'FM_MODEL'
p819
g816
sS'FT_TYPE'
p820
g814
sS'FM_MANUFACTURER'
p821
g815
stp822
Rp823
s(Vcpc
p824
VBMI
p825
V1710
p826
tp827
g5
(g6
g7
(dp828
S'FM_MODEL'
p829
g826
sS'FT_TYPE'
p830
g824
sS'FM_MANUFACTURER'
p831
g825
stp832
Rp833
s(Vsmps
p834
VCNRS-LaMP
p835
VSMPSmodel1
p836
tp837
g5
(g6
g7
(dp838
S'FM_MODEL'
p839
g836
sS'FT_TYPE'
p840
g834
sS'FM_MANUFACTURER'
p841
g835
stp842
Rp843
s(Vchemiluminescence_photolytic
p844
VThermo
p845
V42i-LS
p846
tp847
g5
(g6
g7
(dp848
S'FM_MODEL'
p849
g846
sS'FT_TYPE'
p850
g844
sS'FM_MANUFACTURER'
p851
g845
stp852
Rp853
s(Vsmps
p854
VGRIMM
p855
V55-340+5.705+5.706
p856
tp857
g5
(g6
g7
(dp858
S'FM_MODEL'
p859
g856
sS'FT_TYPE'
p860
g854
sS'FM_MANUFACTURER'
p861
g855
stp862
Rp863
s(Vdmps
p864
VTSI
p865
V3071A+3760A
p866
tp867
g5
(g6
g7
(dp868
S'FM_MODEL'
p869
g866
sS'FT_TYPE'
p870
g864
sS'FM_MANUFACTURER'
p871
g865
stp872
Rp873
s(Vcpc
p874
VTSI
p875
V3762
p876
tp877
g5
(g6
g7
(dp878
S'FM_MODEL'
p879
g876
sS'FT_TYPE'
p880
g874
sS'FM_MANUFACTURER'
p881
g875
stp882
Rp883
s(Vlow_vol_sampler
p884
VDerenda
p885
VMVS 6.1
p886
tp887
g5
(g6
g7
(dp888
S'FM_MODEL'
p889
g886
sS'FT_TYPE'
p890
g884
sS'FM_MANUFACTURER'
p891
g885
stp892
Rp893
s(Vnephelometer
p894
VTSI
p895
V3563
p896
tp897
g5
(g6
g7
(dp898
S'FM_MODEL'
p899
g896
sS'FT_TYPE'
p900
g894
sS'FM_MANUFACTURER'
p901
g895
stp902
Rp903
s(Vdmps
p904
VFMI
p905
VFMI_DMPS_2022
p906
tp907
g5
(g6
g7
(dp908
S'FM_MODEL'
p909
g906
sS'FT_TYPE'
p910
g904
sS'FM_MANUFACTURER'
p911
g905
stp912
Rp913
s(Vaerosol_mass_spectrometer
p914
VAerodyne
p915
VQ-AMS
p916
tp917
g5
(g6
g7
(dp918
S'FM_MODEL'
p919
g916
sS'FT_TYPE'
p920
g914
sS'FM_MANUFACTURER'
p921
g915
stp922
Rp923
s(VCCNC
p924
VDMT
p925
VCCN-200
p926
tp927
g5
(g6
g7
(dp928
S'FM_MODEL'
p929
g926
sS'FT_TYPE'
p930
g924
sS'FM_MANUFACTURER'
p931
g925
stp932
Rp933
s(Vchemiluminescence_photolytic
p934
VEcophysics
p935
VCRANOX-II
p936
tp937
g5
(g6
g7
(dp938
S'FM_MODEL'
p939
g936
sS'FT_TYPE'
p940
g934
sS'FM_MANUFACTURER'
p941
g935
stp942
Rp943
s(Vfilter_absorption_photometer
p944
VMagee
p945
VAE36s
p946
tp947
g5
(g6
g7
(dp948
S'FM_MODEL'
p949
g946
sS'FT_TYPE'
p950
g944
sS'FM_MANUFACTURER'
p951
g945
stp952
Rp953
s(Vuv_abs
p954
VEnvironnement
p955
VO3 42M
p956
tp957
g5
(g6
g7
(dp958
S'FM_MODEL'
p959
g956
sS'FT_TYPE'
p960
g954
sS'FM_MANUFACTURER'
p961
g955
stp962
Rp963
s(Vdmps
p964
VTSI
p965
V3080L
p966
tp967
g5
(g6
g7
(dp968
S'FM_MODEL'
p969
g966
sS'FT_TYPE'
p970
g964
sS'FM_MANUFACTURER'
p971
g965
stp972
Rp973
s(Vsmps
p974
VTSI
p975
V3071
p976
tp977
g5
(g6
g7
(dp978
S'FM_MODEL'
p979
g976
sS'FT_TYPE'
p980
g974
sS'FM_MANUFACTURER'
p981
g975
stp982
Rp983
s(Voptical_particle_size_spectrometer
p984
VPalas
p985
VFidas 200
p986
tp987
g5
(g6
g7
(dp988
S'FM_MODEL'
p989
g986
sS'FT_TYPE'
p990
g984
sS'FM_MANUFACTURER'
p991
g985
stp992
Rp993
s(Vdmps
p994
VUHEL
p995
Vcustom built
p996
tp997
g5
(g6
g7
(dp998
S'FM_MODEL'
p999
g996
sS'FT_TYPE'
p1000
g994
sS'FM_MANUFACTURER'
p1001
g995
stp1002
Rp1003
s(Vndir
p1004
VHoriba
p1005
VAPMA-370
p1006
tp1007
g5
(g6
g7
(dp1008
S'FM_MODEL'
p1009
g1006
sS'FT_TYPE'
p1010
g1004
sS'FM_MANUFACTURER'
p1011
g1005
stp1012
Rp1013
s(Vuv_abs
p1014
VAnsyco
p1015
V41M
p1016
tp1017
g5
(g6
g7
(dp1018
S'FM_MODEL'
p1019
g1016
sS'FT_TYPE'
p1020
g1014
sS'FM_MANUFACTURER'
p1021
g1015
stp1022
Rp1023
s(Vaws
p1024
VAanderaa
p1025
VAWS 2700
p1026
tp1027
g5
(g6
g7
(dp1028
S'FM_MODEL'
p1029
g1026
sS'FT_TYPE'
p1030
g1024
sS'FM_MANUFACTURER'
p1031
g1025
stp1032
Rp1033
s(Vonline_gc
p1034
VPerkinElmer+PerkinElmer+PerkinElmer
p1035
VATD350+GC680+MSSQ8T
p1036
tp1037
g5
(g6
g7
(dp1038
S'FM_MODEL'
p1039
g1036
sS'FT_TYPE'
p1040
g1034
sS'FM_MANUFACTURER'
p1041
g1035
stp1042
Rp1043
s(Vnephelometer
p1044
VOptech
p1045
VNGN-2A
p1046
tp1047
g5
(g6
g7
(dp1048
S'FM_MODEL'
p1049
g1046
sS'FT_TYPE'
p1050
g1044
sS'FM_MANUFACTURER'
p1051
g1045
stp1052
Rp1053
s(Vchemiluminescence_molybdenum
p1054
VEcophysics
p1055
VCLD64
p1056
tp1057
g5
(g6
g7
(dp1058
S'FM_MODEL'
p1059
g1056
sS'FT_TYPE'
p1060
g1054
sS'FM_MANUFACTURER'
p1061
g1055
stp1062
Rp1063
s(Vchemiluminescence_molybdenum+thermal
p1064
VTeledyne API
p1065
V201E
p1066
tp1067
g5
(g6
g7
(dp1068
S'FM_MODEL'
p1069
g1066
sS'FT_TYPE'
p1070
g1064
sS'FM_MANUFACTURER'
p1071
g1065
stp1072
Rp1073
s(Vonline_crds
p1074
VPicarro
p1075
VG2302
p1076
tp1077
g5
(g6
g7
(dp1078
S'FM_MODEL'
p1079
g1076
sS'FT_TYPE'
p1080
g1074
sS'FM_MANUFACTURER'
p1081
g1075
stp1082
Rp1083
s(VPTR-MS
p1084
VIonicon Analytik
p1085
VFUSION PTR
p1086
tp1087
g5
(g6
g7
(dp1088
S'FM_MODEL'
p1089
g1086
sS'FT_TYPE'
p1090
g1084
sS'FM_MANUFACTURER'
p1091
g1085
stp1092
Rp1093
s(Vsmps
p1094
VGRIMM
p1095
V55-100+5.705+5.706
p1096
tp1097
g5
(g6
g7
(dp1098
S'FM_MODEL'
p1099
g1096
sS'FT_TYPE'
p1100
g1094
sS'FM_MANUFACTURER'
p1101
g1095
stp1102
Rp1103
s(Vsun_tracking_filter_radiometer
p1104
VMiddleton Solar
p1105
VSP02-L
p1106
tp1107
g5
(g6
g7
(dp1108
S'FM_MODEL'
p1109
g1106
sS'FT_TYPE'
p1110
g1104
sS'FM_MANUFACTURER'
p1111
g1105
stp1112
Rp1113
s(Vonline_gc
p1114
VAMA
p1115
V5000 series
p1116
tp1117
g5
(g6
g7
(dp1118
S'FM_MODEL'
p1119
g1116
sS'FT_TYPE'
p1120
g1114
sS'FM_MANUFACTURER'
p1121
g1115
stp1122
Rp1123
s(Vuv_abs
p1124
VTeledyne Monitor Labs
p1125
VML9810B
p1126
tp1127
g5
(g6
g7
(dp1128
S'FM_MODEL'
p1129
g1126
sS'FT_TYPE'
p1130
g1124
sS'FM_MANUFACTURER'
p1131
g1125
stp1132
Rp1133
s(Vabs_solution
p1134
VIMWM
p1135
VIMWM_abs_solution
p1136
tp1137
g5
(g6
g7
(dp1138
S'FM_MODEL'
p1139
g1136
sS'FT_TYPE'
p1140
g1134
sS'FM_MANUFACTURER'
p1141
g1135
stp1142
Rp1143
s(Vfilter_3pack
p1144
VCustom build - Leckel
p1145
Vmodified SEQ47/50 three stage open face
p1146
tp1147
g5
(g6
g7
(dp1148
S'FM_MODEL'
p1149
g1146
sS'FT_TYPE'
p1150
g1144
sS'FM_MANUFACTURER'
p1151
g1145
stp1152
Rp1153
s(Vprecip_gauge
p1154
VNILU
p1155
VRG1
p1156
tp1157
g5
(g6
g7
(dp1158
S'FM_MODEL'
p1159
g1156
sS'FT_TYPE'
p1160
g1154
sS'FM_MANUFACTURER'
p1161
g1155
stp1162
Rp1163
s(VCAPS
p1164
VAerodyne
p1165
VCAPS NO2 Monitor
p1166
tp1167
g5
(g6
g7
(dp1168
S'FM_MODEL'
p1169
g1166
sS'FT_TYPE'
p1170
g1164
sS'FM_MANUFACTURER'
p1171
g1165
stp1172
Rp1173
s(Vbeta_gauge_particulate_sampler
p1174
VEberline
p1175
VFH62I-R
p1176
tp1177
g5
(g6
g7
(dp1178
S'FM_MODEL'
p1179
g1176
sS'FT_TYPE'
p1180
g1174
sS'FM_MANUFACTURER'
p1181
g1175
stp1182
Rp1183
s(Vnephelometer
p1184
VRadiance-Research
p1185
VM903
p1186
tp1187
g5
(g6
g7
(dp1188
S'FM_MODEL'
p1189
g1186
sS'FT_TYPE'
p1190
g1184
sS'FM_MANUFACTURER'
p1191
g1185
stp1192
Rp1193
s(Vcpc
p1194
VTSI
p1195
V3783
p1196
tp1197
g5
(g6
g7
(dp1198
S'FM_MODEL'
p1199
g1196
sS'FT_TYPE'
p1200
g1194
sS'FM_MANUFACTURER'
p1201
g1195
stp1202
Rp1203
s(Vcpc
p1204
VTSI
p1205
V3776
p1206
tp1207
g5
(g6
g7
(dp1208
S'FM_MODEL'
p1209
g1206
sS'FT_TYPE'
p1210
g1204
sS'FM_MANUFACTURER'
p1211
g1205
stp1212
Rp1213
s(Vbulk_sampler
p1214
VNILU
p1215
VSF1
p1216
tp1217
g5
(g6
g7
(dp1218
S'FM_MODEL'
p1219
g1216
sS'FT_TYPE'
p1220
g1214
sS'FM_MANUFACTURER'
p1221
g1215
stp1222
Rp1223
s(Vdoas
p1224
VRIVM-MIL
p1225
VMiniDOAS 1.0
p1226
tp1227
g5
(g6
g7
(dp1228
S'FM_MODEL'
p1229
g1226
sS'FT_TYPE'
p1230
g1224
sS'FM_MANUFACTURER'
p1231
g1225
stp1232
Rp1233
s(VDMPS-CCNC
p1234
VTROPOS+DMT
p1235
VTROPOS-DMPS+CCN-100
p1236
tp1237
g5
(g6
g7
(dp1238
S'FM_MODEL'
p1239
g1236
sS'FT_TYPE'
p1240
g1234
sS'FM_MANUFACTURER'
p1241
g1235
stp1242
Rp1243
s(Vlow_vol_sampler
p1244
VKNF
p1245
VIP20-T
p1246
tp1247
g5
(g6
g7
(dp1248
S'FM_MODEL'
p1249
g1246
sS'FT_TYPE'
p1250
g1244
sS'FM_MANUFACTURER'
p1251
g1245
stp1252
Rp1253
s(Vcpc
p1254
VGRIMM
p1255
V5.414
p1256
tp1257
g5
(g6
g7
(dp1258
S'FM_MODEL'
p1259
g1256
sS'FT_TYPE'
p1260
g1254
sS'FM_MANUFACTURER'
p1261
g1255
stp1262
Rp1263
s(Vhigh_vol_sampler
p1264
VDIGITEL
p1265
VDHA-80
p1266
tp1267
g5
(g6
g7
(dp1268
S'FM_MODEL'
p1269
g1266
sS'FT_TYPE'
p1270
g1264
sS'FM_MANUFACTURER'
p1271
g1265
stp1272
Rp1273
s(Vonline_gc
p1274
VVarian
p1275
VGC-3800 FID
p1276
tp1277
g5
(g6
g7
(dp1278
S'FM_MODEL'
p1279
g1276
sS'FT_TYPE'
p1280
g1274
sS'FM_MANUFACTURER'
p1281
g1275
stp1282
Rp1283
s(Vuv_fluoresc
p1284
VEcotech
p1285
VEC9850
p1286
tp1287
g5
(g6
g7
(dp1288
S'FM_MODEL'
p1289
g1286
sS'FT_TYPE'
p1290
g1284
sS'FM_MANUFACTURER'
p1291
g1285
stp1292
Rp1293
s(Vuv_fluoresc
p1294
VTeledyne
p1295
VT100
p1296
tp1297
g5
(g6
g7
(dp1298
S'FM_MODEL'
p1299
g1296
sS'FT_TYPE'
p1300
g1294
sS'FM_MANUFACTURER'
p1301
g1295
stp1302
Rp1303
s(Vfilter_absorption_photometer
p1304
VITM
p1305
VCUSTOM
p1306
tp1307
g5
(g6
g7
(dp1308
S'FM_MODEL'
p1309
g1306
sS'FT_TYPE'
p1310
g1304
sS'FM_MANUFACTURER'
p1311
g1305
stp1312
Rp1313
s(VTEOM
p1314
VRupprecht&Patashnick
p1315
V1400ab
p1316
tp1317
g5
(g6
g7
(dp1318
S'FM_MODEL'
p1319
g1316
sS'FT_TYPE'
p1320
g1314
sS'FM_MANUFACTURER'
p1321
g1315
stp1322
Rp1323
s(Vuv_fluoresc
p1324
VHoriba
p1325
VAPSA-370
p1326
tp1327
g5
(g6
g7
(dp1328
S'FM_MODEL'
p1329
g1326
sS'FT_TYPE'
p1330
g1324
sS'FM_MANUFACTURER'
p1331
g1325
stp1332
Rp1333
s(Vlow_vol_sampler
p1334
VRupprecht&Patashnick
p1335
VPartisol2025
p1336
tp1337
g5
(g6
g7
(dp1338
S'FM_MODEL'
p1339
g1336
sS'FT_TYPE'
p1340
g1334
sS'FM_MANUFACTURER'
p1341
g1335
stp1342
Rp1343
s(Vonline_gc
p1344
VAGAGE+Agilent+Agilent
p1345
VMEDUSA+7890B GC+5977C MS
p1346
tp1347
g5
(g6
g7
(dp1348
S'FM_MODEL'
p1349
g1346
sS'FT_TYPE'
p1350
g1344
sS'FM_MANUFACTURER'
p1351
g1345
stp1352
Rp1353
s(Vhigh_vol_sampler
p1354
VSierra Instruments
p1355
VBasic hi vol model 305-2000
p1356
tp1357
g5
(g6
g7
(dp1358
S'FM_MODEL'
p1359
g1356
sS'FT_TYPE'
p1360
g1354
sS'FM_MANUFACTURER'
p1361
g1355
stp1362
Rp1363
s(Vfilter_absorption_photometer
p1364
VMagee
p1365
VAE31-ER
p1366
tp1367
g5
(g6
g7
(dp1368
S'FM_MODEL'
p1369
g1366
sS'FT_TYPE'
p1370
g1364
sS'FM_MANUFACTURER'
p1371
g1365
stp1372
Rp1373
s(Vonline_gc
p1374
VMARKES+MARKES+Agilent+Agilent
p1375
VAir Server+UNITY2+6890+5975C
p1376
tp1377
g5
(g6
g7
(dp1378
S'FM_MODEL'
p1379
g1376
sS'FT_TYPE'
p1380
g1374
sS'FM_MANUFACTURER'
p1381
g1375
stp1382
Rp1383
s(Vuv_abs
p1384
VEbara
p1385
VEG-2001FTP
p1386
tp1387
g5
(g6
g7
(dp1388
S'FM_MODEL'
p1389
g1386
sS'FT_TYPE'
p1390
g1384
sS'FM_MANUFACTURER'
p1391
g1385
stp1392
Rp1393
s(Vchemiluminescence_molybdenum
p1394
Vairqualitydesign
p1395
VCLD
p1396
tp1397
g5
(g6
g7
(dp1398
S'FM_MODEL'
p1399
g1396
sS'FT_TYPE'
p1400
g1394
sS'FM_MANUFACTURER'
p1401
g1395
stp1402
Rp1403
s(Vb-attenuation
p1404
VOpsis
p1405
VSM200
p1406
tp1407
g5
(g6
g7
(dp1408
S'FM_MODEL'
p1409
g1406
sS'FT_TYPE'
p1410
g1404
sS'FM_MANUFACTURER'
p1411
g1405
stp1412
Rp1413
s(Vchemiluminescence_photolytic
p1414
VEcophysics
p1415
VCLD790SR
p1416
tp1417
g5
(g6
g7
(dp1418
S'FM_MODEL'
p1419
g1416
sS'FT_TYPE'
p1420
g1414
sS'FM_MANUFACTURER'
p1421
g1415
stp1422
Rp1423
s(Vchemiluminescence_molybdenum
p1424
VEcophysics
p1425
VCLD88
p1426
tp1427
g5
(g6
g7
(dp1428
S'FM_MODEL'
p1429
g1426
sS'FT_TYPE'
p1430
g1424
sS'FM_MANUFACTURER'
p1431
g1425
stp1432
Rp1433
s(Vchemiluminescence_molybdenum
p1434
VEcophysics
p1435
VCLD790SR
p1436
tp1437
g5
(g6
g7
(dp1438
S'FM_MODEL'
p1439
g1436
sS'FT_TYPE'
p1440
g1434
sS'FM_MANUFACTURER'
p1441
g1435
stp1442
Rp1443
s(Vonline_gc
p1444
VPerkinElmer+Varian+Varian
p1445
VATD300+GC3800+Saturn MS2200
p1446
tp1447
g5
(g6
g7
(dp1448
S'FM_MODEL'
p1449
g1446
sS'FT_TYPE'
p1450
g1444
sS'FM_MANUFACTURER'
p1451
g1445
stp1452
Rp1453
s(Voptical_particle_size_spectrometer
p1454
VTSI
p1455
V3330
p1456
tp1457
g5
(g6
g7
(dp1458
S'FM_MODEL'
p1459
g1456
sS'FT_TYPE'
p1460
g1454
sS'FM_MANUFACTURER'
p1461
g1455
stp1462
Rp1463
s(Vgold_trap
p1464
VIVL
p1465
Vads_tube
p1466
tp1467
g5
(g6
g7
(dp1468
S'FM_MODEL'
p1469
g1466
sS'FT_TYPE'
p1470
g1464
sS'FM_MANUFACTURER'
p1471
g1465
stp1472
Rp1473
s(Vprecip_gauge
p1474
VHellmann
p1475
Vpluviometer
p1476
tp1477
g5
(g6
g7
(dp1478
S'FM_MODEL'
p1479
g1476
sS'FT_TYPE'
p1480
g1474
sS'FM_MANUFACTURER'
p1481
g1475
stp1482
Rp1483
s(Vuv_abs
p1484
VThermo
p1485
V49w
p1486
tp1487
g5
(g6
g7
(dp1488
S'FM_MODEL'
p1489
g1486
sS'FT_TYPE'
p1490
g1484
sS'FM_MANUFACTURER'
p1491
g1485
stp1492
Rp1493
s(Vonline_abs
p1494
VMechatronics
p1495
VAiRRmonia
p1496
tp1497
g5
(g6
g7
(dp1498
S'FM_MODEL'
p1499
g1496
sS'FT_TYPE'
p1500
g1494
sS'FM_MANUFACTURER'
p1501
g1495
stp1502
Rp1503
s(Vuv_abs
p1504
VMCV
p1505
VMCV 48AV
p1506
tp1507
g5
(g6
g7
(dp1508
S'FM_MODEL'
p1509
g1506
sS'FT_TYPE'
p1510
g1504
sS'FM_MANUFACTURER'
p1511
g1505
stp1512
Rp1513
s(Vchemiluminescence_molybdenum
p1514
VThermo
p1515
V42C-TL
p1516
tp1517
g5
(g6
g7
(dp1518
S'FM_MODEL'
p1519
g1516
sS'FT_TYPE'
p1520
g1514
sS'FM_MANUFACTURER'
p1521
g1515
stp1522
Rp1523
s(Vwet_only_sampler
p1524
VBaghirra
p1525
VRain gauge 1m2
p1526
tp1527
g5
(g6
g7
(dp1528
S'FM_MODEL'
p1529
g1526
sS'FT_TYPE'
p1530
g1524
sS'FM_MANUFACTURER'
p1531
g1525
stp1532
Rp1533
s(Vdmps
p1534
VFMI
p1535
VFMI_DMPS_25
p1536
tp1537
g5
(g6
g7
(dp1538
S'FM_MODEL'
p1539
g1536
sS'FT_TYPE'
p1540
g1534
sS'FM_MANUFACTURER'
p1541
g1535
stp1542
Rp1543
s(Vhigh_vol_sampler
p1544
VDado Lab
p1545
VGiano PMx
p1546
tp1547
g5
(g6
g7
(dp1548
S'FM_MODEL'
p1549
g1546
sS'FT_TYPE'
p1550
g1544
sS'FM_MANUFACTURER'
p1551
g1545
stp1552
Rp1553
s(Vonline_crds
p1554
VPicarro
p1555
VG2401
p1556
tp1557
g5
(g6
g7
(dp1558
S'FM_MODEL'
p1559
g1556
sS'FT_TYPE'
p1560
g1554
sS'FM_MANUFACTURER'
p1561
g1555
stp1562
Rp1563
s(Vhigh_vol_sampler
p1564
VThermo
p1565
VVFC-PM10
p1566
tp1567
g5
(g6
g7
(dp1568
S'FM_MODEL'
p1569
g1566
sS'FT_TYPE'
p1570
g1564
sS'FM_MANUFACTURER'
p1571
g1565
stp1572
Rp1573
s(Vaps
p1574
VTSI
p1575
V3321
p1576
tp1577
g5
(g6
g7
(dp1578
S'FM_MODEL'
p1579
g1576
sS'FT_TYPE'
p1580
g1574
sS'FM_MANUFACTURER'
p1581
g1575
stp1582
Rp1583
s(Vuv_abs
p1584
VTeledyne
p1585
V400A
p1586
tp1587
g5
(g6
g7
(dp1588
S'FM_MODEL'
p1589
g1586
sS'FT_TYPE'
p1590
g1584
sS'FM_MANUFACTURER'
p1591
g1585
stp1592
Rp1593
s(Vuv_abs
p1594
VThermo
p1595
V49C
p1596
tp1597
g5
(g6
g7
(dp1598
S'FM_MODEL'
p1599
g1596
sS'FT_TYPE'
p1600
g1594
sS'FM_MANUFACTURER'
p1601
g1595
stp1602
Rp1603
s(Vlow_vol_sampler
p1604
VDerenda
p1605
VPNS 18T
p1606
tp1607
g5
(g6
g7
(dp1608
S'FM_MODEL'
p1609
g1606
sS'FT_TYPE'
p1610
g1604
sS'FM_MANUFACTURER'
p1611
g1605
stp1612
Rp1613
s(Vlow_vol_sampler
p1614
VThermo
p1615
VPartisol 2000-FRM
p1616
tp1617
g5
(g6
g7
(dp1618
S'FM_MODEL'
p1619
g1616
sS'FT_TYPE'
p1620
g1614
sS'FM_MANUFACTURER'
p1621
g1615
stp1622
Rp1623
s(Vnephelometer
p1624
Vacoem
p1625
VAurora 4000
p1626
tp1627
g5
(g6
g7
(dp1628
S'FM_MODEL'
p1629
g1626
sS'FT_TYPE'
p1630
g1624
sS'FM_MANUFACTURER'
p1631
g1625
stp1632
Rp1633
s(Vprecip_gauge
p1634
VCasella
p1635
V0.1mm_tipping_bucket
p1636
tp1637
g5
(g6
g7
(dp1638
S'FM_MODEL'
p1639
g1636
sS'FT_TYPE'
p1640
g1634
sS'FM_MANUFACTURER'
p1641
g1635
stp1642
Rp1643
s(Vchemiluminescence_molybdenum
p1644
VEcophysics
p1645
VCRANOX-II
p1646
tp1647
g5
(g6
g7
(dp1648
S'FM_MODEL'
p1649
g1646
sS'FT_TYPE'
p1650
g1644
sS'FM_MANUFACTURER'
p1651
g1645
stp1652
Rp1653
s(Vaerosol_mass_spectrometer
p1654
VAerodyne
p1655
VC-ToF-AMS
p1656
tp1657
g5
(g6
g7
(dp1658
S'FM_MODEL'
p1659
g1656
sS'FT_TYPE'
p1660
g1654
sS'FM_MANUFACTURER'
p1661
g1655
stp1662
Rp1663
s(Vaws
p1664
VVaisala
p1665
VWINDCAP WMT700
p1666
tp1667
g5
(g6
g7
(dp1668
S'FM_MODEL'
p1669
g1666
sS'FT_TYPE'
p1670
g1664
sS'FM_MANUFACTURER'
p1671
g1665
stp1672
Rp1673
s(Vuv_abs
p1674
VEbara
p1675
VEG-3000F
p1676
tp1677
g5
(g6
g7
(dp1678
S'FM_MODEL'
p1679
g1676
sS'FT_TYPE'
p1680
g1674
sS'FM_MANUFACTURER'
p1681
g1675
stp1682
Rp1683
s(Vhigh_vol_sampler
p1684
VDIGITEL
p1685
VDH-77
p1686
tp1687
g5
(g6
g7
(dp1688
S'FM_MODEL'
p1689
g1686
sS'FT_TYPE'
p1690
g1684
sS'FM_MANUFACTURER'
p1691
g1685
stp1692
Rp1693
s(Vsmps
p1694
VPSI
p1695
VSMPS_PSI_2
p1696
tp1697
g5
(g6
g7
(dp1698
S'FM_MODEL'
p1699
g1696
sS'FT_TYPE'
p1700
g1694
sS'FM_MANUFACTURER'
p1701
g1695
stp1702
Rp1703
s(Vuv_abs
p1704
VTeledyne Monitor Labs
p1705
VML8810
p1706
tp1707
g5
(g6
g7
(dp1708
S'FM_MODEL'
p1709
g1706
sS'FT_TYPE'
p1710
g1704
sS'FM_MANUFACTURER'
p1711
g1705
stp1712
Rp1713
s(Vimpactor
p1714
VDekati
p1715
VCascade
p1716
tp1717
g5
(g6
g7
(dp1718
S'FM_MODEL'
p1719
g1716
sS'FT_TYPE'
p1720
g1714
sS'FM_MANUFACTURER'
p1721
g1715
stp1722
Rp1723
s(VPTR-MS
p1724
VTOFWERK
p1725
VVocus PTR-TOF 2R
p1726
tp1727
g5
(g6
g7
(dp1728
S'FM_MODEL'
p1729
g1726
sS'FT_TYPE'
p1730
g1724
sS'FM_MANUFACTURER'
p1731
g1725
stp1732
Rp1733
s(Vnephelometer
p1734
VTSI
p1735
V3551
p1736
tp1737
g5
(g6
g7
(dp1738
S'FM_MODEL'
p1739
g1736
sS'FT_TYPE'
p1740
g1734
sS'FM_MANUFACTURER'
p1741
g1735
stp1742
Rp1743
s(Vsun_tracking_filter_radiometer
p1744
VCarter-Scott Design
p1745
VSPO1A
p1746
tp1747
g5
(g6
g7
(dp1748
S'FM_MODEL'
p1749
g1746
sS'FT_TYPE'
p1750
g1744
sS'FM_MANUFACTURER'
p1751
g1745
stp1752
Rp1753
s(VTEOM
p1754
VRupprecht&Patashnick
p1755
V1400aa
p1756
tp1757
g5
(g6
g7
(dp1758
S'FM_MODEL'
p1759
g1756
sS'FT_TYPE'
p1760
g1754
sS'FM_MANUFACTURER'
p1761
g1755
stp1762
Rp1763
s(Vnephelometer
p1764
VMeteorology Research, Inc.
p1765
V4-W
p1766
tp1767
g5
(g6
g7
(dp1768
S'FM_MODEL'
p1769
g1766
sS'FT_TYPE'
p1770
g1764
sS'FM_MANUFACTURER'
p1771
g1765
stp1772
Rp1773
s(Vcpc
p1774
VTSI
p1775
V3022A
p1776
tp1777
g5
(g6
g7
(dp1778
S'FM_MODEL'
p1779
g1776
sS'FT_TYPE'
p1780
g1774
sS'FM_MANUFACTURER'
p1781
g1775
stp1782
Rp1783
s(Vbeta_gauge_particulate_sampler
p1784
VMetOne
p1785
VBAM1020
p1786
tp1787
g5
(g6
g7
(dp1788
S'FM_MODEL'
p1789
g1786
sS'FT_TYPE'
p1790
g1784
sS'FM_MANUFACTURER'
p1791
g1785
stp1792
Rp1793
s(VCE-DOAS
p1794
VAiryx
p1795
VICAD-NOx-200D-M
p1796
tp1797
g5
(g6
g7
(dp1798
S'FM_MODEL'
p1799
g1796
sS'FT_TYPE'
p1800
g1794
sS'FM_MANUFACTURER'
p1801
g1795
stp1802
Rp1803
s(Vfilter_absorption_photometer
p1804
VMagee
p1805
VAE36
p1806
tp1807
g5
(g6
g7
(dp1808
S'FM_MODEL'
p1809
g1806
sS'FT_TYPE'
p1810
g1804
sS'FM_MANUFACTURER'
p1811
g1805
stp1812
Rp1813
s(Vhigh_vol_sampler
p1814
VCustom build - Digitel
p1815
VModified DH-77
p1816
tp1817
g5
(g6
g7
(dp1818
S'FM_MODEL'
p1819
g1816
sS'FT_TYPE'
p1820
g1814
sS'FM_MANUFACTURER'
p1821
g1815
stp1822
Rp1823
s(Vchemiluminescence_molybdenum
p1824
VEnvironnement
p1825
VAS32M
p1826
tp1827
g5
(g6
g7
(dp1828
S'FM_MODEL'
p1829
g1826
sS'FT_TYPE'
p1830
g1824
sS'FM_MANUFACTURER'
p1831
g1825
stp1832
Rp1833
s(Vonline_crds
p1834
VABB - Los Gatos Research
p1835
VMCEA
p1836
tp1837
g5
(g6
g7
(dp1838
S'FM_MODEL'
p1839
g1836
sS'FT_TYPE'
p1840
g1834
sS'FM_MANUFACTURER'
p1841
g1835
stp1842
Rp1843
s(Vonline_gc
p1844
VHewlett Packard
p1845
VFisons 8000 GC/ECD
p1846
tp1847
g5
(g6
g7
(dp1848
S'FM_MODEL'
p1849
g1846
sS'FT_TYPE'
p1850
g1844
sS'FM_MANUFACTURER'
p1851
g1845
stp1852
Rp1853
s(Vonline_gc
p1854
VBoulder AIR+Agilent
p1855
VBA-NMHC-1118+6890 GC/FID
p1856
tp1857
g5
(g6
g7
(dp1858
S'FM_MODEL'
p1859
g1856
sS'FT_TYPE'
p1860
g1854
sS'FM_MANUFACTURER'
p1861
g1855
stp1862
Rp1863
s(Vchemiluminescence_molybdenum
p1864
VEcophysics
p1865
VCLD899
p1866
tp1867
g5
(g6
g7
(dp1868
S'FM_MODEL'
p1869
g1866
sS'FT_TYPE'
p1870
g1864
sS'FM_MANUFACTURER'
p1871
g1865
stp1872
Rp1873
s(Vsmps
p1874
VTSI
p1875
V3071A+3022A
p1876
tp1877
g5
(g6
g7
(dp1878
S'FM_MODEL'
p1879
g1876
sS'FT_TYPE'
p1880
g1874
sS'FM_MANUFACTURER'
p1881
g1875
stp1882
Rp1883
s(Vbeta_gauge_particulate_sampler
p1884
VThermo
p1885
V5014i
p1886
tp1887
g5
(g6
g7
(dp1888
S'FM_MODEL'
p1889
g1886
sS'FT_TYPE'
p1890
g1884
sS'FM_MANUFACTURER'
p1891
g1885
stp1892
Rp1893
s(Vdmps
p1894
VTSI
p1895
V3936
p1896
tp1897
g5
(g6
g7
(dp1898
S'FM_MODEL'
p1899
g1896
sS'FT_TYPE'
p1900
g1894
sS'FM_MANUFACTURER'
p1901
g1895
stp1902
Rp1903
s(Vfilter_4pack
p1904
VThermo
p1905
VPartisol 2300
p1906
tp1907
g5
(g6
g7
(dp1908
S'FM_MODEL'
p1909
g1906
sS'FT_TYPE'
p1910
g1904
sS'FM_MANUFACTURER'
p1911
g1905
stp1912
Rp1913
s(Vdmps
p1914
VTSI
p1915
V3034
p1916
tp1917
g5
(g6
g7
(dp1918
S'FM_MODEL'
p1919
g1916
sS'FT_TYPE'
p1920
g1914
sS'FM_MANUFACTURER'
p1921
g1915
stp1922
Rp1923
s(VDMPS-CCNC
p1924
VUHEL+DMT
p1925
VDMPS_HYY_01+CCN-100
p1926
tp1927
g5
(g6
g7
(dp1928
S'FM_MODEL'
p1929
g1926
sS'FT_TYPE'
p1930
g1924
sS'FM_MANUFACTURER'
p1931
g1925
stp1932
Rp1933
s(Vdmps
p1934
VUHEL
p1935
VDMPS_VAR_01
p1936
tp1937
g5
(g6
g7
(dp1938
S'FM_MODEL'
p1939
g1936
sS'FT_TYPE'
p1940
g1934
sS'FM_MANUFACTURER'
p1941
g1935
stp1942
Rp1943
s(Vuv_abs
p1944
VDasibi
p1945
V1008
p1946
tp1947
g5
(g6
g7
(dp1948
S'FM_MODEL'
p1949
g1946
sS'FT_TYPE'
p1950
g1944
sS'FM_MANUFACTURER'
p1951
g1945
stp1952
Rp1953
s(Vaws
p1954
VVaisala
p1955
VWXT530
p1956
tp1957
g5
(g6
g7
(dp1958
S'FM_MODEL'
p1959
g1956
sS'FT_TYPE'
p1960
g1954
sS'FM_MANUFACTURER'
p1961
g1955
stp1962
Rp1963
s(Voptical_particle_size_spectrometer
p1964
VGRIMM
p1965
V107
p1966
tp1967
g5
(g6
g7
(dp1968
S'FM_MODEL'
p1969
g1966
sS'FT_TYPE'
p1970
g1964
sS'FM_MANUFACTURER'
p1971
g1965
stp1972
Rp1973
s(Vonline_gc
p1974
VMARKES+MARKES+Agilent
p1975
VAir Server+UNITY2+7890B GC/FID
p1976
tp1977
g5
(g6
g7
(dp1978
S'FM_MODEL'
p1979
g1976
sS'FT_TYPE'
p1980
g1974
sS'FM_MANUFACTURER'
p1981
g1975
stp1982
Rp1983
s(Vaws
p1984
VThies Clima
p1985
VCOMPACT
p1986
tp1987
g5
(g6
g7
(dp1988
S'FM_MODEL'
p1989
g1986
sS'FT_TYPE'
p1990
g1984
sS'FM_MANUFACTURER'
p1991
g1985
stp1992
Rp1993
s(Vchemiluminescence_molybdenum
p1994
VLosGatosResearch
p1995
VCRD
p1996
tp1997
g5
(g6
g7
(dp1998
S'FM_MODEL'
p1999
g1996
sS'FT_TYPE'
p2000
g1994
sS'FM_MANUFACTURER'
p2001
g1995
stp2002
Rp2003
s(Voptical_particle_size_spectrometer
p2004
VGRIMM
p2005
V180
p2006
tp2007
g5
(g6
g7
(dp2008
S'FM_MODEL'
p2009
g2006
sS'FT_TYPE'
p2010
g2004
sS'FM_MANUFACTURER'
p2011
g2005
stp2012
Rp2013
s(Vchemiluminescence_photolytic
p2014
VHoriba
p2015
VAPNA-360CE
p2016
tp2017
g5
(g6
g7
(dp2018
S'FM_MODEL'
p2019
g2016
sS'FT_TYPE'
p2020
g2014
sS'FM_MANUFACTURER'
p2021
g2015
stp2022
Rp2023
s(Vtunable_diode_laser_abs_spectrometer
p2024
VMIRO Analytical
p2025
VMIRO MGA-NO2
p2026
tp2027
g5
(g6
g7
(dp2028
S'FM_MODEL'
p2029
g2026
sS'FT_TYPE'
p2030
g2024
sS'FM_MANUFACTURER'
p2031
g2025
stp2032
Rp2033
s(Vchemiluminescence_photolytic
p2034
VEcophysics
p2035
VCLD780TR
p2036
tp2037
g5
(g6
g7
(dp2038
S'FM_MODEL'
p2039
g2036
sS'FT_TYPE'
p2040
g2034
sS'FM_MANUFACTURER'
p2041
g2035
stp2042
Rp2043
s(Vdmps
p2044
VTSI
p2045
V3071A+3025A
p2046
tp2047
g5
(g6
g7
(dp2048
S'FM_MODEL'
p2049
g2046
sS'FT_TYPE'
p2050
g2044
sS'FM_MANUFACTURER'
p2051
g2045
stp2052
Rp2053
s(Vtsmps
p2054
VTROPOS
p2055
VTROPOS-TSMPS
p2056
tp2057
g5
(g6
g7
(dp2058
S'FM_MODEL'
p2059
g2056
sS'FT_TYPE'
p2060
g2054
sS'FM_MANUFACTURER'
p2061
g2055
stp2062
Rp2063
s(Vwet_only_sampler
p2064
VEigenbrodt
p2065
VNSA181E
p2066
tp2067
g5
(g6
g7
(dp2068
S'FM_MODEL'
p2069
g2066
sS'FT_TYPE'
p2070
g2064
sS'FM_MANUFACTURER'
p2071
g2065
stp2072
Rp2073
s(Vcpc
p2074
VTSI
p2075
V3790
p2076
tp2077
g5
(g6
g7
(dp2078
S'FM_MODEL'
p2079
g2076
sS'FT_TYPE'
p2080
g2074
sS'FM_MANUFACTURER'
p2081
g2075
stp2082
Rp2083
s(Vsmps
p2084
VTSI
p2085
V3934
p2086
tp2087
g5
(g6
g7
(dp2088
S'FM_MODEL'
p2089
g2086
sS'FT_TYPE'
p2090
g2084
sS'FM_MANUFACTURER'
p2091
g2085
stp2092
Rp2093
s(Vchemiluminescence_molybdenum
p2094
VThermo
p2095
V42i-LS
p2096
tp2097
g5
(g6
g7
(dp2098
S'FM_MODEL'
p2099
g2096
sS'FT_TYPE'
p2100
g2094
sS'FM_MANUFACTURER'
p2101
g2095
stp2102
Rp2103
s(Vonline_gc
p2104
VMARKES+MARKES+Agilent
p2105
VAir Server-xr+UNITY-xr+7890A GC/FID-FID
p2106
tp2107
g5
(g6
g7
(dp2108
S'FM_MODEL'
p2109
g2106
sS'FT_TYPE'
p2110
g2104
sS'FM_MANUFACTURER'
p2111
g2105
stp2112
Rp2113
s(Vdenuder
p2114
VRiemer
p2115
VDEN2
p2116
tp2117
g5
(g6
g7
(dp2118
S'FM_MODEL'
p2119
g2116
sS'FT_TYPE'
p2120
g2114
sS'FM_MANUFACTURER'
p2121
g2115
stp2122
Rp2123
s(Vsmps
p2124
VGRIMM
p2125
VSMPS+5416
p2126
tp2127
g5
(g6
g7
(dp2128
S'FM_MODEL'
p2129
g2126
sS'FT_TYPE'
p2130
g2124
sS'FM_MANUFACTURER'
p2131
g2125
stp2132
Rp2133
s(Vfilter_absorption_photometer
p2134
VMagee
p2135
VAE22-ER
p2136
tp2137
g5
(g6
g7
(dp2138
S'FM_MODEL'
p2139
g2136
sS'FT_TYPE'
p2140
g2134
sS'FM_MANUFACTURER'
p2141
g2135
stp2142
Rp2143
s(Vchemiluminescence_photolytic
p2144
VEcophysics
p2145
VCLD86
p2146
tp2147
g5
(g6
g7
(dp2148
S'FM_MODEL'
p2149
g2146
sS'FT_TYPE'
p2150
g2144
sS'FM_MANUFACTURER'
p2151
g2145
stp2152
Rp2153
s(VCCNC
p2154
VDMT
p2155
VCCN-100
p2156
tp2157
g5
(g6
g7
(dp2158
S'FM_MODEL'
p2159
g2156
sS'FT_TYPE'
p2160
g2154
sS'FM_MANUFACTURER'
p2161
g2155
stp2162
Rp2163
s(Vprecip_gauge
p2164
VOtt
p2165
V200
p2166
tp2167
g5
(g6
g7
(dp2168
S'FM_MODEL'
p2169
g2166
sS'FT_TYPE'
p2170
g2164
sS'FM_MANUFACTURER'
p2171
g2165
stp2172
Rp2173
s(Vbulk_sampler
p2174
VEigenbrodt
p2175
VUNS130D
p2176
tp2177
g5
(g6
g7
(dp2178
S'FM_MODEL'
p2179
g2176
sS'FT_TYPE'
p2180
g2174
sS'FM_MANUFACTURER'
p2181
g2175
stp2182
Rp2183
s(Vchemiluminescence_molybdenum
p2184
VEcophysics
p2185
VCLD86
p2186
tp2187
g5
(g6
g7
(dp2188
S'FM_MODEL'
p2189
g2186
sS'FT_TYPE'
p2190
g2184
sS'FM_MANUFACTURER'
p2191
g2185
stp2192
Rp2193
s(Vchemiluminescence_photolytic
p2194
VEcophysics
p2195
VCLD66
p2196
tp2197
g5
(g6
g7
(dp2198
S'FM_MODEL'
p2199
g2196
sS'FT_TYPE'
p2200
g2194
sS'FM_MANUFACTURER'
p2201
g2195
stp2202
Rp2203
s(Vlow_vol_sampler
p2204
VLeckel
p2205
VSEQ47/50
p2206
tp2207
g5
(g6
g7
(dp2208
S'FM_MODEL'
p2209
g2206
sS'FT_TYPE'
p2210
g2204
sS'FM_MANUFACTURER'
p2211
g2205
stp2212
Rp2213
s(Vuv_fluoresc
p2214
VThermo
p2215
V43C
p2216
tp2217
g5
(g6
g7
(dp2218
S'FM_MODEL'
p2219
g2216
sS'FT_TYPE'
p2220
g2214
sS'FM_MANUFACTURER'
p2221
g2215
stp2222
Rp2223
s(Vaws
p2224
VCampbell Scientific
p2225
Vcustom built
p2226
tp2227
g5
(g6
g7
(dp2228
S'FM_MODEL'
p2229
g2226
sS'FT_TYPE'
p2230
g2224
sS'FM_MANUFACTURER'
p2231
g2225
stp2232
Rp2233
s(Vcpc
p2234
VTSI
p2235
V3760A
p2236
tp2237
g5
(g6
g7
(dp2238
S'FM_MODEL'
p2239
g2236
sS'FT_TYPE'
p2240
g2234
sS'FM_MANUFACTURER'
p2241
g2235
stp2242
Rp2243
s(Vwet_only_sampler
p2244
VEigenbrodt
p2245
VNSA181
p2246
tp2247
g5
(g6
g7
(dp2248
S'FM_MODEL'
p2249
g2246
sS'FT_TYPE'
p2250
g2244
sS'FM_MANUFACTURER'
p2251
g2245
stp2252
Rp2253
s(Vonline_IC
p2254
VApplikon Analytical
p2255
VMARGA 2S ADI 2080
p2256
tp2257
g5
(g6
g7
(dp2258
S'FM_MODEL'
p2259
g2256
sS'FT_TYPE'
p2260
g2254
sS'FM_MANUFACTURER'
p2261
g2255
stp2262
Rp2263
s(Vlow_vol_sampler
p2264
VDerenda
p2265
VLVS 3.1
p2266
tp2267
g5
(g6
g7
(dp2268
S'FM_MODEL'
p2269
g2266
sS'FT_TYPE'
p2270
g2264
sS'FM_MANUFACTURER'
p2271
g2265
stp2272
Rp2273
s(Vchemiluminescence_photolytic
p2274
VEnvironnement
p2275
VAS32M
p2276
tp2277
g5
(g6
g7
(dp2278
S'FM_MODEL'
p2279
g2276
sS'FT_TYPE'
p2280
g2274
sS'FM_MANUFACTURER'
p2281
g2275
stp2282
Rp2283
s(Vuv_abs
p2284
VTeledyne
p2285
VT400
p2286
tp2287
g5
(g6
g7
(dp2288
S'FM_MODEL'
p2289
g2286
sS'FT_TYPE'
p2290
g2284
sS'FM_MANUFACTURER'
p2291
g2285
stp2292
Rp2293
s(Vbulk_sampler
p2294
VNILU
p2295
VRS1/SF1
p2296
tp2297
g5
(g6
g7
(dp2298
S'FM_MODEL'
p2299
g2296
sS'FT_TYPE'
p2300
g2294
sS'FM_MANUFACTURER'
p2301
g2295
stp2302
Rp2303
s(Vaws
p2304
VVaisala
p2305
VHUMICAP HMP155
p2306
tp2307
g5
(g6
g7
(dp2308
S'FM_MODEL'
p2309
g2306
sS'FT_TYPE'
p2310
g2304
sS'FM_MANUFACTURER'
p2311
g2305
stp2312
Rp2313
s(Vchemiluminescence_molybdenum
p2314
VEcophysics
p2315
VCLD66
p2316
tp2317
g5
(g6
g7
(dp2318
S'FM_MODEL'
p2319
g2316
sS'FT_TYPE'
p2320
g2314
sS'FM_MANUFACTURER'
p2321
g2315
stp2322
Rp2323
s(Vonline_gc
p2324
VMARKES+MARKES+Agilent
p2325
VAir Server-xr+UNITY-xr+8890c GC/FID-FID
p2326
tp2327
g5
(g6
g7
(dp2328
S'FM_MODEL'
p2329
g2326
sS'FT_TYPE'
p2330
g2324
sS'FM_MANUFACTURER'
p2331
g2325
stp2332
Rp2333
s(Vuv_fluoresc
p2334
VThermo
p2335
V43c-TL
p2336
tp2337
g5
(g6
g7
(dp2338
S'FM_MODEL'
p2339
g2336
sS'FT_TYPE'
p2340
g2334
sS'FM_MANUFACTURER'
p2341
g2335
stp2342
Rp2343
s(Vonline_gc
p2344
VDWD+Varian+Varian
p2345
VTD+CX3400+MS-SaturnIII
p2346
tp2347
g5
(g6
g7
(dp2348
S'FM_MODEL'
p2349
g2346
sS'FT_TYPE'
p2350
g2344
sS'FM_MANUFACTURER'
p2351
g2345
stp2352
Rp2353
s(Vdmps
p2354
VUEF
p2355
VUEF_DMPS_2
p2356
tp2357
g5
(g6
g7
(dp2358
S'FM_MODEL'
p2359
g2356
sS'FT_TYPE'
p2360
g2354
sS'FM_MANUFACTURER'
p2361
g2355
stp2362
Rp2363
s(Vsmps
p2364
VTSI
p2365
V3071A+3760A
p2366
tp2367
g5
(g6
g7
(dp2368
S'FM_MODEL'
p2369
g2366
sS'FT_TYPE'
p2370
g2364
sS'FM_MANUFACTURER'
p2371
g2365
stp2372
Rp2373
s(Vchemiluminescence_molybdenum+thermal
p2374
VEcotech
p2375
VSerinus 44
p2376
tp2377
g5
(g6
g7
(dp2378
S'FM_MODEL'
p2379
g2376
sS'FT_TYPE'
p2380
g2374
sS'FM_MANUFACTURER'
p2381
g2375
stp2382
Rp2383
s(Vchemiluminescence_photolytic
p2384
VThermo
p2385
V42C
p2386
tp2387
g5
(g6
g7
(dp2388
S'FM_MODEL'
p2389
g2386
sS'FT_TYPE'
p2390
g2384
sS'FM_MANUFACTURER'
p2391
g2385
stp2392
Rp2393
s(VHg_mon
p2394
VMercury Instruments
p2395
VUT 3000
p2396
tp2397
g5
(g6
g7
(dp2398
S'FM_MODEL'
p2399
g2396
sS'FT_TYPE'
p2400
g2394
sS'FM_MANUFACTURER'
p2401
g2395
stp2402
Rp2403
s(Vonline_gc
p2404
VNIRA
p2405
VVenus 301
p2406
tp2407
g5
(g6
g7
(dp2408
S'FM_MODEL'
p2409
g2406
sS'FT_TYPE'
p2410
g2404
sS'FM_MANUFACTURER'
p2411
g2405
stp2412
Rp2413
s(Vcloud_light_scattering_photometer
p2414
VGerber Scientific, Inc.
p2415
VPVM-100
p2416
tp2417
g5
(g6
g7
(dp2418
S'FM_MODEL'
p2419
g2416
sS'FT_TYPE'
p2420
g2414
sS'FM_MANUFACTURER'
p2421
g2415
stp2422
Rp2423
s(Vglass_sinter
p2424
VWerner-Glas & Instrument AB
p2425
VFK
p2426
tp2427
g5
(g6
g7
(dp2428
S'FM_MODEL'
p2429
g2426
sS'FT_TYPE'
p2430
g2424
sS'FM_MANUFACTURER'
p2431
g2425
stp2432
Rp2433
s(Vchemiluminescence_molybdenum
p2434
VHoriba
p2435
VAPNA-370CE
p2436
tp2437
g5
(g6
g7
(dp2438
S'FM_MODEL'
p2439
g2436
sS'FT_TYPE'
p2440
g2434
sS'FM_MANUFACTURER'
p2441
g2435
stp2442
Rp2443
s(Vbeta_gauge_particulate_sampler
p2444
VThermo
p2445
V5030SHARP
p2446
tp2447
g5
(g6
g7
(dp2448
S'FM_MODEL'
p2449
g2446
sS'FT_TYPE'
p2450
g2444
sS'FM_MANUFACTURER'
p2451
g2445
stp2452
Rp2453
s(Vsmps
p2454
VTROPOS
p2455
VTROPOS-SMPS
p2456
tp2457
g5
(g6
g7
(dp2458
S'FM_MODEL'
p2459
g2456
sS'FT_TYPE'
p2460
g2454
sS'FM_MANUFACTURER'
p2461
g2455
stp2462
Rp2463
s(Vnephelometer
p2464
VOptec
p2465
VNGN-2
p2466
tp2467
g5
(g6
g7
(dp2468
S'FM_MODEL'
p2469
g2466
sS'FT_TYPE'
p2470
g2464
sS'FM_MANUFACTURER'
p2471
g2465
stp2472
Rp2473
s(Vcpc
p2474
VTSI
p2475
V3781
p2476
tp2477
g5
(g6
g7
(dp2478
S'FM_MODEL'
p2479
g2476
sS'FT_TYPE'
p2480
g2474
sS'FM_MANUFACTURER'
p2481
g2475
stp2482
Rp2483
s(Vfilter_absorption_photometer
p2484
VMagee
p2485
VAE42-7
p2486
tp2487
g5
(g6
g7
(dp2488
S'FM_MODEL'
p2489
g2486
sS'FT_TYPE'
p2490
g2484
sS'FM_MANUFACTURER'
p2491
g2485
stp2492
Rp2493
s(Vrotating_shadowband_spectral_radiometer
p2494
VYES
p2495
VMFR-7
p2496
tp2497
g5
(g6
g7
(dp2498
S'FM_MODEL'
p2499
g2496
sS'FT_TYPE'
p2500
g2494
sS'FM_MANUFACTURER'
p2501
g2495
stp2502
Rp2503
s(Vbeta_gauge_particulate_sampler
p2504
VEnvironnement
p2505
VMP101M
p2506
tp2507
g5
(g6
g7
(dp2508
S'FM_MODEL'
p2509
g2506
sS'FT_TYPE'
p2510
g2504
sS'FM_MANUFACTURER'
p2511
g2505
stp2512
Rp2513
s(Vnephelometer
p2514
VEcotech
p2515
VM9003
p2516
tp2517
g5
(g6
g7
(dp2518
S'FM_MODEL'
p2519
g2516
sS'FT_TYPE'
p2520
g2514
sS'FM_MANUFACTURER'
p2521
g2515
stp2522
Rp2523
s(Vnephelometer
p2524
Vacoem
p2525
VAurora 3000
p2526
tp2527
g5
(g6
g7
(dp2528
S'FM_MODEL'
p2529
g2526
sS'FT_TYPE'
p2530
g2524
sS'FM_MANUFACTURER'
p2531
g2525
stp2532
Rp2533
s(Vsmps
p2534
VGRIMM
p2535
V55-900+5.414
p2536
tp2537
g5
(g6
g7
(dp2538
S'FM_MODEL'
p2539
g2536
sS'FT_TYPE'
p2540
g2534
sS'FM_MANUFACTURER'
p2541
g2535
stp2542
Rp2543
s(Vhigh_vol_sampler
p2544
VThermo
p2545
VGV2360
p2546
tp2547
g5
(g6
g7
(dp2548
S'FM_MODEL'
p2549
g2546
sS'FT_TYPE'
p2550
g2544
sS'FM_MANUFACTURER'
p2551
g2545
stp2552
Rp2553
s(Vdmps
p2554
VLU
p2555
Vdmps
p2556
tp2557
g5
(g6
g7
(dp2558
S'FM_MODEL'
p2559
g2556
sS'FT_TYPE'
p2560
g2554
sS'FM_MANUFACTURER'
p2561
g2555
stp2562
Rp2563
s(Vinfrared_absorption
p2564
VTeledyne
p2565
VT300
p2566
tp2567
g5
(g6
g7
(dp2568
S'FM_MODEL'
p2569
g2566
sS'FT_TYPE'
p2570
g2564
sS'FM_MANUFACTURER'
p2571
g2565
stp2572
Rp2573
s(Vfilter_absorption_photometer
p2574
VThermo
p2575
V5012
p2576
tp2577
g5
(g6
g7
(dp2578
S'FM_MODEL'
p2579
g2576
sS'FT_TYPE'
p2580
g2574
sS'FM_MANUFACTURER'
p2581
g2575
stp2582
Rp2583
s(VPTR-MS
p2584
VIonicon Analytik
p2585
VPTR-TOF 10k
p2586
tp2587
g5
(g6
g7
(dp2588
S'FM_MODEL'
p2589
g2586
sS'FT_TYPE'
p2590
g2584
sS'FM_MANUFACTURER'
p2591
g2585
stp2592
Rp2593
s(Vaws
p2594
VLufft
p2595
VWS200
p2596
tp2597
g5
(g6
g7
(dp2598
S'FM_MODEL'
p2599
g2596
sS'FT_TYPE'
p2600
g2594
sS'FM_MANUFACTURER'
p2601
g2595
stp2602
Rp2603
s(Vchemiluminescence_molybdenum
p2604
VHoriba
p2605
VAPNA-370
p2606
tp2607
g5
(g6
g7
(dp2608
S'FM_MODEL'
p2609
g2606
sS'FT_TYPE'
p2610
g2604
sS'FM_MANUFACTURER'
p2611
g2605
stp2612
Rp2613
s(Vuv_abs
p2614
VEcotech
p2615
VML 9810
p2616
tp2617
g5
(g6
g7
(dp2618
S'FM_MODEL'
p2619
g2616
sS'FT_TYPE'
p2620
g2614
sS'FM_MANUFACTURER'
p2621
g2615
stp2622
Rp2623
s(Vaws
p2624
VVaisala
p2625
VBAROCAP PTB210
p2626
tp2627
g5
(g6
g7
(dp2628
S'FM_MODEL'
p2629
g2626
sS'FT_TYPE'
p2630
g2624
sS'FM_MANUFACTURER'
p2631
g2625
stp2632
Rp2633
s(Vcpc
p2634
VTSI
p2635
V3755
p2636
tp2637
g5
(g6
g7
(dp2638
S'FM_MODEL'
p2639
g2636
sS'FT_TYPE'
p2640
g2634
sS'FM_MANUFACTURER'
p2641
g2635
stp2642
Rp2643
s(VTEOM
p2644
VRupprecht&Patashnick
p2645
V1400
p2646
tp2647
g5
(g6
g7
(dp2648
S'FM_MODEL'
p2649
g2646
sS'FT_TYPE'
p2650
g2644
sS'FM_MANUFACTURER'
p2651
g2645
stp2652
Rp2653
s(Voptical_particle_size_spectrometer
p2654
VAlphasense
p2655
VOPC-N3
p2656
tp2657
g5
(g6
g7
(dp2658
S'FM_MODEL'
p2659
g2656
sS'FT_TYPE'
p2660
g2654
sS'FM_MANUFACTURER'
p2661
g2655
stp2662
Rp2663
s(Vchemiluminescence_molybdenum
p2664
VEcophysics
p2665
VCLD780TR
p2666
tp2667
g5
(g6
g7
(dp2668
S'FM_MODEL'
p2669
g2666
sS'FT_TYPE'
p2670
g2664
sS'FM_MANUFACTURER'
p2671
g2665
stp2672
Rp2673
s(Vhigh_vol_sampler
p2674
VMCV
p2675
VCAV-A/MSb
p2676
tp2677
g5
(g6
g7
(dp2678
S'FM_MODEL'
p2679
g2676
sS'FT_TYPE'
p2680
g2674
sS'FM_MANUFACTURER'
p2681
g2675
stp2682
Rp2683
s(Vuv_abs
p2684
VDasibi
p2685
V1108
p2686
tp2687
g5
(g6
g7
(dp2688
S'FM_MODEL'
p2689
g2686
sS'FT_TYPE'
p2690
g2684
sS'FM_MANUFACTURER'
p2691
g2685
stp2692
Rp2693
s(Vndir
p2694
VThermo
p2695
V48i TLE
p2696
tp2697
g5
(g6
g7
(dp2698
S'FM_MODEL'
p2699
g2696
sS'FT_TYPE'
p2700
g2694
sS'FM_MANUFACTURER'
p2701
g2695
stp2702
Rp2703
s(Vonline_gc
p2704
VBoulder AIR+Agilent
p2705
VBA-NMHC-3116+6890 GC/FID
p2706
tp2707
g5
(g6
g7
(dp2708
S'FM_MODEL'
p2709
g2706
sS'FT_TYPE'
p2710
g2704
sS'FM_MANUFACTURER'
p2711
g2705
stp2712
Rp2713
s(Vonline_gc
p2714
VEnvea
p2715
VVOC72M
p2716
tp2717
g5
(g6
g7
(dp2718
S'FM_MODEL'
p2719
g2716
sS'FT_TYPE'
p2720
g2714
sS'FM_MANUFACTURER'
p2721
g2715
stp2722
Rp2723
s(Vlow_vol_sampler
p2724
VLAERO INDAAF
p2725
VINDAAF_aerosol_collector
p2726
tp2727
g5
(g6
g7
(dp2728
S'FM_MODEL'
p2729
g2726
sS'FT_TYPE'
p2730
g2724
sS'FM_MANUFACTURER'
p2731
g2725
stp2732
Rp2733
s(Vfilter_absorption_photometer
p2734
VMagee
p2735
VOT21
p2736
tp2737
g5
(g6
g7
(dp2738
S'FM_MODEL'
p2739
g2736
sS'FT_TYPE'
p2740
g2734
sS'FM_MANUFACTURER'
p2741
g2735
stp2742
Rp2743
s(VHg_mon
p2744
VLumex
p2745
VRA-915AM
p2746
tp2747
g5
(g6
g7
(dp2748
S'FM_MODEL'
p2749
g2746
sS'FT_TYPE'
p2750
g2744
sS'FM_MANUFACTURER'
p2751
g2745
stp2752
Rp2753
s(Vlow_vol_sampler
p2754
VUmwettechnik MCZ Gmbh
p2755
VMicroPNS
p2756
tp2757
g5
(g6
g7
(dp2758
S'FM_MODEL'
p2759
g2756
sS'FT_TYPE'
p2760
g2754
sS'FM_MANUFACTURER'
p2761
g2755
stp2762
Rp2763
s(Vfilter_3pack
p2764
VRiemer
p2765
VSPF4
p2766
tp2767
g5
(g6
g7
(dp2768
S'FM_MODEL'
p2769
g2766
sS'FT_TYPE'
p2770
g2764
sS'FM_MANUFACTURER'
p2771
g2765
stp2772
Rp2773
s(Vsmps
p2774
VTSI
p2775
V3071A+3010
p2776
tp2777
g5
(g6
g7
(dp2778
S'FM_MODEL'
p2779
g2776
sS'FT_TYPE'
p2780
g2774
sS'FM_MANUFACTURER'
p2781
g2775
stp2782
Rp2783
s(Vwet_only_sampler
p2784
VMCV
p2785
VCL-002
p2786
tp2787
g5
(g6
g7
(dp2788
S'FM_MODEL'
p2789
g2786
sS'FT_TYPE'
p2790
g2784
sS'FM_MANUFACTURER'
p2791
g2785
stp2792
Rp2793
s(Vdmps
p2794
VGRIMM
p2795
V55-900+5.414
p2796
tp2797
g5
(g6
g7
(dp2798
S'FM_MODEL'
p2799
g2796
sS'FT_TYPE'
p2800
g2794
sS'FM_MANUFACTURER'
p2801
g2795
stp2802
Rp2803
s(Vbulk_sampler
p2804
VEigenbrodt
p2805
VUNS130E
p2806
tp2807
g5
(g6
g7
(dp2808
S'FM_MODEL'
p2809
g2806
sS'FT_TYPE'
p2810
g2804
sS'FM_MANUFACTURER'
p2811
g2805
stp2812
Rp2813
s(Vonline_gc
p2814
VBoulder AIR+Agilent+Agilent
p2815
VBA-NMHC-3116+8860 GC/FID+5977 MS
p2816
tp2817
g5
(g6
g7
(dp2818
S'FM_MODEL'
p2819
g2816
sS'FT_TYPE'
p2820
g2814
sS'FM_MANUFACTURER'
p2821
g2815
stp2822
Rp2823
s(Vwet_only_sampler
p2824
VEigenbrodt
p2825
VNSA171
p2826
tp2827
g5
(g6
g7
(dp2828
S'FM_MODEL'
p2829
g2826
sS'FT_TYPE'
p2830
g2824
sS'FM_MANUFACTURER'
p2831
g2825
stp2832
Rp2833
s(Vdmps
p2834
VGRIMM
p2835
V55-340+5.414
p2836
tp2837
g5
(g6
g7
(dp2838
S'FM_MODEL'
p2839
g2836
sS'FT_TYPE'
p2840
g2834
sS'FM_MANUFACTURER'
p2841
g2835
stp2842
Rp2843
s(Vaws
p2844
VLambrecht
p2845
V14512
p2846
tp2847
g5
(g6
g7
(dp2848
S'FM_MODEL'
p2849
g2846
sS'FT_TYPE'
p2850
g2844
sS'FM_MANUFACTURER'
p2851
g2845
stp2852
Rp2853
s(Vuv_abs
p2854
VDylec
p2855
V1100
p2856
tp2857
g5
(g6
g7
(dp2858
S'FM_MODEL'
p2859
g2856
sS'FT_TYPE'
p2860
g2854
sS'FM_MANUFACTURER'
p2861
g2855
stp2862
Rp2863
s(Vaerosol_mass_spectrometer
p2864
VAerodyne
p2865
VToF-ACSM
p2866
tp2867
g5
(g6
g7
(dp2868
S'FM_MODEL'
p2869
g2866
sS'FT_TYPE'
p2870
g2864
sS'FM_MANUFACTURER'
p2871
g2865
stp2872
Rp2873
s(Vaws
p2874
VVaisala
p2875
Vcustom built
p2876
tp2877
g5
(g6
g7
(dp2878
S'FM_MODEL'
p2879
g2876
sS'FT_TYPE'
p2880
g2874
sS'FM_MANUFACTURER'
p2881
g2875
stp2882
Rp2883
s(Vonline_gc
p2884
VEMPA+Agilent+Agilent
p2885
VMADS+6890N+5973N
p2886
tp2887
g5
(g6
g7
(dp2888
S'FM_MODEL'
p2889
g2886
sS'FT_TYPE'
p2890
g2884
sS'FM_MANUFACTURER'
p2891
g2885
stp2892
Rp2893
s(Vhigh_vol_sampler
p2894
VUmwelttechnik MCZ GmbH
p2895
VHVS16
p2896
tp2897
g5
(g6
g7
(dp2898
S'FM_MODEL'
p2899
g2896
sS'FT_TYPE'
p2900
g2894
sS'FM_MANUFACTURER'
p2901
g2895
stp2902
Rp2903
s(Vads_tube
p2904
VSIGMA-ALDRICH
p2905
VLpDNPH S10
p2906
tp2907
g5
(g6
g7
(dp2908
S'FM_MODEL'
p2909
g2906
sS'FT_TYPE'
p2910
g2904
sS'FM_MANUFACTURER'
p2911
g2905
stp2912
Rp2913
s(Vads_tube
p2914
VWaters
p2915
VSep-Pak XPoSure Sampler WAT047205
p2916
tp2917
g5
(g6
g7
(dp2918
S'FM_MODEL'
p2919
g2916
sS'FT_TYPE'
p2920
g2914
sS'FM_MANUFACTURER'
p2921
g2915
stp2922
Rp2923
s(Vbulk_sampler
p2924
VNILU
p2925
VRS1
p2926
tp2927
g5
(g6
g7
(dp2928
S'FM_MODEL'
p2929
g2926
sS'FT_TYPE'
p2930
g2924
sS'FM_MANUFACTURER'
p2931
g2925
stp2932
Rp2933
s(Vonline_gc
p2934
VVarian
p2935
VGC-3800
p2936
tp2937
g5
(g6
g7
(dp2938
S'FM_MODEL'
p2939
g2936
sS'FT_TYPE'
p2940
g2934
sS'FM_MANUFACTURER'
p2941
g2935
stp2942
Rp2943
s(Vonline_crds
p2944
VPicarro
p2945
VG2301
p2946
tp2947
g5
(g6
g7
(dp2948
S'FM_MODEL'
p2949
g2946
sS'FT_TYPE'
p2950
g2944
sS'FM_MANUFACTURER'
p2951
g2945
stp2952
Rp2953
s(Vuv_abs
p2954
VThermo
p2955
V49i
p2956
tp2957
g5
(g6
g7
(dp2958
S'FM_MODEL'
p2959
g2956
sS'FT_TYPE'
p2960
g2954
sS'FM_MANUFACTURER'
p2961
g2955
stp2962
Rp2963
s(Vlow_vol_sampler
p2964
VRupprecht&Patashnick
p2965
V8400N nitrate monitor
p2966
tp2967
g5
(g6
g7
(dp2968
S'FM_MODEL'
p2969
g2966
sS'FT_TYPE'
p2970
g2964
sS'FM_MANUFACTURER'
p2971
g2965
stp2972
Rp2973
s(Vchemiluminescence_molybdenum
p2974
VAerodyne
p2975
VQCL
p2976
tp2977
g5
(g6
g7
(dp2978
S'FM_MODEL'
p2979
g2976
sS'FT_TYPE'
p2980
g2974
sS'FM_MANUFACTURER'
p2981
g2975
stp2982
Rp2983
s(Vlow_vol_sampler
p2984
VTCR Tecora
p2985
VSkypost
p2986
tp2987
g5
(g6
g7
(dp2988
S'FM_MODEL'
p2989
g2986
sS'FT_TYPE'
p2990
g2984
sS'FM_MANUFACTURER'
p2991
g2985
stp2992
Rp2993
s(Vaws
p2994
VVaisala
p2995
VWXT520
p2996
tp2997
g5
(g6
g7
(dp2998
S'FM_MODEL'
p2999
g2996
sS'FT_TYPE'
p3000
g2994
sS'FM_MANUFACTURER'
p3001
g2995
stp3002
Rp3003
s(Vsun_tracking_filter_radiometer
p3004
VMiddleton Solar
p3005
VSP02
p3006
tp3007
g5
(g6
g7
(dp3008
S'FM_MODEL'
p3009
g3006
sS'FT_TYPE'
p3010
g3004
sS'FM_MANUFACTURER'
p3011
g3005
stp3012
Rp3013
s(Vuv_fluoresc
p3014
VThermo
p3015
V43BS
p3016
tp3017
g5
(g6
g7
(dp3018
S'FM_MODEL'
p3019
g3016
sS'FT_TYPE'
p3020
g3014
sS'FM_MANUFACTURER'
p3021
g3015
stp3022
Rp3023
s(Vonline_gc
p3024
VPerkinElmer
p3025
VClarus 580
p3026
tp3027
g5
(g6
g7
(dp3028
S'FM_MODEL'
p3029
g3026
sS'FT_TYPE'
p3030
g3024
sS'FM_MANUFACTURER'
p3031
g3025
stp3032
Rp3033
s(Vhigh_vol_sampler
p3034
VThermo
p3035
VMFC-PM10
p3036
tp3037
g5
(g6
g7
(dp3038
S'FM_MODEL'
p3039
g3036
sS'FT_TYPE'
p3040
g3034
sS'FM_MANUFACTURER'
p3041
g3035
stp3042
Rp3043
s(Vvuv_fluorescence
p3044
VAero-Laser
p3045
VAL5001
p3046
tp3047
g5
(g6
g7
(dp3048
S'FM_MODEL'
p3049
g3046
sS'FT_TYPE'
p3050
g3044
sS'FM_MANUFACTURER'
p3051
g3045
stp3052
Rp3053
s(Vads_tube
p3054
VPerkinElmer
p3055
VStainless steel Tenax TA/Carbopack B
p3056
tp3057
g5
(g6
g7
(dp3058
S'FM_MODEL'
p3059
g3056
sS'FT_TYPE'
p3060
g3054
sS'FM_MANUFACTURER'
p3061
g3055
stp3062
Rp3063
s(Vcpc
p3064
VTSI
p3065
V3775
p3066
tp3067
g5
(g6
g7
(dp3068
S'FM_MODEL'
p3069
g3066
sS'FT_TYPE'
p3070
g3064
sS'FM_MANUFACTURER'
p3071
g3065
stp3072
Rp3073
s(Vonline_gc
p3074
VPerkinElmer+PerkinElmer+PerkinElmer
p3075
VATD650+GC680+MSSQ8T
p3076
tp3077
g5
(g6
g7
(dp3078
S'FM_MODEL'
p3079
g3076
sS'FT_TYPE'
p3080
g3074
sS'FM_MANUFACTURER'
p3081
g3075
stp3082
Rp3083
s(Vuv_abs
p3084
VEbara
p3085
VEG-2001F
p3086
tp3087
g5
(g6
g7
(dp3088
S'FM_MODEL'
p3089
g3086
sS'FT_TYPE'
p3090
g3084
sS'FM_MANUFACTURER'
p3091
g3085
stp3092
Rp3093
s(Vuv_abs
p3094
VMonitor Labs
p3095
V9810
p3096
tp3097
g5
(g6
g7
(dp3098
S'FM_MODEL'
p3099
g3096
sS'FT_TYPE'
p3100
g3094
sS'FM_MANUFACTURER'
p3101
g3095
stp3102
Rp3103
s(Vchemiluminescence_photolytic
p3104
VEcophysics
p3105
VCLD899
p3106
tp3107
g5
(g6
g7
(dp3108
S'FM_MODEL'
p3109
g3106
sS'FT_TYPE'
p3110
g3104
sS'FM_MANUFACTURER'
p3111
g3105
stp3112
Rp3113
s(Vfilter_3pack
p3114
VDado lab
p3115
VQB1e
p3116
tp3117
g5
(g6
g7
(dp3118
S'FM_MODEL'
p3119
g3116
sS'FT_TYPE'
p3120
g3114
sS'FM_MANUFACTURER'
p3121
g3115
stp3122
Rp3123
s(Vads_tube
p3124
VTERA Environnement
p3125
Vunspecified
p3126
tp3127
g5
(g6
g7
(dp3128
S'FM_MODEL'
p3129
g3126
sS'FT_TYPE'
p3130
g3124
sS'FM_MANUFACTURER'
p3131
g3125
stp3132
Rp3133
s(Vchemiluminescence_photolytic
p3134
VEcophysics
p3135
VCLD88
p3136
tp3137
g5
(g6
g7
(dp3138
S'FM_MODEL'
p3139
g3136
sS'FT_TYPE'
p3140
g3134
sS'FM_MANUFACTURER'
p3141
g3135
stp3142
Rp3143
s(Vnephelometer
p3144
VMS Electron
p3145
V3W-02
p3146
tp3147
g5
(g6
g7
(dp3148
S'FM_MODEL'
p3149
g3146
sS'FT_TYPE'
p3150
g3144
sS'FM_MANUFACTURER'
p3151
g3145
stp3152
Rp3153
s(Vads_tube
p3154
VPaldaman
p3155
VAS100
p3156
tp3157
g5
(g6
g7
(dp3158
S'FM_MODEL'
p3159
g3156
sS'FT_TYPE'
p3160
g3154
sS'FM_MANUFACTURER'
p3161
g3155
stp3162
Rp3163
s(Vfilter_1pack
p3164
VECCC
p3165
VOne stage inline
p3166
tp3167
g5
(g6
g7
(dp3168
S'FM_MODEL'
p3169
g3166
sS'FT_TYPE'
p3170
g3164
sS'FM_MANUFACTURER'
p3171
g3165
stp3172
Rp3173
s(Vprecip_gauge
p3174
VEigenbrodt
p3175
VWXT
p3176
tp3177
g5
(g6
g7
(dp3178
S'FM_MODEL'
p3179
g3176
sS'FT_TYPE'
p3180
g3174
sS'FM_MANUFACTURER'
p3181
g3175
stp3182
Rp3183
s(Vaws
p3184
VVaisala
p3185
VBAROCAP PTB110
p3186
tp3187
g5
(g6
g7
(dp3188
S'FM_MODEL'
p3189
g3186
sS'FT_TYPE'
p3190
g3184
sS'FM_MANUFACTURER'
p3191
g3185
stp3192
Rp3193
s(Vsteel_canister
p3194
VRiemer
p3195
VAUTOCAN 2_4
p3196
tp3197
g5
(g6
g7
(dp3198
S'FM_MODEL'
p3199
g3196
sS'FT_TYPE'
p3200
g3194
sS'FM_MANUFACTURER'
p3201
g3195
stp3202
Rp3203
s(Vchemiluminescence_molybdenum+thermal
p3204
VTeledyne API
p3205
VT201
p3206
tp3207
g5
(g6
g7
(dp3208
S'FM_MODEL'
p3209
g3206
sS'FT_TYPE'
p3210
g3204
sS'FM_MANUFACTURER'
p3211
g3205
stp3212
Rp3213
s(Vonline_gc
p3214
VSyntech Spectras
p3215
VGC955
p3216
tp3217
g5
(g6
g7
(dp3218
S'FM_MODEL'
p3219
g3216
sS'FT_TYPE'
p3220
g3214
sS'FM_MANUFACTURER'
p3221
g3215
stp3222
Rp3223
s(Vdmps
p3224
VGRIMM
p3225
V55-100+5.705+5.706
p3226
tp3227
g5
(g6
g7
(dp3228
S'FM_MODEL'
p3229
g3226
sS'FT_TYPE'
p3230
g3224
sS'FM_MANUFACTURER'
p3231
g3225
stp3232
Rp3233
s(Vaws
p3234
VVaisala
p3235
VAWS310
p3236
tp3237
g5
(g6
g7
(dp3238
S'FM_MODEL'
p3239
g3236
sS'FT_TYPE'
p3240
g3234
sS'FM_MANUFACTURER'
p3241
g3235
stp3242
Rp3243
s(Vonline_gc
p3244
VSRI
p3245
VSRI-310 GC/FID
p3246
tp3247
g5
(g6
g7
(dp3248
S'FM_MODEL'
p3249
g3246
sS'FT_TYPE'
p3250
g3244
sS'FM_MANUFACTURER'
p3251
g3245
stp3252
Rp3253
s(Vuv_fluoresc
p3254
VThermo
p3255
V43i
p3256
tp3257
g5
(g6
g7
(dp3258
S'FM_MODEL'
p3259
g3256
sS'FT_TYPE'
p3260
g3254
sS'FM_MANUFACTURER'
p3261
g3255
stp3262
Rp3263
s(Vchemiluminescence_photolytic
p3264
VLosGatosResearch
p3265
VCRD
p3266
tp3267
g5
(g6
g7
(dp3268
S'FM_MODEL'
p3269
g3266
sS'FT_TYPE'
p3270
g3264
sS'FM_MANUFACTURER'
p3271
g3265
stp3272
Rp3273
s(Vsmps
p3274
VTSI
p3275
V3936
p3276
tp3277
g5
(g6
g7
(dp3278
S'FM_MODEL'
p3279
g3276
sS'FT_TYPE'
p3280
g3274
sS'FM_MANUFACTURER'
p3281
g3275
stp3282
Rp3283
s(Vonline_gc
p3284
VAgilent+NILU
p3285
V6890N/D-3-I PDHID+NILU_GasInjectionSystem
p3286
tp3287
g5
(g6
g7
(dp3288
S'FM_MODEL'
p3289
g3286
sS'FT_TYPE'
p3290
g3284
sS'FM_MANUFACTURER'
p3291
g3285
stp3292
Rp3293
s(Vlow_vol_sampler
p3294
VMCV
p3295
VCBV-1Dm
p3296
tp3297
g5
(g6
g7
(dp3298
S'FM_MODEL'
p3299
g3296
sS'FT_TYPE'
p3300
g3294
sS'FM_MANUFACTURER'
p3301
g3295
stp3302
Rp3303
s(Vfilter_absorption_photometer
p3304
VMagee
p3305
VAE30
p3306
tp3307
g5
(g6
g7
(dp3308
S'FM_MODEL'
p3309
g3306
sS'FT_TYPE'
p3310
g3304
sS'FM_MANUFACTURER'
p3311
g3305
stp3312
Rp3313
s(Vhigh_vol_sampler
p3314
VAndersen
p3315
VMFC-PM10
p3316
tp3317
g5
(g6
g7
(dp3318
S'FM_MODEL'
p3319
g3316
sS'FT_TYPE'
p3320
g3314
sS'FM_MANUFACTURER'
p3321
g3315
stp3322
Rp3323
s(Vuv_abs
p3324
VThermo
p3325
V49
p3326
tp3327
g5
(g6
g7
(dp3328
S'FM_MODEL'
p3329
g3326
sS'FT_TYPE'
p3330
g3324
sS'FM_MANUFACTURER'
p3331
g3325
stp3332
Rp3333
s(Vonline_crds
p3334
VPicarro
p3335
VG2402
p3336
tp3337
g5
(g6
g7
(dp3338
S'FM_MODEL'
p3339
g3336
sS'FT_TYPE'
p3340
g3334
sS'FM_MANUFACTURER'
p3341
g3335
stp3342
Rp3343
s(Vcpc
p3344
VAerosol Dynamics
p3345
VMAGIC 250
p3346
tp3347
g5
(g6
g7
(dp3348
S'FM_MODEL'
p3349
g3346
sS'FT_TYPE'
p3350
g3344
sS'FM_MANUFACTURER'
p3351
g3345
stp3352
Rp3353
s(Vnephelometer
p3354
VEcotech
p3355
VAurora3000
p3356
tp3357
g5
(g6
g7
(dp3358
S'FM_MODEL'
p3359
g3356
sS'FT_TYPE'
p3360
g3354
sS'FM_MANUFACTURER'
p3361
g3355
stp3362
Rp3363
s(Vpollen_monitor
p3364
VSwisens
p3365
VSwisensPoleno Jupiter
p3366
tp3367
g5
(g6
g7
(dp3368
S'FM_MODEL'
p3369
g3366
sS'FT_TYPE'
p3370
g3364
sS'FM_MANUFACTURER'
p3371
g3365
stp3372
Rp3373
s(Vchemiluminescence_photolytic
p3374
VHoriba
p3375
VAPNA-370
p3376
tp3377
g5
(g6
g7
(dp3378
S'FM_MODEL'
p3379
g3376
sS'FT_TYPE'
p3380
g3374
sS'FM_MANUFACTURER'
p3381
g3375
stp3382
Rp3383
s(Vcpc
p3384
VAirmodus
p3385
VA11
p3386
tp3387
g5
(g6
g7
(dp3388
S'FM_MODEL'
p3389
g3386
sS'FT_TYPE'
p3390
g3384
sS'FM_MANUFACTURER'
p3391
g3385
stp3392
Rp3393
s(Vdmps
p3394
VITM
p3395
VNew_Haddock
p3396
tp3397
g5
(g6
g7
(dp3398
S'FM_MODEL'
p3399
g3396
sS'FT_TYPE'
p3400
g3394
sS'FM_MANUFACTURER'
p3401
g3395
stp3402
Rp3403
s(Vlow_vol_sampler
p3404
VRupprecht&Patashnick
p3405
V8400S sulphate monitor
p3406
tp3407
g5
(g6
g7
(dp3408
S'FM_MODEL'
p3409
g3406
sS'FT_TYPE'
p3410
g3404
sS'FM_MANUFACTURER'
p3411
g3405
stp3412
Rp3413
s(Vfilter_absorption_photometer
p3414
VMagee
p3415
VAE22
p3416
tp3417
g5
(g6
g7
(dp3418
S'FM_MODEL'
p3419
g3416
sS'FT_TYPE'
p3420
g3414
sS'FM_MANUFACTURER'
p3421
g3415
stp3422
Rp3423
s(Vwet_only_sampler
p3424
VEigenbrodt
p3425
VNSA181KHT
p3426
tp3427
g5
(g6
g7
(dp3428
S'FM_MODEL'
p3429
g3426
sS'FT_TYPE'
p3430
g3424
sS'FM_MANUFACTURER'
p3431
g3425
stp3432
Rp3433
s(Vchemiluminescence_photolytic
p3434
VEcophysics
p3435
VCLD700AL
p3436
tp3437
g5
(g6
g7
(dp3438
S'FM_MODEL'
p3439
g3436
sS'FT_TYPE'
p3440
g3434
sS'FM_MANUFACTURER'
p3441
g3435
stp3442
Rp3443
s(Vuv_abs
p3444
VHoriba
p3445
VAPOA-360CE
p3446
tp3447
g5
(g6
g7
(dp3448
S'FM_MODEL'
p3449
g3446
sS'FT_TYPE'
p3450
g3444
sS'FM_MANUFACTURER'
p3451
g3445
stp3452
Rp3453
s(Vdenuder
p3454
VECN
p3455
VAmor
p3456
tp3457
g5
(g6
g7
(dp3458
S'FM_MODEL'
p3459
g3456
sS'FT_TYPE'
p3460
g3454
sS'FM_MANUFACTURER'
p3461
g3455
stp3462
Rp3463
s(Vchemiluminescence_photolytic
p3464
VEcophysics
p3465
VCLD64
p3466
tp3467
g5
(g6
g7
(dp3468
S'FM_MODEL'
p3469
g3466
sS'FT_TYPE'
p3470
g3464
sS'FM_MANUFACTURER'
p3471
g3465
stp3472
Rp3473
s(Vchemiluminescence_molybdenum
p3474
VEnvironnement
p3475
VAC32M
p3476
tp3477
g5
(g6
g7
(dp3478
S'FM_MODEL'
p3479
g3476
sS'FT_TYPE'
p3480
g3474
sS'FM_MANUFACTURER'
p3481
g3475
stp3482
Rp3483
s(Vfilter_1pack
p3484
VIMWM
p3485
VOne stage inline
p3486
tp3487
g5
(g6
g7
(dp3488
S'FM_MODEL'
p3489
g3486
sS'FT_TYPE'
p3490
g3484
sS'FM_MANUFACTURER'
p3491
g3485
stp3492
Rp3493
s(Vfilter_absorption_photometer
p3494
VMagee
p3495
VAE8
p3496
tp3497
g5
(g6
g7
(dp3498
S'FM_MODEL'
p3499
g3496
sS'FT_TYPE'
p3500
g3494
sS'FM_MANUFACTURER'
p3501
g3495
stp3502
Rp3503
s(Vuv_abs
p3504
VTeledyne API
p3505
V400E
p3506
tp3507
g5
(g6
g7
(dp3508
S'FM_MODEL'
p3509
g3506
sS'FT_TYPE'
p3510
g3504
sS'FM_MANUFACTURER'
p3511
g3505
stp3512
Rp3513
s(Vwet_only_sampler
p3514
VHWI Elektronika
p3515
Vcustom built
p3516
tp3517
g5
(g6
g7
(dp3518
S'FM_MODEL'
p3519
g3516
sS'FT_TYPE'
p3520
g3514
sS'FM_MANUFACTURER'
p3521
g3515
stp3522
Rp3523
s(Vwet_only_sampler
p3524
VEigenbrodt
p3525
VUNS130D
p3526
tp3527
g5
(g6
g7
(dp3528
S'FM_MODEL'
p3529
g3526
sS'FT_TYPE'
p3530
g3524
sS'FM_MANUFACTURER'
p3531
g3525
stp3532
Rp3533
s(Vchemiluminescence_photolytic
p3534
Vairqualitydesign
p3535
VCLD
p3536
tp3537
g5
(g6
g7
(dp3538
S'FM_MODEL'
p3539
g3536
sS'FT_TYPE'
p3540
g3534
sS'FM_MANUFACTURER'
p3541
g3535
stp3542
Rp3543
s(Vsmps
p3544
VTSI
p3545
V3071A+3025A
p3546
tp3547
g5
(g6
g7
(dp3548
S'FM_MODEL'
p3549
g3546
sS'FT_TYPE'
p3550
g3544
sS'FM_MANUFACTURER'
p3551
g3545
stp3552
Rp3553
s(Vonline_gc
p3554
VAgilent
p3555
V5975GC/MS
p3556
tp3557
g5
(g6
g7
(dp3558
S'FM_MODEL'
p3559
g3556
sS'FT_TYPE'
p3560
g3554
sS'FM_MANUFACTURER'
p3561
g3555
stp3562
Rp3563
s(Vchemiluminescence_molybdenum+thermal
p3564
VThermo
p3565
V17i Ammonia Analyzer
p3566
tp3567
g5
(g6
g7
(dp3568
S'FM_MODEL'
p3569
g3566
sS'FT_TYPE'
p3570
g3564
sS'FM_MANUFACTURER'
p3571
g3565
stp3572
Rp3573
s(Vlow_vol_sampler
p3574
VThermo
p3575
VPartisol2000i
p3576
tp3577
g5
(g6
g7
(dp3578
S'FM_MODEL'
p3579
g3576
sS'FT_TYPE'
p3580
g3574
sS'FM_MANUFACTURER'
p3581
g3575
stp3582
Rp3583
s(Vdmps
p3584
VUHEL
p3585
VDMPS_HYY_01
p3586
tp3587
g5
(g6
g7
(dp3588
S'FM_MODEL'
p3589
g3586
sS'FT_TYPE'
p3590
g3584
sS'FM_MANUFACTURER'
p3591
g3585
stp3592
Rp3593
s(Vlow_vol_sampler
p3594
VDerenda
p3595
VPNS 16T
p3596
tp3597
g5
(g6
g7
(dp3598
S'FM_MODEL'
p3599
g3596
sS'FT_TYPE'
p3600
g3594
sS'FM_MANUFACTURER'
p3601
g3595
stp3602
Rp3603
s(Vchemiluminescence_photolytic
p3604
VEcophysics
p3605
VCRANOX
p3606
tp3607
g5
(g6
g7
(dp3608
S'FM_MODEL'
p3609
g3606
sS'FT_TYPE'
p3610
g3604
sS'FM_MANUFACTURER'
p3611
g3605
stp3612
Rp3613
s(Vfilter_absorption_photometer
p3614
VMagee
p3615
VAE31
p3616
tp3617
g5
(g6
g7
(dp3618
S'FM_MODEL'
p3619
g3616
sS'FT_TYPE'
p3620
g3614
sS'FM_MANUFACTURER'
p3621
g3615
stp3622
Rp3623
s(VDMPS-CCNC
p3624
VNILU+DMT
p3625
VDMPSmodel2+CCN-100
p3626
tp3627
g5
(g6
g7
(dp3628
S'FM_MODEL'
p3629
g3626
sS'FT_TYPE'
p3630
g3624
sS'FM_MANUFACTURER'
p3631
g3625
stp3632
Rp3633
s(Vchemiluminescence_molybdenum
p3634
VThermo
p3635
V42i
p3636
tp3637
g5
(g6
g7
(dp3638
S'FM_MODEL'
p3639
g3636
sS'FT_TYPE'
p3640
g3634
sS'FM_MANUFACTURER'
p3641
g3635
stp3642
Rp3643
s(Vuv_fluoresc
p3644
VTeledyne API
p3645
VT0101
p3646
tp3647
g5
(g6
g7
(dp3648
S'FM_MODEL'
p3649
g3646
sS'FT_TYPE'
p3650
g3644
sS'FM_MANUFACTURER'
p3651
g3645
stp3652
Rp3653
s(Vuv_fluoresc
p3654
VThermo
p3655
V43i-TL
p3656
tp3657
g5
(g6
g7
(dp3658
S'FM_MODEL'
p3659
g3656
sS'FT_TYPE'
p3660
g3654
sS'FM_MANUFACTURER'
p3661
g3655
stp3662
Rp3663
s(Vglass_sinter
p3664
VNILU
p3665
VSS2000
p3666
tp3667
g5
(g6
g7
(dp3668
S'FM_MODEL'
p3669
g3666
sS'FT_TYPE'
p3670
g3664
sS'FM_MANUFACTURER'
p3671
g3665
stp3672
Rp3673
s(VTEOM
p3674
VThermo
p3675
V1405
p3676
tp3677
g5
(g6
g7
(dp3678
S'FM_MODEL'
p3679
g3676
sS'FT_TYPE'
p3680
g3674
sS'FM_MANUFACTURER'
p3681
g3675
stp3682
Rp3683
s(Vlow_vol_sampler
p3684
VDigitel
p3685
VDPA-14
p3686
tp3687
g5
(g6
g7
(dp3688
S'FM_MODEL'
p3689
g3686
sS'FT_TYPE'
p3690
g3684
sS'FM_MANUFACTURER'
p3691
g3685
stp3692
Rp3693
s(Vvuv_fluorescence
p3694
VAero-Laser
p3695
VAL5002
p3696
tp3697
g5
(g6
g7
(dp3698
S'FM_MODEL'
p3699
g3696
sS'FT_TYPE'
p3700
g3694
sS'FM_MANUFACTURER'
p3701
g3695
stp3702
Rp3703
s(Vcpc
p3704
VTSI
p3705
V3772
p3706
tp3707
g5
(g6
g7
(dp3708
S'FM_MODEL'
p3709
g3706
sS'FT_TYPE'
p3710
g3704
sS'FM_MANUFACTURER'
p3711
g3705
stp3712
Rp3713
s(Vv-smps
p3714
VTROPOS
p3715
VTROPOS-V-SMPS
p3716
tp3717
g5
(g6
g7
(dp3718
S'FM_MODEL'
p3719
g3716
sS'FT_TYPE'
p3720
g3714
sS'FM_MANUFACTURER'
p3721
g3715
stp3722
Rp3723
s(Vndir
p3724
VThermo
p3725
V48C
p3726
tp3727
g5
(g6
g7
(dp3728
S'FM_MODEL'
p3729
g3726
sS'FT_TYPE'
p3730
g3724
sS'FM_MANUFACTURER'
p3731
g3725
stp3732
Rp3733
s(Vlow_vol_sampler
p3734
VLeckel
p3735
VMVS6
p3736
tp3737
g5
(g6
g7
(dp3738
S'FM_MODEL'
p3739
g3736
sS'FT_TYPE'
p3740
g3734
sS'FM_MANUFACTURER'
p3741
g3735
stp3742
Rp3743
s(VPTR-MS
p3744
VIonicon Analytik
p3745
VPTR-QMS 300
p3746
tp3747
g5
(g6
g7
(dp3748
S'FM_MODEL'
p3749
g3746
sS'FT_TYPE'
p3750
g3744
sS'FM_MANUFACTURER'
p3751
g3745
stp3752
Rp3753
s(Vdmps
p3754
VGRIMM
p3755
V55-900+5.705+5.706
p3756
tp3757
g5
(g6
g7
(dp3758
S'FM_MODEL'
p3759
g3756
sS'FT_TYPE'
p3760
g3754
sS'FM_MANUFACTURER'
p3761
g3755
stp3762
Rp3763
s(VTEOM
p3764
VThermo
p3765
V1405D
p3766
tp3767
g5
(g6
g7
(dp3768
S'FM_MODEL'
p3769
g3766
sS'FT_TYPE'
p3770
g3764
sS'FM_MANUFACTURER'
p3771
g3765
stp3772
Rp3773
s(Vsmps
p3774
VGRIMM
p3775
V55-340+5.414
p3776
tp3777
g5
(g6
g7
(dp3778
S'FM_MODEL'
p3779
g3776
sS'FT_TYPE'
p3780
g3774
sS'FM_MANUFACTURER'
p3781
g3775
stp3782
Rp3783
s(Vchemiluminescence_photolytic
p3784
Vairqualitydesign+airqualitydesign
p3785
VBLC+Custom
p3786
tp3787
g5
(g6
g7
(dp3788
S'FM_MODEL'
p3789
g3786
sS'FT_TYPE'
p3790
g3784
sS'FM_MANUFACTURER'
p3791
g3785
stp3792
Rp3793
s(Vndir
p3794
VThermo
p3795
V48C-TLE
p3796
tp3797
g5
(g6
g7
(dp3798
S'FM_MODEL'
p3799
g3796
sS'FT_TYPE'
p3800
g3794
sS'FM_MANUFACTURER'
p3801
g3795
stp3802
Rp3803
s(Vonline_gc
p3804
VChromatotec
p3805
VairmoVOC C2-C6
p3806
tp3807
g5
(g6
g7
(dp3808
S'FM_MODEL'
p3809
g3806
sS'FT_TYPE'
p3810
g3804
sS'FM_MANUFACTURER'
p3811
g3805
stp3812
Rp3813
s(Vnephelometer
p3814
Vacoem
p3815
VAurora NE-300
p3816
tp3817
g5
(g6
g7
(dp3818
S'FM_MODEL'
p3819
g3816
sS'FT_TYPE'
p3820
g3814
sS'FM_MANUFACTURER'
p3821
g3815
stp3822
Rp3823
s(Vchemiluminescence_photolytic
p3824
VEcophysics
p3825
VCLD899+PLC860
p3826
tp3827
g5
(g6
g7
(dp3828
S'FM_MODEL'
p3829
g3826
sS'FT_TYPE'
p3830
g3824
sS'FM_MANUFACTURER'
p3831
g3825
stp3832
Rp3833
s(Vaerosol_mass_spectrometer
p3834
VAerodyne
p3835
VQ-ACSM
p3836
tp3837
g5
(g6
g7
(dp3838
S'FM_MODEL'
p3839
g3836
sS'FT_TYPE'
p3840
g3834
sS'FM_MANUFACTURER'
p3841
g3835
stp3842
Rp3843
s(Vwet_only_sampler
p3844
VMTX ITALIA S.R.L.
p3845
VARS1500
p3846
tp3847
g5
(g6
g7
(dp3848
S'FM_MODEL'
p3849
g3846
sS'FT_TYPE'
p3850
g3844
sS'FM_MANUFACTURER'
p3851
g3845
stp3852
Rp3853
s(Vchemiluminescence_molybdenum
p3854
VThermo
p3855
V42iQTL
p3856
tp3857
g5
(g6
g7
(dp3858
S'FM_MODEL'
p3859
g3856
sS'FT_TYPE'
p3860
g3854
sS'FM_MANUFACTURER'
p3861
g3855
stp3862
Rp3863
s(Vfilter_absorption_photometer
p3864
VNOAA/ESRL/GMD
p3865
VCLAP-3W
p3866
tp3867
g5
(g6
g7
(dp3868
S'FM_MODEL'
p3869
g3866
sS'FT_TYPE'
p3870
g3864
sS'FM_MANUFACTURER'
p3871
g3865
stp3872
Rp3873
s(Vonline_crds
p3874
VLos Gatos Research
p3875
VNO2 analyzer
p3876
tp3877
g5
(g6
g7
(dp3878
S'FM_MODEL'
p3879
g3876
sS'FT_TYPE'
p3880
g3874
sS'FM_MANUFACTURER'
p3881
g3875
stp3882
Rp3883
s(Vbeta_gauge_particulate_sampler
p3884
VThermo
p3885
VFH62C14
p3886
tp3887
g5
(g6
g7
(dp3888
S'FM_MODEL'
p3889
g3886
sS'FT_TYPE'
p3890
g3884
sS'FM_MANUFACTURER'
p3891
g3885
stp3892
Rp3893
s(Vonline_gc
p3894
VMARKES+MARKES+Agilent+LECO
p3895
VAir Server+UNITY2+7890A GC+Pegasus BT TOF-MS
p3896
tp3897
g5
(g6
g7
(dp3898
S'FM_MODEL'
p3899
g3896
sS'FT_TYPE'
p3900
g3894
sS'FM_MANUFACTURER'
p3901
g3895
stp3902
Rp3903
s(Vchemiluminescence_photolytic
p3904
VDMT+Thermo
p3905
VBLC+42iTL
p3906
tp3907
g5
(g6
g7
(dp3908
S'FM_MODEL'
p3909
g3906
sS'FT_TYPE'
p3910
g3904
sS'FM_MANUFACTURER'
p3911
g3905
stp3912
Rp3913
s(Vsteel_canister
p3914
VRestek+Entech
p3915
VSilcoCan+Silonite
p3916
tp3917
g5
(g6
g7
(dp3918
S'FM_MODEL'
p3919
g3916
sS'FT_TYPE'
p3920
g3914
sS'FM_MANUFACTURER'
p3921
g3915
stp3922
Rp3923
s(VPTR-MS
p3924
VIonicon Analytik
p3925
VPTR-TOF 8000
p3926
tp3927
g5
(g6
g7
(dp3928
S'FM_MODEL'
p3929
g3926
sS'FT_TYPE'
p3930
g3924
sS'FM_MANUFACTURER'
p3931
g3925
stp3932
Rp3933
s(Vuv_abs
p3934
VSabio
p3935
V6030
p3936
tp3937
g5
(g6
g7
(dp3938
S'FM_MODEL'
p3939
g3936
sS'FT_TYPE'
p3940
g3934
sS'FM_MANUFACTURER'
p3941
g3935
stp3942
Rp3943
s(Vhigh_vol_sampler
p3944
VDIGITEL
p3945
VDA-80
p3946
tp3947
g5
(g6
g7
(dp3948
S'FM_MODEL'
p3949
g3946
sS'FT_TYPE'
p3950
g3944
sS'FM_MANUFACTURER'
p3951
g3945
stp3952
Rp3953
s(Vlow_vol_sampler
p3954
VMCV
p3955
VCMV-1D-m
p3956
tp3957
g5
(g6
g7
(dp3958
S'FM_MODEL'
p3959
g3956
sS'FT_TYPE'
p3960
g3954
sS'FM_MANUFACTURER'
p3961
g3955
stp3962
Rp3963
s(Vfilter_absorption_photometer
p3964
VRadiance-Research
p3965
VPSAP-3W
p3966
tp3967
g5
(g6
g7
(dp3968
S'FM_MODEL'
p3969
g3966
sS'FT_TYPE'
p3970
g3964
sS'FM_MANUFACTURER'
p3971
g3965
stp3972
Rp3973
s(Vchemiluminescence_photolytic
p3974
VTeledyne
p3975
VT200UP
p3976
tp3977
g5
(g6
g7
(dp3978
S'FM_MODEL'
p3979
g3976
sS'FT_TYPE'
p3980
g3974
sS'FM_MANUFACTURER'
p3981
g3975
stp3982
Rp3983
s(Vdmps
p3984
VTSI
p3985
V3071A+3022A
p3986
tp3987
g5
(g6
g7
(dp3988
S'FM_MODEL'
p3989
g3986
sS'FT_TYPE'
p3990
g3984
sS'FM_MANUFACTURER'
p3991
g3985
stp3992
Rp3993
s(Vsmps
p3994
VIFT
p3995
VIFT Long DMA
p3996
tp3997
g5
(g6
g7
(dp3998
S'FM_MODEL'
p3999
g3996
sS'FT_TYPE'
p4000
g3994
sS'FM_MANUFACTURER'
p4001
g3995
stp4002
Rp4003
s(Vsmps
p4004
VNUIG
p4005
VActrisStandards_smps_01
p4006
tp4007
g5
(g6
g7
(dp4008
S'FM_MODEL'
p4009
g4006
sS'FT_TYPE'
p4010
g4004
sS'FM_MANUFACTURER'
p4011
g4005
stp4012
Rp4013
s(VTEOM
p4014
VRupprecht&Patashnick
p4015
V1400a
p4016
tp4017
g5
(g6
g7
(dp4018
S'FM_MODEL'
p4019
g4016
sS'FT_TYPE'
p4020
g4014
sS'FM_MANUFACTURER'
p4021
g4015
stp4022
Rp4023
s(Vchemiluminescence_molybdenum
p4024
VEcophysics
p4025
VCLD700AL
p4026
tp4027
g5
(g6
g7
(dp4028
S'FM_MODEL'
p4029
g4026
sS'FT_TYPE'
p4030
g4024
sS'FM_MANUFACTURER'
p4031
g4025
stp4032
Rp4033
s(Vonline_gc
p4034
VBoulder AIR+Agilent
p4035
VBA-NMHC-1118+5890 GC/FID
p4036
tp4037
g5
(g6
g7
(dp4038
S'FM_MODEL'
p4039
g4036
sS'FT_TYPE'
p4040
g4034
sS'FM_MANUFACTURER'
p4041
g4035
stp4042
Rp4043
s(Vlow_vol_sampler
p4044
VAPM
p4045
VPMS-104
p4046
tp4047
g5
(g6
g7
(dp4048
S'FM_MODEL'
p4049
g4046
sS'FT_TYPE'
p4050
g4044
sS'FM_MANUFACTURER'
p4051
g4045
stp4052
Rp4053
s(Vlow_vol_sampler
p4054
VECCC_CAIR Lab
p4055
VLVS1
p4056
tp4057
g5
(g6
g7
(dp4058
S'FM_MODEL'
p4059
g4056
sS'FT_TYPE'
p4060
g4054
sS'FM_MANUFACTURER'
p4061
g4055
stp4062
Rp4063
s(Vlow_vol_sampler
p4064
VFAI Instruments
p4065
VSWAM 5A Dual Channel
p4066
tp4067
g5
(g6
g7
(dp4068
S'FM_MODEL'
p4069
g4066
sS'FT_TYPE'
p4070
g4064
sS'FM_MANUFACTURER'
p4071
g4065
stp4072
Rp4073
s(Vfilter_absorption_photometer
p4074
VMagee
p4075
VAE21
p4076
tp4077
g5
(g6
g7
(dp4078
S'FM_MODEL'
p4079
g4076
sS'FT_TYPE'
p4080
g4074
sS'FM_MANUFACTURER'
p4081
g4075
stp4082
Rp4083
s(Vchemiluminescence_photolytic
p4084
VEnvironnement
p4085
VAC32M
p4086
tp4087
g5
(g6
g7
(dp4088
S'FM_MODEL'
p4089
g4086
sS'FT_TYPE'
p4090
g4084
sS'FM_MANUFACTURER'
p4091
g4085
stp4092
Rp4093
s(Vdmps
p4094
VUHEL
p4095
VDMPS_PUS_01
p4096
tp4097
g5
(g6
g7
(dp4098
S'FM_MODEL'
p4099
g4096
sS'FT_TYPE'
p4100
g4094
sS'FM_MANUFACTURER'
p4101
g4095
stp4102
Rp4103
s(Vlow_vol_sampler
p4104
VLeckel
p4105
VLVS3
p4106
tp4107
g5
(g6
g7
(dp4108
S'FM_MODEL'
p4109
g4106
sS'FT_TYPE'
p4110
g4104
sS'FM_MANUFACTURER'
p4111
g4105
stp4112
Rp4113
s(Vonline_gc
p4114
VChrompack
p4115
VGC-FID
p4116
tp4117
g5
(g6
g7
(dp4118
S'FM_MODEL'
p4119
g4116
sS'FT_TYPE'
p4120
g4114
sS'FM_MANUFACTURER'
p4121
g4115
stp4122
Rp4123
s(Vprecip_gauge
p4124
VSEBA Hydrometrie
p4125
VRG-50
p4126
tp4127
g5
(g6
g7
(dp4128
S'FM_MODEL'
p4129
g4126
sS'FT_TYPE'
p4130
g4124
sS'FM_MANUFACTURER'
p4131
g4125
stp4132
Rp4133
s(Vndir
p4134
VHoriba
p4135
VAPMA-360
p4136
tp4137
g5
(g6
g7
(dp4138
S'FM_MODEL'
p4139
g4136
sS'FT_TYPE'
p4140
g4134
sS'FM_MANUFACTURER'
p4141
g4135
stp4142
Rp4143
s(VTEOM
p4144
VThermo
p4145
V1400a
p4146
tp4147
g5
(g6
g7
(dp4148
S'FM_MODEL'
p4149
g4146
sS'FT_TYPE'
p4150
g4144
sS'FM_MANUFACTURER'
p4151
g4145
stp4152
Rp4153
s(VPTR-MS
p4154
VIonicon Analytik
p4155
VPTR-TOF 1000
p4156
tp4157
g5
(g6
g7
(dp4158
S'FM_MODEL'
p4159
g4156
sS'FT_TYPE'
p4160
g4154
sS'FM_MANUFACTURER'
p4161
g4155
stp4162
Rp4163
s(Vfilter_2pack
p4164
VIMWM
p4165
VTwo stage inline
p4166
tp4167
g5
(g6
g7
(dp4168
S'FM_MODEL'
p4169
g4166
sS'FT_TYPE'
p4170
g4164
sS'FM_MANUFACTURER'
p4171
g4165
stp4172
Rp4173
s(Vsteel_canister
p4174
VRestek
p4175
VSilcoCan
p4176
tp4177
g5
(g6
g7
(dp4178
S'FM_MODEL'
p4179
g4176
sS'FT_TYPE'
p4180
g4174
sS'FM_MANUFACTURER'
p4181
g4175
stp4182
Rp4183
s(Vonline_gc
p4184
VVarian
p4185
VGC-3600 FID
p4186
tp4187
g5
(g6
g7
(dp4188
S'FM_MODEL'
p4189
g4186
sS'FT_TYPE'
p4190
g4184
sS'FM_MANUFACTURER'
p4191
g4185
stp4192
Rp4193
s(Vfilter_absorption_photometer
p4194
VMagee
p4195
VAE42-2
p4196
tp4197
g5
(g6
g7
(dp4198
S'FM_MODEL'
p4199
g4196
sS'FT_TYPE'
p4200
g4194
sS'FM_MANUFACTURER'
p4201
g4195
stp4202
Rp4203
s(Vlow_vol_sampler
p4204
VMega System
p4205
VLifetek PMS
p4206
tp4207
g5
(g6
g7
(dp4208
S'FM_MODEL'
p4209
g4206
sS'FT_TYPE'
p4210
g4204
sS'FM_MANUFACTURER'
p4211
g4205
stp4212
Rp4213
s(Vonline_gc
p4214
VAgilent+Peak
p4215
V6890A_uECD+PP1_FID
p4216
tp4217
g5
(g6
g7
(dp4218
S'FM_MODEL'
p4219
g4216
sS'FT_TYPE'
p4220
g4214
sS'FM_MANUFACTURER'
p4221
g4215
stp4222
Rp4223
s(Vbulk_sampler
p4224
VEigenbrodt
p4225
VUNS130S
p4226
tp4227
g5
(g6
g7
(dp4228
S'FM_MODEL'
p4229
g4226
sS'FT_TYPE'
p4230
g4224
sS'FM_MANUFACTURER'
p4231
g4225
stp4232
Rp4233
s(Vdmps
p4234
VGRIMM
p4235
V55-340+5.705+5.706
p4236
tp4237
g5
(g6
g7
(dp4238
S'FM_MODEL'
p4239
g4236
sS'FT_TYPE'
p4240
g4234
sS'FM_MANUFACTURER'
p4241
g4235
stp4242
Rp4243
s(Vonline_crds
p4244
VPicarro
p4245
VG2307
p4246
tp4247
g5
(g6
g7
(dp4248
S'FM_MODEL'
p4249
g4246
sS'FT_TYPE'
p4250
g4244
sS'FM_MANUFACTURER'
p4251
g4245
stp4252
Rp4253
s(Vonline_gc
p4254
VBoulder AIR+Agilent
p4255
VBA-NMHC-3116+8860 GC/FID
p4256
tp4257
g5
(g6
g7
(dp4258
S'FM_MODEL'
p4259
g4256
sS'FT_TYPE'
p4260
g4254
sS'FM_MANUFACTURER'
p4261
g4255
stp4262
Rp4263
s(Vprecip_gauge
p4264
VEigenbrodt
p4265
Vtipping_bucket
p4266
tp4267
g5
(g6
g7
(dp4268
S'FM_MODEL'
p4269
g4266
sS'FT_TYPE'
p4270
g4264
sS'FM_MANUFACTURER'
p4271
g4265
stp4272
Rp4273
s(Vonline_gc
p4274
VAgilent+NILU
p4275
V6820GC/ECD+NILU_GasInjectionSystem
p4276
tp4277
g5
(g6
g7
(dp4278
S'FM_MODEL'
p4279
g4276
sS'FT_TYPE'
p4280
g4274
sS'FM_MANUFACTURER'
p4281
g4275
stp4282
Rp4283
s(VPTR-MS
p4284
VIonicon Analytik
p4285
VPTR-TOF 6000
p4286
tp4287
g5
(g6
g7
(dp4288
S'FM_MODEL'
p4289
g4286
sS'FT_TYPE'
p4290
g4284
sS'FM_MANUFACTURER'
p4291
g4285
stp4292
Rp4293
s(Vwet_only_sampler
p4294
VDigitel
p4295
VDRA-12
p4296
tp4297
g5
(g6
g7
(dp4298
S'FM_MODEL'
p4299
g4296
sS'FT_TYPE'
p4300
g4294
sS'FM_MANUFACTURER'
p4301
g4295
stp4302
Rp4303
s(Vonline_gc
p4304
VMARKES+Agilent
p4305
VUNITY2+5973GC/MS
p4306
tp4307
g5
(g6
g7
(dp4308
S'FM_MODEL'
p4309
g4306
sS'FT_TYPE'
p4310
g4304
sS'FM_MANUFACTURER'
p4311
g4305
stp4312
Rp4313
s(Vprecip_gauge
p4314
VCasella
p4315
V0.1mm_tipping_bucket_w_heater
p4316
tp4317
g5
(g6
g7
(dp4318
S'FM_MODEL'
p4319
g4316
sS'FT_TYPE'
p4320
g4314
sS'FM_MANUFACTURER'
p4321
g4315
stp4322
Rp4323
s(Vwet_only_sampler
p4324
VEigenbrodt
p4325
VNSA181KE
p4326
tp4327
g5
(g6
g7
(dp4328
S'FM_MODEL'
p4329
g4326
sS'FT_TYPE'
p4330
g4324
sS'FM_MANUFACTURER'
p4331
g4325
stp4332
Rp4333
s(Vonline_gc
p4334
VMARKES+MARKES+Agilent
p4335
VAir Server-xr+UNITY-xr+7890B GC/FID-FID
p4336
tp4337
g5
(g6
g7
(dp4338
S'FM_MODEL'
p4339
g4336
sS'FT_TYPE'
p4340
g4334
sS'FM_MANUFACTURER'
p4341
g4335
stp4342
Rp4343
s(Vv-smps
p4344
VTSI
p4345
V3080
p4346
tp4347
g5
(g6
g7
(dp4348
S'FM_MODEL'
p4349
g4346
sS'FT_TYPE'
p4350
g4344
sS'FM_MANUFACTURER'
p4351
g4345
stp4352
Rp4353
s(Vlow_vol_sampler
p4354
VTecora+Tecora
p4355
VCharlie HV+Sentinel PM
p4356
tp4357
g5
(g6
g7
(dp4358
S'FM_MODEL'
p4359
g4356
sS'FT_TYPE'
p4360
g4354
sS'FM_MANUFACTURER'
p4361
g4355
stp4362
Rp4363
s(Vsmps
p4364
VTSI
p4365
V3938
p4366
tp4367
g5
(g6
g7
(dp4368
S'FM_MODEL'
p4369
g4366
sS'FT_TYPE'
p4370
g4364
sS'FM_MANUFACTURER'
p4371
g4365
stp4372
Rp4373
s(Vchemiluminescence_molybdenum
p4374
VEcophysics
p4375
VCRANOX
p4376
tp4377
g5
(g6
g7
(dp4378
S'FM_MODEL'
p4379
g4376
sS'FT_TYPE'
p4380
g4374
sS'FM_MANUFACTURER'
p4381
g4375
stp4382
Rp4383
s(Vpassive_sampler
p4384
VRadiello
p4385
VRAD168
p4386
tp4387
g5
(g6
g7
(dp4388
S'FM_MODEL'
p4389
g4386
sS'FT_TYPE'
p4390
g4384
sS'FM_MANUFACTURER'
p4391
g4385
stp4392
Rp4393
s(VPTR-MS
p4394
VIonicon Analytik
p4395
VPTR3
p4396
tp4397
g5
(g6
g7
(dp4398
S'FM_MODEL'
p4399
g4396
sS'FT_TYPE'
p4400
g4394
sS'FM_MANUFACTURER'
p4401
g4395
stp4402
Rp4403
s(Vsmps
p4404
VTSI
p4405
V3080L
p4406
tp4407
g5
(g6
g7
(dp4408
S'FM_MODEL'
p4409
g4406
sS'FT_TYPE'
p4410
g4404
sS'FM_MANUFACTURER'
p4411
g4405
stp4412
Rp4413
s(Vdmps
p4414
VCNRS-LaMP
p4415
VScanotron
p4416
tp4417
g5
(g6
g7
(dp4418
S'FM_MODEL'
p4419
g4416
sS'FT_TYPE'
p4420
g4414
sS'FM_MANUFACTURER'
p4421
g4415
stp4422
Rp4423
s(Vonline_gc
p4424
VAgilent
p4425
V6820GC/ECD
p4426
tp4427
g5
(g6
g7
(dp4428
S'FM_MODEL'
p4429
g4426
sS'FT_TYPE'
p4430
g4424
sS'FM_MANUFACTURER'
p4431
g4425
stp4432
Rp4433
s(Vonline_gc
p4434
VDWD+Agilent+Agilent
p4435
VTD+6890N+MS-5975B
p4436
tp4437
g5
(g6
g7
(dp4438
S'FM_MODEL'
p4439
g4436
sS'FT_TYPE'
p4440
g4434
sS'FM_MANUFACTURER'
p4441
g4435
stp4442
Rp4443
s(Voptical_particle_size_spectrometer
p4444
VPalas
p4445
VPromo 3000 H
p4446
tp4447
g5
(g6
g7
(dp4448
S'FM_MODEL'
p4449
g4446
sS'FT_TYPE'
p4450
g4444
sS'FM_MANUFACTURER'
p4451
g4445
stp4452
Rp4453
s(Vuv_abs
p4454
VThermo
p4455
V49iQ
p4456
tp4457
g5
(g6
g7
(dp4458
S'FM_MODEL'
p4459
g4456
sS'FT_TYPE'
p4460
g4454
sS'FM_MANUFACTURER'
p4461
g4455
stp4462
Rp4463
s(Vonline_crds
p4464
VPicarro
p4465
VG1301
p4466
tp4467
g5
(g6
g7
(dp4468
S'FM_MODEL'
p4469
g4466
sS'FT_TYPE'
p4470
g4464
sS'FM_MANUFACTURER'
p4471
g4465
stp4472
Rp4473
s(Vcpc
p4474
VAirmodus
p4475
VA20
p4476
tp4477
g5
(g6
g7
(dp4478
S'FM_MODEL'
p4479
g4476
sS'FT_TYPE'
p4480
g4474
sS'FM_MANUFACTURER'
p4481
g4475
stp4482
Rp4483
s(Vfilter_absorption_photometer
p4484
VNOAA/GML
p4485
VCLAP-3W
p4486
tp4487
g5
(g6
g7
(dp4488
S'FM_MODEL'
p4489
g4486
sS'FT_TYPE'
p4490
g4484
sS'FM_MANUFACTURER'
p4491
g4485
stp4492
Rp4493
s(Vhigh_vol_sampler
p4494
VTisch Environmental
p4495
VTE-6070DX
p4496
tp4497
g5
(g6
g7
(dp4498
S'FM_MODEL'
p4499
g4496
sS'FT_TYPE'
p4500
g4494
sS'FM_MANUFACTURER'
p4501
g4495
stp4502
Rp4503
s(Vaws
p4504
VVaisala
p4505
VAWS520
p4506
tp4507
g5
(g6
g7
(dp4508
S'FM_MODEL'
p4509
g4506
sS'FT_TYPE'
p4510
g4504
sS'FM_MANUFACTURER'
p4511
g4505
stp4512
Rp4513
s(Vcpc
p4514
VPalas
p4515
VENVI-CPC 100
p4516
tp4517
g5
(g6
g7
(dp4518
S'FM_MODEL'
p4519
g4516
sS'FT_TYPE'
p4520
g4514
sS'FM_MANUFACTURER'
p4521
g4515
stp4522
Rp4523
s(Vdmps
p4524
VMISU
p4525
VDMPSmodel1
p4526
tp4527
g5
(g6
g7
(dp4528
S'FM_MODEL'
p4529
g4526
sS'FT_TYPE'
p4530
g4524
sS'FM_MANUFACTURER'
p4531
g4525
stp4532
Rp4533
s(Vchemiluminescence_molybdenum
p4534
VThermo
p4535
V42C
p4536
tp4537
g5
(g6
g7
(dp4538
S'FM_MODEL'
p4539
g4536
sS'FT_TYPE'
p4540
g4534
sS'FM_MANUFACTURER'
p4541
g4535
stp4542
Rp4543
s(Vnephelometer
p4544
VMS Electron
p4545
V3W
p4546
tp4547
g5
(g6
g7
(dp4548
S'FM_MODEL'
p4549
g4546
sS'FT_TYPE'
p4550
g4544
sS'FM_MANUFACTURER'
p4551
g4545
stp4552
Rp4553
s(Vhigh_vol_sampler
p4554
VSierra Instruments
p4555
VBasic High Volume Air Sampler
p4556
tp4557
g5
(g6
g7
(dp4558
S'FM_MODEL'
p4559
g4556
sS'FT_TYPE'
p4560
g4554
sS'FM_MANUFACTURER'
p4561
g4555
stp4562
Rp4563
s(Vcpc
p4564
VTSI
p4565
V3760
p4566
tp4567
g5
(g6
g7
(dp4568
S'FM_MODEL'
p4569
g4566
sS'FT_TYPE'
p4570
g4564
sS'FM_MANUFACTURER'
p4571
g4565
stp4572
Rp4573
s(Vcpc
p4574
VTSI
p4575
V3750
p4576
tp4577
g5
(g6
g7
(dp4578
S'FM_MODEL'
p4579
g4576
sS'FT_TYPE'
p4580
g4574
sS'FM_MANUFACTURER'
p4581
g4575
stp4582
Rp4583
s(Vfilter_absorption_photometer
p4584
VRadiance-Research
p4585
VPSAP-1W
p4586
tp4587
g5
(g6
g7
(dp4588
S'FM_MODEL'
p4589
g4586
sS'FT_TYPE'
p4590
g4584
sS'FM_MANUFACTURER'
p4591
g4585
stp4592
Rp4593
s(Vonline_crds
p4594
VABB - Los Gatos Research
p4595
VGLA132-SOFX1
p4596
tp4597
g5
(g6
g7
(dp4598
S'FM_MODEL'
p4599
g4596
sS'FT_TYPE'
p4600
g4594
sS'FM_MANUFACTURER'
p4601
g4595
stp4602
Rp4603
s(Voptical_particle_counter
p4604
VFAI Instruments
p4605
VOPC Multichannel Monitor
p4606
tp4607
g5
(g6
g7
(dp4608
S'FM_MODEL'
p4609
g4606
sS'FT_TYPE'
p4610
g4604
sS'FM_MANUFACTURER'
p4611
g4605
stp4612
Rp4613
s(Vtunable_diode_laser_abs_spectrometer
p4614
VMIRO Analytical
p4615
VMiro MGA-8
p4616
tp4617
g5
(g6
g7
(dp4618
S'FM_MODEL'
p4619
g4616
sS'FT_TYPE'
p4620
g4614
sS'FM_MANUFACTURER'
p4621
g4615
stp4622
Rp4623
s(Vwet_only_sampler
p4624
VELMECO
p4625
VELMECO_wet_only
p4626
tp4627
g5
(g6
g7
(dp4628
S'FM_MODEL'
p4629
g4626
sS'FT_TYPE'
p4630
g4624
sS'FM_MANUFACTURER'
p4631
g4625
stp4632
Rp4633
s(Vsteel_canister
p4634
VAndersen
p4635
Vunknown
p4636
tp4637
g5
(g6
g7
(dp4638
S'FM_MODEL'
p4639
g4636
sS'FT_TYPE'
p4640
g4634
sS'FM_MANUFACTURER'
p4641
g4635
stp4642
Rp4643
s(Vuv_fluoresc
p4644
VTeledyne
p4645
VT100U
p4646
tp4647
g5
(g6
g7
(dp4648
S'FM_MODEL'
p4649
g4646
sS'FT_TYPE'
p4650
g4644
sS'FM_MANUFACTURER'
p4651
g4645
stp4652
Rp4653
s(Vdmps
p4654
VNILU
p4655
VDMPSmodel2
p4656
tp4657
g5
(g6
g7
(dp4658
S'FM_MODEL'
p4659
g4656
sS'FT_TYPE'
p4660
g4654
sS'FM_MANUFACTURER'
p4661
g4655
stp4662
Rp4663
s(Vchemiluminescence_photolytic
p4664
VAerodyne
p4665
VQCL
p4666
tp4667
g5
(g6
g7
(dp4668
S'FM_MODEL'
p4669
g4666
sS'FT_TYPE'
p4670
g4664
sS'FM_MANUFACTURER'
p4671
g4665
stp4672
Rp4673
s(Vndir
p4674
VThermo
p4675
V48i
p4676
tp4677
g5
(g6
g7
(dp4678
S'FM_MODEL'
p4679
g4676
sS'FT_TYPE'
p4680
g4674
sS'FM_MANUFACTURER'
p4681
g4675
stp4682
Rp4683
s(Vnephelometer
p4684
VOptech
p4685
VNGN-2
p4686
tp4687
g5
(g6
g7
(dp4688
S'FM_MODEL'
p4689
g4686
sS'FT_TYPE'
p4690
g4684
sS'FM_MANUFACTURER'
p4691
g4685
stp4692
Rp4693
s(Vsmps
p4694
VTSI
p4695
V3034
p4696
tp4697
g5
(g6
g7
(dp4698
S'FM_MODEL'
p4699
g4696
sS'FT_TYPE'
p4700
g4694
sS'FM_MANUFACTURER'
p4701
g4695
stp4702
Rp4703
s(Vfilter_absorption_photometer
p4704
VMagee
p4705
VAE6
p4706
tp4707
g5
(g6
g7
(dp4708
S'FM_MODEL'
p4709
g4706
sS'FT_TYPE'
p4710
g4704
sS'FM_MANUFACTURER'
p4711
g4705
stp4712
Rp4713
s(Voptical_particle_size_spectrometer
p4714
VPalas
p4715
VFidas 200 S
p4716
tp4717
g5
(g6
g7
(dp4718
S'FM_MODEL'
p4719
g4716
sS'FT_TYPE'
p4720
g4714
sS'FM_MANUFACTURER'
p4721
g4715
stp4722
Rp4723
s(Vchemiluminescence_photolytic
p4724
VEcophysics
p4725
VCLD700ALppt
p4726
tp4727
g5
(g6
g7
(dp4728
S'FM_MODEL'
p4729
g4726
sS'FT_TYPE'
p4730
g4724
sS'FM_MANUFACTURER'
p4731
g4725
stp4732
Rp4733
s(Vcpc
p4734
VTSI
p4735
V3025A
p4736
tp4737
g5
(g6
g7
(dp4738
S'FM_MODEL'
p4739
g4736
sS'FT_TYPE'
p4740
g4734
sS'FM_MANUFACTURER'
p4741
g4735
stp4742
Rp4743
s(Vonline_gc
p4744
VMARKES+MARKES+Agilent
p4745
VAir Server+UNITY2+7890A GC/FID
p4746
tp4747
g5
(g6
g7
(dp4748
S'FM_MODEL'
p4749
g4746
sS'FT_TYPE'
p4750
g4744
sS'FM_MANUFACTURER'
p4751
g4745
stp4752
Rp4753
s(VPTR-MS
p4754
VIonicon Analytik
p4755
VHigh-Sensitivity PTR-QMS 500
p4756
tp4757
g5
(g6
g7
(dp4758
S'FM_MODEL'
p4759
g4756
sS'FT_TYPE'
p4760
g4754
sS'FM_MANUFACTURER'
p4761
g4755
stp4762
Rp4763
s(Vlow_vol_sampler
p4764
VThermo
p4765
VPartisol2025
p4766
tp4767
g5
(g6
g7
(dp4768
S'FM_MODEL'
p4769
g4766
sS'FT_TYPE'
p4770
g4764
sS'FM_MANUFACTURER'
p4771
g4765
stp4772
Rp4773
s(VPTR-MS
p4774
VIonicon Analytik
p4775
VPTR-TOF 4000
p4776
tp4777
g5
(g6
g7
(dp4778
S'FM_MODEL'
p4779
g4776
sS'FT_TYPE'
p4780
g4774
sS'FM_MANUFACTURER'
p4781
g4775
stp4782
Rp4783
s(Vnephelometer
p4784
VEcotech
p4785
VAurora4000
p4786
tp4787
g5
(g6
g7
(dp4788
S'FM_MODEL'
p4789
g4786
sS'FT_TYPE'
p4790
g4784
sS'FM_MANUFACTURER'
p4791
g4785
stp4792
Rp4793
s(Vonline_gc
p4794
VAgilent
p4795
V7890A_uECD
p4796
tp4797
g5
(g6
g7
(dp4798
S'FM_MODEL'
p4799
g4796
sS'FT_TYPE'
p4800
g4794
sS'FM_MANUFACTURER'
p4801
g4795
stp4802
Rp4803
s(Vdmps
p4804
VJRC+TSI
p4805
VVienna-type_medium+3772
p4806
tp4807
g5
(g6
g7
(dp4808
S'FM_MODEL'
p4809
g4806
sS'FT_TYPE'
p4810
g4804
sS'FM_MANUFACTURER'
p4811
g4805
stp4812
Rp4813
s(Vglass_sinter
p4814
VNILU
p4815
VFK
p4816
tp4817
g5
(g6
g7
(dp4818
S'FM_MODEL'
p4819
g4816
sS'FT_TYPE'
p4820
g4814
sS'FM_MANUFACTURER'
p4821
g4815
stp4822
Rp4823
s(Vaws
p4824
VVaisala
p4825
VMAWS201
p4826
tp4827
g5
(g6
g7
(dp4828
S'FM_MODEL'
p4829
g4826
sS'FT_TYPE'
p4830
g4824
sS'FM_MANUFACTURER'
p4831
g4825
stp4832
Rp4833
s(Vnephelometer
p4834
VEcotech
p4835
VAurora1000
p4836
tp4837
g5
(g6
g7
(dp4838
S'FM_MODEL'
p4839
g4836
sS'FT_TYPE'
p4840
g4834
sS'FM_MANUFACTURER'
p4841
g4835
stp4842
Rp4843
s(Vuv_fluoresc
p4844
VThermo
p4845
V43i-TLE
p4846
tp4847
g5
(g6
g7
(dp4848
S'FM_MODEL'
p4849
g4846
sS'FT_TYPE'
p4850
g4844
sS'FM_MANUFACTURER'
p4851
g4845
stp4852
Rp4853
s(VPTR-MS
p4854
VIonicon Analytik
p4855
VHigh-Sensitivity PTR-QMS
p4856
tp4857
g5
(g6
g7
(dp4858
S'FM_MODEL'
p4859
g4856
sS'FT_TYPE'
p4860
g4854
sS'FM_MANUFACTURER'
p4861
g4855
stp4862
Rp4863
s(Vonline_gc
p4864
VVarian
p4865
VGC-3400 FID
p4866
tp4867
g5
(g6
g7
(dp4868
S'FM_MODEL'
p4869
g4866
sS'FT_TYPE'
p4870
g4864
sS'FM_MANUFACTURER'
p4871
g4865
stp4872
Rp4873
s(Vfilter_absorption_photometer
p4874
VMagee
p4875
V 
p4876
tp4877
g5
(g6
g7
(dp4878
S'FM_MODEL'
p4879
g4876
sS'FT_TYPE'
p4880
g4874
sS'FM_MANUFACTURER'
p4881
g4875
stp4882
Rp4883
s(Voptical_particle_size_spectrometer
p4884
VGRIMM
p4885
VEDM 180
p4886
tp4887
g5
(g6
g7
(dp4888
S'FM_MODEL'
p4889
g4886
sS'FT_TYPE'
p4890
g4884
sS'FM_MANUFACTURER'
p4891
g4885
stp4892
Rp4893
s(Vpollen_monitor
p4894
VHund GmbH
p4895
VBAA500
p4896
tp4897
g5
(g6
g7
(dp4898
S'FM_MODEL'
p4899
g4896
sS'FT_TYPE'
p4900
g4894
sS'FM_MANUFACTURER'
p4901
g4895
stp4902
Rp4903
s(Vcpc
p4904
VTSI
p4905
V3010
p4906
tp4907
g5
(g6
g7
(dp4908
S'FM_MODEL'
p4909
g4906
sS'FT_TYPE'
p4910
g4904
sS'FM_MANUFACTURER'
p4911
g4905
stp4912
Rp4913
s(Vonline_thermal-optical_analysis
p4914
VSunset Laboratory
p4915
VModel-4 Semi-Continuous Field Analyzer
p4916
tp4917
g5
(g6
g7
(dp4918
S'FM_MODEL'
p4919
g4916
sS'FT_TYPE'
p4920
g4914
sS'FM_MANUFACTURER'
p4921
g4915
stp4922
Rp4923
s(Vchemiluminescence_molybdenum
p4924
VHoriba
p4925
VAPNA-360CE
p4926
tp4927
g5
(g6
g7
(dp4928
S'FM_MODEL'
p4929
g4926
sS'FT_TYPE'
p4930
g4924
sS'FM_MANUFACTURER'
p4931
g4925
stp4932
Rp4933
s(Vnephelometer
p4934
VMeteorology Research, Inc.
p4935
V1559B
p4936
tp4937
g5
(g6
g7
(dp4938
S'FM_MODEL'
p4939
g4936
sS'FT_TYPE'
p4940
g4934
sS'FM_MANUFACTURER'
p4941
g4935
stp4942
Rp4943
s(Vchemiluminescence_molybdenum
p4944
VThermo
p4945
V42i-TL
p4946
tp4947
g5
(g6
g7
(dp4948
S'FM_MODEL'
p4949
g4946
sS'FT_TYPE'
p4950
g4944
sS'FM_MANUFACTURER'
p4951
g4945
stp4952
Rp4953
s(Vonline_gc
p4954
VMARKES+MARKES+Agilent
p4955
VAir Server+UNITY2+7890A GC/FID-FID
p4956
tp4957
g5
(g6
g7
(dp4958
S'FM_MODEL'
p4959
g4956
sS'FT_TYPE'
p4960
g4954
sS'FM_MANUFACTURER'
p4961
g4955
stp4962
Rp4963
s(Vnephelometer
p4964
VEcotech+Radiance-Research
p4965
VAurora3000+M903
p4966
tp4967
g5
(g6
g7
(dp4968
S'FM_MODEL'
p4969
g4966
sS'FT_TYPE'
p4970
g4964
sS'FM_MANUFACTURER'
p4971
g4965
stp4972
Rp4973
s.