(dp0
VNot prefired
p1
ccopy_reg
_reconstructor
p2
(cnilutility.datatypes
DataObject
p3
c__builtin__
dict
p4
(dp5
S'FP_FILTER_PREFIRING'
p6
g1
sS'FP_DESC'
p7
NsS'FP_COMMENT'
p8
NsS'SYSTIME'
p9
g2
(cnilutility.datetime_helper
DatetimeInterval
p10
c__builtin__
list
p11
(lp12
cdatetime
datetime
p13
(S'\x07\xde\x05\x01\x00\x00\x00\x00\x00\x00'
p14
tp15
Rp16
aNatp17
Rp18
(dp19
S'bounds'
p20
S'[)'
p21
sbstp22
Rp23
sVPrefired by previous analysis
p24
g2
(g3
g4
(dp25
S'FP_FILTER_PREFIRING'
p26
g24
sS'FP_DESC'
p27
VIn the case of semi-continous online measuremnts, the filter is implicitly prefired py the temperatur program of the previous analysis.
p28
sS'FP_COMMENT'
p29
NsS'SYSTIME'
p30
g2
(g10
g11
(lp31
g13
(S'\x07\xde\x05\x01\x00\x00\x00\x00\x00\x00'
p32
tp33
Rp34
aNatp35
Rp36
(dp37
g20
S'[)'
p38
sbstp39
Rp40
s.