(dp0
Vonline_crds
p1
ccopy_reg
_reconstructor
p2
(cnilutility.datatypes
DataObject
p3
c__builtin__
dict
p4
(dp5
S'FT_DESC'
p6
VCavity ringdown spectrometry
p7
sS'FT_TYPE'
p8
g1
sS'FT_GROUP'
p9
Vair_monitor
p10
sS'FT_COMMENT'
p11
NsS'SYSTIME'
p12
g2
(cnilutility.datetime_helper
DatetimeInterval
p13
c__builtin__
list
p14
(lp15
cdatetime
datetime
p16
(S'\x07\xde\x05\x01\x00\x00\x00\x00\x00\x00'
p17
tp18
Rp19
aNatp20
Rp21
(dp22
S'bounds'
p23
S'[)'
p24
sbstp25
Rp26
sVPTR-MS
p27
g2
(g3
g4
(dp28
S'FT_DESC'
p29
NsS'FT_TYPE'
p30
g27
sS'FT_GROUP'
p31
Vair_monitor
p32
sS'FT_COMMENT'
p33
Vchanged from online_ptr
p34
sS'SYSTIME'
p35
g2
(g13
g14
(lp36
g16
(S'\x07\xe7\x03\x1c\x0b\x111\x0c\x8c\r'
p37
tp38
Rp39
aNatp40
Rp41
(dp42
g23
S'[)'
p43
sbstp44
Rp45
sVinfrared_absorption
p46
g2
(g3
g4
(dp47
S'FT_DESC'
p48
NsS'FT_TYPE'
p49
g46
sS'FT_GROUP'
p50
Vair_monitor
p51
sS'FT_COMMENT'
p52
NsS'SYSTIME'
p53
g2
(g13
g14
(lp54
g16
(S'\x07\xde\x05\x01\x00\x00\x00\x00\x00\x00'
p55
tp56
Rp57
aNatp58
Rp59
(dp60
g23
S'[)'
p61
sbstp62
Rp63
sVfilter_4pack
p64
g2
(g3
g4
(dp65
S'FT_DESC'
p66
NsS'FT_TYPE'
p67
g64
sS'FT_GROUP'
p68
Vair_sampler
p69
sS'FT_COMMENT'
p70
NsS'SYSTIME'
p71
g2
(g13
g14
(lp72
g16
(S'\x07\xde\x05\x01\x00\x00\x00\x00\x00\x00'
p73
tp74
Rp75
aNatp76
Rp77
(dp78
g23
S'[)'
p79
sbstp80
Rp81
sVpollen_monitor
p82
g2
(g3
g4
(dp83
S'FT_DESC'
p84
VPollen Monitors with different mix of measurement priciples
p85
sS'FT_TYPE'
p86
g82
sS'FT_GROUP'
p87
Vair_monitor
p88
sS'FT_COMMENT'
p89
NsS'SYSTIME'
p90
g2
(g13
g14
(lp91
g16
(S'\x07\xde\x05\x01\x00\x00\x00\x00\x00\x00'
p92
tp93
Rp94
aNatp95
Rp96
(dp97
g23
S'[)'
p98
sbstp99
Rp100
sVvuv_fluorescence
p101
g2
(g3
g4
(dp102
S'FT_DESC'
p103
NsS'FT_TYPE'
p104
g101
sS'FT_GROUP'
p105
Vair_monitor
p106
sS'FT_COMMENT'
p107
NsS'SYSTIME'
p108
g2
(g13
g14
(lp109
g16
(S'\x07\xde\x05\x01\x00\x00\x00\x00\x00\x00'
p110
tp111
Rp112
aNatp113
Rp114
(dp115
g23
S'[)'
p116
sbstp117
Rp118
sVGC-FID
p119
g2
(g3
g4
(dp120
S'FT_DESC'
p121
NsS'FT_TYPE'
p122
g119
sS'FT_GROUP'
p123
Vair_sampler
p124
sS'FT_COMMENT'
p125
NsS'SYSTIME'
p126
g2
(g13
g14
(lp127
g16
(S'\x07\xde\x05\x01\x00\x00\x00\x00\x00\x00'
p128
tp129
Rp130
aNatp131
Rp132
(dp133
g23
S'[)'
p134
sbstp135
Rp136
sVradiometric
p137
g2
(g3
g4
(dp138
S'FT_DESC'
p139
NsS'FT_TYPE'
p140
g137
sS'FT_GROUP'
p141
Vair_monitor
p142
sS'FT_COMMENT'
p143
NsS'SYSTIME'
p144
g2
(g13
g14
(lp145
g16
(S'\x07\xde\x05\x01\x00\x00\x00\x00\x00\x00'
p146
tp147
Rp148
aNatp149
Rp150
(dp151
g23
S'[)'
p152
sbstp153
Rp154
sVTEOM
p155
g2
(g3
g4
(dp156
S'FT_DESC'
p157
NsS'FT_TYPE'
p158
g155
sS'FT_GROUP'
p159
Vair_sampler
p160
sS'FT_COMMENT'
p161
NsS'SYSTIME'
p162
g2
(g13
g14
(lp163
g16
(S'\x07\xde\x05\x01\x00\x00\x00\x00\x00\x00'
p164
tp165
Rp166
aNatp167
Rp168
(dp169
g23
S'[)'
p170
sbstp171
Rp172
sVbeta_gauge_particulate_sampler
p173
g2
(g3
g4
(dp174
S'FT_DESC'
p175
NsS'FT_TYPE'
p176
g173
sS'FT_GROUP'
p177
Vair_sampler
p178
sS'FT_COMMENT'
p179
NsS'SYSTIME'
p180
g2
(g13
g14
(lp181
g16
(S'\x07\xde\x05\x01\x00\x00\x00\x00\x00\x00'
p182
tp183
Rp184
aNatp185
Rp186
(dp187
g23
S'[)'
p188
sbstp189
Rp190
sVlvs_single
p191
g2
(g3
g4
(dp192
S'FT_DESC'
p193
NsS'FT_TYPE'
p194
g191
sS'FT_GROUP'
p195
Vair_sampler
p196
sS'FT_COMMENT'
p197
NsS'SYSTIME'
p198
g2
(g13
g14
(lp199
g16
(S'\x07\xde\x05\x01\x00\x00\x00\x00\x00\x00'
p200
tp201
Rp202
aNatp203
Rp204
(dp205
g23
S'[)'
p206
sbstp207
Rp208
sVaerosol_mass_spectrometer
p209
g2
(g3
g4
(dp210
S'FT_DESC'
p211
VQ-ACSM, AMS, TOF-ACSM etc
p212
sS'FT_TYPE'
p213
g209
sS'FT_GROUP'
p214
Vair_monitor
p215
sS'FT_COMMENT'
p216
NsS'SYSTIME'
p217
g2
(g13
g14
(lp218
g16
(S'\x07\xde\x05\x01\x00\x00\x00\x00\x00\x00'
p219
tp220
Rp221
aNatp222
Rp223
(dp224
g23
S'[)'
p225
sbstp226
Rp227
sVb-attenuation
p228
g2
(g3
g4
(dp229
S'FT_DESC'
p230
NsS'FT_TYPE'
p231
g228
sS'FT_GROUP'
p232
Vair_monitor
p233
sS'FT_COMMENT'
p234
NsS'SYSTIME'
p235
g2
(g13
g14
(lp236
g16
(S'\x07\xde\x05\x01\x00\x00\x00\x00\x00\x00'
p237
tp238
Rp239
aNatp240
Rp241
(dp242
g23
S'[)'
p243
sbstp244
Rp245
sVamalg_tube
p246
g2
(g3
g4
(dp247
S'FT_DESC'
p248
NsS'FT_TYPE'
p249
g246
sS'FT_GROUP'
p250
Vair_sampler
p251
sS'FT_COMMENT'
p252
NsS'SYSTIME'
p253
g2
(g13
g14
(lp254
g16
(S'\x07\xde\x05\x01\x00\x00\x00\x00\x00\x00'
p255
tp256
Rp257
aNatp258
Rp259
(dp260
g23
S'[)'
p261
sbstp262
Rp263
sVads_tube
p264
g2
(g3
g4
(dp265
S'FT_DESC'
p266
NsS'FT_TYPE'
p267
g264
sS'FT_GROUP'
p268
Vair_sampler
p269
sS'FT_COMMENT'
p270
NsS'SYSTIME'
p271
g2
(g13
g14
(lp272
g16
(S'\x07\xde\x05\x01\x00\x00\x00\x00\x00\x00'
p273
tp274
Rp275
aNatp276
Rp277
(dp278
g23
S'[)'
p279
sbstp280
Rp281
sVHg_mon
p282
g2
(g3
g4
(dp283
S'FT_DESC'
p284
NsS'FT_TYPE'
p285
g282
sS'FT_GROUP'
p286
Vair_monitor
p287
sS'FT_COMMENT'
p288
NsS'SYSTIME'
p289
g2
(g13
g14
(lp290
g16
(S'\x07\xde\x05\x01\x00\x00\x00\x00\x00\x00'
p291
tp292
Rp293
aNatp294
Rp295
(dp296
g23
S'[)'
p297
sbstp298
Rp299
sVHTDMA
p300
g2
(g3
g4
(dp301
S'FT_DESC'
p302
NsS'FT_TYPE'
p303
g300
sS'FT_GROUP'
p304
Vair_monitor
p305
sS'FT_COMMENT'
p306
NsS'SYSTIME'
p307
g2
(g13
g14
(lp308
g16
(S'\x07\xde\x05\x01\x00\x00\x00\x00\x00\x00'
p309
tp310
Rp311
aNatp312
Rp313
(dp314
g23
S'[)'
p315
sbstp316
Rp317
sVv-tdmps
p318
g2
(g3
g4
(dp319
S'FT_DESC'
p320
VVolatility Twin Differential Mobility Particle Sizer
p321
sS'FT_TYPE'
p322
g318
sS'FT_GROUP'
p323
Vair_monitor
p324
sS'FT_COMMENT'
p325
NsS'SYSTIME'
p326
g2
(g13
g14
(lp327
g16
(S'\x07\xde\x05\x01\x00\x00\x00\x00\x00\x00'
p328
tp329
Rp330
aNatp331
Rp332
(dp333
g23
S'[)'
p334
sbstp335
Rp336
sVhand_picked
p337
g2
(g3
g4
(dp338
S'FT_DESC'
p339
NsS'FT_TYPE'
p340
g337
sS'FT_GROUP'
p341
Vmanual_sampling
p342
sS'FT_COMMENT'
p343
NsS'SYSTIME'
p344
g2
(g13
g14
(lp345
g16
(S'\x07\xde\x05\x01\x00\x00\x00\x00\x00\x00'
p346
tp347
Rp348
aNatp349
Rp350
(dp351
g23
S'[)'
p352
sbstp353
Rp354
sVtsmps
p355
g2
(g3
g4
(dp356
S'FT_DESC'
p357
VTwin Scanning Mobility Particle Sizer
p358
sS'FT_TYPE'
p359
g355
sS'FT_GROUP'
p360
Vair_monitor
p361
sS'FT_COMMENT'
p362
NsS'SYSTIME'
p363
g2
(g13
g14
(lp364
g16
(S'\x07\xde\x05\x01\x00\x00\x00\x00\x00\x00'
p365
tp366
Rp367
aNatp368
Rp369
(dp370
g23
S'[)'
p371
sbstp372
Rp373
sVrotating_shadowband_spectral_radiometer
p374
g2
(g3
g4
(dp375
S'FT_DESC'
p376
VNULL
p377
sS'FT_TYPE'
p378
g374
sS'FT_GROUP'
p379
Vair_monitor
p380
sS'FT_COMMENT'
p381
NsS'SYSTIME'
p382
g2
(g13
g14
(lp383
g16
(S'\x07\xde\x05\x01\x00\x00\x00\x00\x00\x00'
p384
tp385
Rp386
aNatp387
Rp388
(dp389
g23
S'[)'
p390
sbstp391
Rp392
sVmaxdoas
p393
g2
(g3
g4
(dp394
S'FT_DESC'
p395
NsS'FT_TYPE'
p396
g393
sS'FT_GROUP'
p397
Vphys_monitor
p398
sS'FT_COMMENT'
p399
NsS'SYSTIME'
p400
g2
(g13
g14
(lp401
g16
(S'\x07\xde\x05\x01\x00\x00\x00\x00\x00\x00'
p402
tp403
Rp404
aNatp405
Rp406
(dp407
g23
S'[)'
p408
sbstp409
Rp410
sVIR_abs
p411
g2
(g3
g4
(dp412
S'FT_DESC'
p413
NsS'FT_TYPE'
p414
g411
sS'FT_GROUP'
p415
Vair_monitor
p416
sS'FT_COMMENT'
p417
NsS'SYSTIME'
p418
g2
(g13
g14
(lp419
g16
(S'\x07\xde\x05\x01\x00\x00\x00\x00\x00\x00'
p420
tp421
Rp422
aNatp423
Rp424
(dp425
g23
S'[)'
p426
sbstp427
Rp428
sVflame_photometry
p429
g2
(g3
g4
(dp430
S'FT_DESC'
p431
NsS'FT_TYPE'
p432
g429
sS'FT_GROUP'
p433
Vair_monitor
p434
sS'FT_COMMENT'
p435
NsS'SYSTIME'
p436
g2
(g13
g14
(lp437
g16
(S'\x07\xde\x05\x01\x00\x00\x00\x00\x00\x00'
p438
tp439
Rp440
aNatp441
Rp442
(dp443
g23
S'[)'
p444
sbstp445
Rp446
sVGPS
p447
g2
(g3
g4
(dp448
S'FT_DESC'
p449
VGPS receiver
p450
sS'FT_TYPE'
p451
g447
sS'FT_GROUP'
p452
Vphys_monitor
p453
sS'FT_COMMENT'
p454
NsS'SYSTIME'
p455
g2
(g13
g14
(lp456
g16
(S'\x07\xde\x05\x01\x00\x00\x00\x00\x00\x00'
p457
tp458
Rp459
aNatp460
Rp461
(dp462
g23
S'[)'
p463
sbstp464
Rp465
sVglass_sinter
p466
g2
(g3
g4
(dp467
S'FT_DESC'
p468
NsS'FT_TYPE'
p469
g466
sS'FT_GROUP'
p470
Vair_sampler
p471
sS'FT_COMMENT'
p472
NsS'SYSTIME'
p473
g2
(g13
g14
(lp474
g16
(S'\x07\xde\x05\x01\x00\x00\x00\x00\x00\x00'
p475
tp476
Rp477
aNatp478
Rp479
(dp480
g23
S'[)'
p481
sbstp482
Rp483
sVwet_only_sampler
p484
g2
(g3
g4
(dp485
S'FT_DESC'
p486
NsS'FT_TYPE'
p487
g484
sS'FT_GROUP'
p488
Vprecip_sampler
p489
sS'FT_COMMENT'
p490
NsS'SYSTIME'
p491
g2
(g13
g14
(lp492
g16
(S'\x07\xde\x05\x01\x00\x00\x00\x00\x00\x00'
p493
tp494
Rp495
aNatp496
Rp497
(dp498
g23
S'[)'
p499
sbstp500
Rp501
sVimpactor
p502
g2
(g3
g4
(dp503
S'FT_DESC'
p504
NsS'FT_TYPE'
p505
g502
sS'FT_GROUP'
p506
Vair_sampler
p507
sS'FT_COMMENT'
p508
NsS'SYSTIME'
p509
g2
(g13
g14
(lp510
g16
(S'\x07\xde\x05\x01\x00\x00\x00\x00\x00\x00'
p511
tp512
Rp513
aNatp514
Rp515
(dp516
g23
S'[)'
p517
sbstp518
Rp519
sVfilter_absorption_photometer
p520
g2
(g3
g4
(dp521
S'FT_DESC'
p522
NsS'FT_TYPE'
p523
g520
sS'FT_GROUP'
p524
Vair_monitor
p525
sS'FT_COMMENT'
p526
NsS'SYSTIME'
p527
g2
(g13
g14
(lp528
g16
(S'\x07\xde\x05\x01\x00\x00\x00\x00\x00\x00'
p529
tp530
Rp531
aNatp532
Rp533
(dp534
g23
S'[)'
p535
sbstp536
Rp537
sVCCNC
p538
g2
(g3
g4
(dp539
S'FT_DESC'
p540
NsS'FT_TYPE'
p541
g538
sS'FT_GROUP'
p542
Vair_monitor
p543
sS'FT_COMMENT'
p544
NsS'SYSTIME'
p545
g2
(g13
g14
(lp546
g16
(S'\x07\xde\x05\x01\x00\x00\x00\x00\x00\x00'
p547
tp548
Rp549
aNatp550
Rp551
(dp552
g23
S'[)'
p553
sbstp554
Rp555
sVoptical_particle_counter
p556
g2
(g3
g4
(dp557
S'FT_DESC'
p558
NsS'FT_TYPE'
p559
g556
sS'FT_GROUP'
p560
Vair_monitor
p561
sS'FT_COMMENT'
p562
NsS'SYSTIME'
p563
g2
(g13
g14
(lp564
g16
(S'\x07\xde\x05\x01\x00\x00\x00\x00\x00\x00'
p565
tp566
Rp567
aNatp568
Rp569
(dp570
g23
S'[)'
p571
sbstp572
Rp573
sVchemiluminescence_conv_unknown
p574
g2
(g3
g4
(dp575
S'FT_DESC'
p576
Vchemiluminescence photometer with unknown converter (historic data only)
p577
sS'FT_TYPE'
p578
g574
sS'FT_GROUP'
p579
Vair_monitor
p580
sS'FT_COMMENT'
p581
NsS'SYSTIME'
p582
g2
(g13
g14
(lp583
g16
(S'\x07\xe8\x03\x15\x103\x0f\ttN'
p584
tp585
Rp586
aNatp587
Rp588
(dp589
g23
S'[)'
p590
sbstp591
Rp592
sVchemiluminescence_molybdenum+thermal
p593
g2
(g3
g4
(dp594
S'FT_DESC'
p595
NsS'FT_TYPE'
p596
g593
sS'FT_GROUP'
p597
Vair_monitor
p598
sS'FT_COMMENT'
p599
NsS'SYSTIME'
p600
g2
(g13
g14
(lp601
g16
(S'\x07\xe7\t\x0e\x0c7\x10\x0bv\x08'
p602
tp603
Rp604
aNatp605
Rp606
(dp607
g23
S'[)'
p608
sbstp609
Rp610
sVnais
p611
g2
(g3
g4
(dp612
S'FT_DESC'
p613
NsS'FT_TYPE'
p614
g611
sS'FT_GROUP'
p615
Vair_monitor
p616
sS'FT_COMMENT'
p617
NsS'SYSTIME'
p618
g2
(g13
g14
(lp619
g16
(S'\x07\xde\x05\x01\x00\x00\x00\x00\x00\x00'
p620
tp621
Rp622
aNatp623
Rp624
(dp625
g23
S'[)'
p626
sbstp627
Rp628
sVunspecified_air_grab_sampler
p629
g2
(g3
g4
(dp630
S'FT_DESC'
p631
VShould only be used if the specific type of sampler is unknown, or, when different sampler types are used to avoid dataset fragmentation due to changing sampler types.
p632
sS'FT_TYPE'
p633
g629
sS'FT_GROUP'
p634
Vair_sampler
p635
sS'FT_COMMENT'
p636
NsS'SYSTIME'
p637
g2
(g13
g14
(lp638
g16
(S'\x07\xe6\x0c\x01\x0b98\x07\xdcG'
p639
tp640
Rp641
aNatp642
Rp643
(dp644
g23
S'[)'
p645
sbstp646
Rp647
sVmini_trap
p648
g2
(g3
g4
(dp649
S'FT_DESC'
p650
NsS'FT_TYPE'
p651
g648
sS'FT_GROUP'
p652
Vair_sampler
p653
sS'FT_COMMENT'
p654
NsS'SYSTIME'
p655
g2
(g13
g14
(lp656
g16
(S'\x07\xde\x05\x01\x00\x00\x00\x00\x00\x00'
p657
tp658
Rp659
aNatp660
Rp661
(dp662
g23
S'[)'
p663
sbstp664
Rp665
sVGC-HgO
p666
g2
(g3
g4
(dp667
S'FT_DESC'
p668
NsS'FT_TYPE'
p669
g666
sS'FT_GROUP'
p670
Vair_sampler
p671
sS'FT_COMMENT'
p672
NsS'SYSTIME'
p673
g2
(g13
g14
(lp674
g16
(S'\x07\xde\x05\x01\x00\x00\x00\x00\x00\x00'
p675
tp676
Rp677
aNatp678
Rp679
(dp680
g23
S'[)'
p681
sbstp682
Rp683
sVmoon_tracking_filter_radiometer
p684
g2
(g3
g4
(dp685
S'FT_DESC'
p686
NsS'FT_TYPE'
p687
g684
sS'FT_GROUP'
p688
Vair_monitor
p689
sS'FT_COMMENT'
p690
NsS'SYSTIME'
p691
g2
(g13
g14
(lp692
g16
(S'\x07\xde\x05\x01\x00\x00\x00\x00\x00\x00'
p693
tp694
Rp695
aNatp696
Rp697
(dp698
g23
S'[)'
p699
sbstp700
Rp701
sVAMS
p702
g2
(g3
g4
(dp703
S'FT_DESC'
p704
NsS'FT_TYPE'
p705
g702
sS'FT_GROUP'
p706
Vair_monitor
p707
sS'FT_COMMENT'
p708
NsS'SYSTIME'
p709
g2
(g13
g14
(lp710
g16
(S'\x07\xde\x05\x01\x00\x00\x00\x00\x00\x00'
p711
tp712
Rp713
aNatp714
Rp715
(dp716
g23
S'[)'
p717
sbstp718
Rp719
sVlvs_single_twin
p720
g2
(g3
g4
(dp721
S'FT_DESC'
p722
NsS'FT_TYPE'
p723
g720
sS'FT_GROUP'
p724
Vair_sampler
p725
sS'FT_COMMENT'
p726
NsS'SYSTIME'
p727
g2
(g13
g14
(lp728
g16
(S'\x07\xde\x05\x01\x00\x00\x00\x00\x00\x00'
p729
tp730
Rp731
aNatp732
Rp733
(dp734
g23
S'[)'
p735
sbstp736
Rp737
sVpassive_sampler
p738
g2
(g3
g4
(dp739
S'FT_DESC'
p740
NsS'FT_TYPE'
p741
g738
sS'FT_GROUP'
p742
Vair_monitor
p743
sS'FT_COMMENT'
p744
NsS'SYSTIME'
p745
g2
(g13
g14
(lp746
g16
(S'\x07\xde\x05\x01\x00\x00\x00\x00\x00\x00'
p747
tp748
Rp749
aNatp750
Rp751
(dp752
g23
S'[)'
p753
sbstp754
Rp755
sVonline_thermal-optical_analysis
p756
g2
(g3
g4
(dp757
S'FT_DESC'
p758
NsS'FT_TYPE'
p759
g756
sS'FT_GROUP'
p760
Vair_monitor
p761
sS'FT_COMMENT'
p762
NsS'SYSTIME'
p763
g2
(g13
g14
(lp764
g16
(S'\x07\xde\x05\x01\x00\x00\x00\x00\x00\x00'
p765
tp766
Rp767
aNatp768
Rp769
(dp770
g23
S'[)'
p771
sbstp772
Rp773
sVfilter_1pack
p774
g2
(g3
g4
(dp775
S'FT_DESC'
p776
NsS'FT_TYPE'
p777
g774
sS'FT_GROUP'
p778
Vair_sampler
p779
sS'FT_COMMENT'
p780
NsS'SYSTIME'
p781
g2
(g13
g14
(lp782
g16
(S'\x07\xde\x05\x01\x00\x00\x00\x00\x00\x00'
p783
tp784
Rp785
aNatp786
Rp787
(dp788
g23
S'[)'
p789
sbstp790
Rp791
sVnitrate_monitor
p792
g2
(g3
g4
(dp793
S'FT_DESC'
p794
NsS'FT_TYPE'
p795
g792
sS'FT_GROUP'
p796
Vair_monitor
p797
sS'FT_COMMENT'
p798
NsS'SYSTIME'
p799
g2
(g13
g14
(lp800
g16
(S'\x07\xde\x05\x01\x00\x00\x00\x00\x00\x00'
p801
tp802
Rp803
aNatp804
Rp805
(dp806
g23
S'[)'
p807
sbstp808
Rp809
sVv-smps
p810
g2
(g3
g4
(dp811
S'FT_DESC'
p812
VVolatility Scanning Mobility Particle Sizer
p813
sS'FT_TYPE'
p814
g810
sS'FT_GROUP'
p815
Vair_monitor
p816
sS'FT_COMMENT'
p817
NsS'SYSTIME'
p818
g2
(g13
g14
(lp819
g16
(S'\x07\xde\x05\x01\x00\x00\x00\x00\x00\x00'
p820
tp821
Rp822
aNatp823
Rp824
(dp825
g23
S'[)'
p826
sbstp827
Rp828
sVhigh_vol_sampler
p829
g2
(g3
g4
(dp830
S'FT_DESC'
p831
NsS'FT_TYPE'
p832
g829
sS'FT_GROUP'
p833
Vair_sampler
p834
sS'FT_COMMENT'
p835
NsS'SYSTIME'
p836
g2
(g13
g14
(lp837
g16
(S'\x07\xde\x05\x01\x00\x00\x00\x00\x00\x00'
p838
tp839
Rp840
aNatp841
Rp842
(dp843
g23
S'[)'
p844
sbstp845
Rp846
sVonline_IC
p847
g2
(g3
g4
(dp848
S'FT_DESC'
p849
NsS'FT_TYPE'
p850
g847
sS'FT_GROUP'
p851
Vair_monitor
p852
sS'FT_COMMENT'
p853
NsS'SYSTIME'
p854
g2
(g13
g14
(lp855
g16
(S'\x07\xde\x05\x01\x00\x00\x00\x00\x00\x00'
p856
tp857
Rp858
aNatp859
Rp860
(dp861
g23
S'[)'
p862
sbstp863
Rp864
sVCAPS
p865
g2
(g3
g4
(dp866
S'FT_DESC'
p867
Vcavity attenuated phase shift
p868
sS'FT_TYPE'
p869
g865
sS'FT_GROUP'
p870
Vair_monitor
p871
sS'FT_COMMENT'
p872
NsS'SYSTIME'
p873
g2
(g13
g14
(lp874
g16
(S'\x07\xde\x05\x01\x00\x00\x00\x00\x00\x00'
p875
tp876
Rp877
aNatp878
Rp879
(dp880
g23
S'[)'
p881
sbstp882
Rp883
sVuv_abs
p884
g2
(g3
g4
(dp885
S'FT_DESC'
p886
NsS'FT_TYPE'
p887
g884
sS'FT_GROUP'
p888
Vair_monitor
p889
sS'FT_COMMENT'
p890
NsS'SYSTIME'
p891
g2
(g13
g14
(lp892
g16
(S'\x07\xde\x05\x01\x00\x00\x00\x00\x00\x00'
p893
tp894
Rp895
aNatp896
Rp897
(dp898
g23
S'[)'
p899
sbstp900
Rp901
sVlvs_teflon
p902
g2
(g3
g4
(dp903
S'FT_DESC'
p904
NsS'FT_TYPE'
p905
g902
sS'FT_GROUP'
p906
Vair_sampler
p907
sS'FT_COMMENT'
p908
NsS'SYSTIME'
p909
g2
(g13
g14
(lp910
g16
(S'\x07\xde\x05\x01\x00\x00\x00\x00\x00\x00'
p911
tp912
Rp913
aNatp914
Rp915
(dp916
g23
S'[)'
p917
sbstp918
Rp919
sVoptical_particle_size_spectrometer
p920
g2
(g3
g4
(dp921
S'FT_DESC'
p922
VDevice deriving aerosol particle number size distribution by measuring light scattering cross-section of each particle in sample.
p923
sS'FT_TYPE'
p924
g920
sS'FT_GROUP'
p925
Vair_monitor
p926
sS'FT_COMMENT'
p927
NsS'SYSTIME'
p928
g2
(g13
g14
(lp929
g16
(S'\x07\xde\x05\x01\x00\x00\x00\x00\x00\x00'
p930
tp931
Rp932
aNatp933
Rp934
(dp935
g23
S'[)'
p936
sbstp937
Rp938
sVCE-DOAS
p939
g2
(g3
g4
(dp940
S'FT_DESC'
p941
VCavity-Enhanced DOAS
p942
sS'FT_TYPE'
p943
g939
sS'FT_GROUP'
p944
Vair_monitor
p945
sS'FT_COMMENT'
p946
NsS'SYSTIME'
p947
g2
(g13
g14
(lp948
g16
(S'\x07\xe8\t\x1a\x0c\x1b3\x02z\xee'
p949
tp950
Rp951
aNatp952
Rp953
(dp954
g23
S'[)'
p955
sbstp956
Rp957
sVchemiluminescence_molybdenum
p958
g2
(g3
g4
(dp959
S'FT_DESC'
p960
Vchemiluminescence photometers with a molybdenum converter
p961
sS'FT_TYPE'
p962
g958
sS'FT_GROUP'
p963
Vair_monitor
p964
sS'FT_COMMENT'
p965
NsS'SYSTIME'
p966
g2
(g13
g14
(lp967
g16
(S'\x07\xde\x05\x01\x00\x00\x00\x00\x00\x00'
p968
tp969
Rp970
aNatp971
Rp972
(dp973
g23
S'[)'
p974
sbstp975
Rp976
sVdenuder
p977
g2
(g3
g4
(dp978
S'FT_DESC'
p979
NsS'FT_TYPE'
p980
g977
sS'FT_GROUP'
p981
Vair_sampler
p982
sS'FT_COMMENT'
p983
NsS'SYSTIME'
p984
g2
(g13
g14
(lp985
g16
(S'\x07\xde\x05\x01\x00\x00\x00\x00\x00\x00'
p986
tp987
Rp988
aNatp989
Rp990
(dp991
g23
S'[)'
p992
sbstp993
Rp994
sVchemiluminescence_photometer
p995
g2
(g3
g4
(dp996
S'FT_DESC'
p997
Vchemiluminescence photometer without converter (measures only NO)
p998
sS'FT_TYPE'
p999
g995
sS'FT_GROUP'
p1000
Vair_monitor
p1001
sS'FT_COMMENT'
p1002
NsS'SYSTIME'
p1003
g2
(g13
g14
(lp1004
g16
(S'\x07\xe8\x04\x04\r-\x11\x03\xdc='
p1005
tp1006
Rp1007
aNatp1008
Rp1009
(dp1010
g23
S'[)'
p1011
sbstp1012
Rp1013
sVonline_abs
p1014
g2
(g3
g4
(dp1015
S'FT_DESC'
p1016
NsS'FT_TYPE'
p1017
g1014
sS'FT_GROUP'
p1018
Vair_monitor
p1019
sS'FT_COMMENT'
p1020
NsS'SYSTIME'
p1021
g2
(g13
g14
(lp1022
g16
(S'\x07\xe7\t\x05\x0e\x040\x04u\xae'
p1023
tp1024
Rp1025
aNatp1026
Rp1027
(dp1028
g23
S'[)'
p1029
sbstp1030
Rp1031
sVcloud_light_scattering_photometer
p1032
g2
(g3
g4
(dp1033
S'FT_DESC'
p1034
Vliquid water content by forward scattering
p1035
sS'FT_TYPE'
p1036
g1032
sS'FT_GROUP'
p1037
Vair_monitor
p1038
sS'FT_COMMENT'
p1039
NsS'SYSTIME'
p1040
g2
(g13
g14
(lp1041
g16
(S'\x07\xe8\n\x17\x0f,\x07\x00\x04X'
p1042
tp1043
Rp1044
aNatp1045
Rp1046
(dp1047
g23
S'[)'
p1048
sbstp1049
Rp1050
sVaps
p1051
g2
(g3
g4
(dp1052
S'FT_DESC'
p1053
NsS'FT_TYPE'
p1054
g1051
sS'FT_GROUP'
p1055
Vair_monitor
p1056
sS'FT_COMMENT'
p1057
NsS'SYSTIME'
p1058
g2
(g13
g14
(lp1059
g16
(S'\x07\xde\x05\x01\x00\x00\x00\x00\x00\x00'
p1060
tp1061
Rp1062
aNatp1063
Rp1064
(dp1065
g23
S'[)'
p1066
sbstp1067
Rp1068
sVsun_tracking_filter_radiometer
p1069
g2
(g3
g4
(dp1070
S'FT_DESC'
p1071
NsS'FT_TYPE'
p1072
g1069
sS'FT_GROUP'
p1073
Vair_monitor
p1074
sS'FT_COMMENT'
p1075
NsS'SYSTIME'
p1076
g2
(g13
g14
(lp1077
g16
(S'\x07\xde\x05\x01\x00\x00\x00\x00\x00\x00'
p1078
tp1079
Rp1080
aNatp1081
Rp1082
(dp1083
g23
S'[)'
p1084
sbstp1085
Rp1086
sVDMPS-CCNC
p1087
g2
(g3
g4
(dp1088
S'FT_DESC'
p1089
VDifferential Mobility Particle Sizer + Cloud Condensation Nucleus Counter
p1090
sS'FT_TYPE'
p1091
g1087
sS'FT_GROUP'
p1092
Vair_monitor
p1093
sS'FT_COMMENT'
p1094
NsS'SYSTIME'
p1095
g2
(g13
g14
(lp1096
g16
(S'\x07\xde\x05\x01\x00\x00\x00\x00\x00\x00'
p1097
tp1098
Rp1099
aNatp1100
Rp1101
(dp1102
g23
S'[)'
p1103
sbstp1104
Rp1105
sVGC-ECD
p1106
g2
(g3
g4
(dp1107
S'FT_DESC'
p1108
NsS'FT_TYPE'
p1109
g1106
sS'FT_GROUP'
p1110
Vair_sampler
p1111
sS'FT_COMMENT'
p1112
NsS'SYSTIME'
p1113
g2
(g13
g14
(lp1114
g16
(S'\x07\xde\x05\x01\x00\x00\x00\x00\x00\x00'
p1115
tp1116
Rp1117
aNatp1118
Rp1119
(dp1120
g23
S'[)'
p1121
sbstp1122
Rp1123
sVabs_solution
p1124
g2
(g3
g4
(dp1125
S'FT_DESC'
p1126
NsS'FT_TYPE'
p1127
g1124
sS'FT_GROUP'
p1128
Vair_sampler
p1129
sS'FT_COMMENT'
p1130
NsS'SYSTIME'
p1131
g2
(g13
g14
(lp1132
g16
(S'\x07\xde\x05\x01\x00\x00\x00\x00\x00\x00'
p1133
tp1134
Rp1135
aNatp1136
Rp1137
(dp1138
g23
S'[)'
p1139
sbstp1140
Rp1141
sVchemiluminescence_photolytic
p1142
g2
(g3
g4
(dp1143
S'FT_DESC'
p1144
Vchemiluminescence photometers with a photolytic converter
p1145
sS'FT_TYPE'
p1146
g1142
sS'FT_GROUP'
p1147
Vair_monitor
p1148
sS'FT_COMMENT'
p1149
NsS'SYSTIME'
p1150
g2
(g13
g14
(lp1151
g16
(S'\x07\xde\x05\x01\x00\x00\x00\x00\x00\x00'
p1152
tp1153
Rp1154
aNatp1155
Rp1156
(dp1157
g23
S'[)'
p1158
sbstp1159
Rp1160
sVndir
p1161
g2
(g3
g4
(dp1162
S'FT_DESC'
p1163
NsS'FT_TYPE'
p1164
g1161
sS'FT_GROUP'
p1165
Vair_sampler
p1166
sS'FT_COMMENT'
p1167
NsS'SYSTIME'
p1168
g2
(g13
g14
(lp1169
g16
(S'\x07\xde\x05\x01\x00\x00\x00\x00\x00\x00'
p1170
tp1171
Rp1172
aNatp1173
Rp1174
(dp1175
g23
S'[)'
p1176
sbstp1177
Rp1178
sVNA
p1179
g2
(g3
g4
(dp1180
S'FT_DESC'
p1181
VDummy type only used for historical data
p1182
sS'FT_TYPE'
p1183
g1179
sS'FT_GROUP'
p1184
VNA
p1185
sS'FT_COMMENT'
p1186
NsS'SYSTIME'
p1187
g2
(g13
g14
(lp1188
g16
(S'\x07\xde\x05\x01\x00\x00\x00\x00\x00\x00'
p1189
tp1190
Rp1191
aNatp1192
Rp1193
(dp1194
g23
S'[)'
p1195
sbstp1196
Rp1197
sVbulk_sampler
p1198
g2
(g3
g4
(dp1199
S'FT_DESC'
p1200
NsS'FT_TYPE'
p1201
g1198
sS'FT_GROUP'
p1202
Vprecip_sampler
p1203
sS'FT_COMMENT'
p1204
NsS'SYSTIME'
p1205
g2
(g13
g14
(lp1206
g16
(S'\x07\xde\x05\x01\x00\x00\x00\x00\x00\x00'
p1207
tp1208
Rp1209
aNatp1210
Rp1211
(dp1212
g23
S'[)'
p1213
sbstp1214
Rp1215
sVECC_ozone_monitor
p1216
g2
(g3
g4
(dp1217
S'FT_DESC'
p1218
NsS'FT_TYPE'
p1219
g1216
sS'FT_GROUP'
p1220
Vair_monitor
p1221
sS'FT_COMMENT'
p1222
NsS'SYSTIME'
p1223
g2
(g13
g14
(lp1224
g16
(S'\x07\xde\x05\x01\x00\x00\x00\x00\x00\x00'
p1225
tp1226
Rp1227
aNatp1228
Rp1229
(dp1230
g23
S'[)'
p1231
sbstp1232
Rp1233
sVbeta_ray_absorption
p1234
g2
(g3
g4
(dp1235
S'FT_DESC'
p1236
NsS'FT_TYPE'
p1237
g1234
sS'FT_GROUP'
p1238
Vair_monitor
p1239
sS'FT_COMMENT'
p1240
NsS'SYSTIME'
p1241
g2
(g13
g14
(lp1242
g16
(S'\x07\xde\x05\x01\x00\x00\x00\x00\x00\x00'
p1243
tp1244
Rp1245
aNatp1246
Rp1247
(dp1248
g23
S'[)'
p1249
sbstp1250
Rp1251
sVfilter_abs_solution
p1252
g2
(g3
g4
(dp1253
S'FT_DESC'
p1254
NsS'FT_TYPE'
p1255
g1252
sS'FT_GROUP'
p1256
Vair_sampler
p1257
sS'FT_COMMENT'
p1258
NsS'SYSTIME'
p1259
g2
(g13
g14
(lp1260
g16
(S'\x07\xde\x05\x01\x00\x00\x00\x00\x00\x00'
p1261
tp1262
Rp1263
aNatp1264
Rp1265
(dp1266
g23
S'[)'
p1267
sbstp1268
Rp1269
sVCEH_denuder
p1270
g2
(g3
g4
(dp1271
S'FT_DESC'
p1272
NsS'FT_TYPE'
p1273
g1270
sS'FT_GROUP'
p1274
Vair_sampler
p1275
sS'FT_COMMENT'
p1276
NsS'SYSTIME'
p1277
g2
(g13
g14
(lp1278
g16
(S'\x07\xde\x05\x01\x00\x00\x00\x00\x00\x00'
p1279
tp1280
Rp1281
aNatp1282
Rp1283
(dp1284
g23
S'[)'
p1285
sbstp1286
Rp1287
sVtunable_diode_laser_abs_spectrometer
p1288
g2
(g3
g4
(dp1289
S'FT_DESC'
p1290
Vtunable_diode_laser_absorption_spectrometer
p1291
sS'FT_TYPE'
p1292
g1288
sS'FT_GROUP'
p1293
Vair_monitor
p1294
sS'FT_COMMENT'
p1295
NsS'SYSTIME'
p1296
g2
(g13
g14
(lp1297
g16
(S'\x07\xe7\x06\t\x0f\x06/\x01\x12\xde'
p1298
tp1299
Rp1300
aNatp1301
Rp1302
(dp1303
g23
S'[)'
p1304
sbstp1305
Rp1306
sVmist_chamber
p1307
g2
(g3
g4
(dp1308
S'FT_DESC'
p1309
NsS'FT_TYPE'
p1310
g1307
sS'FT_GROUP'
p1311
Vair_sampler
p1312
sS'FT_COMMENT'
p1313
NsS'SYSTIME'
p1314
g2
(g13
g14
(lp1315
g16
(S'\x07\xde\x05\x01\x00\x00\x00\x00\x00\x00'
p1316
tp1317
Rp1318
aNatp1319
Rp1320
(dp1321
g23
S'[)'
p1322
sbstp1323
Rp1324
sVgold_trap
p1325
g2
(g3
g4
(dp1326
S'FT_DESC'
p1327
NsS'FT_TYPE'
p1328
g1325
sS'FT_GROUP'
p1329
Vair_sampler
p1330
sS'FT_COMMENT'
p1331
NsS'SYSTIME'
p1332
g2
(g13
g14
(lp1333
g16
(S'\x07\xde\x05\x01\x00\x00\x00\x00\x00\x00'
p1334
tp1335
Rp1336
aNatp1337
Rp1338
(dp1339
g23
S'[)'
p1340
sbstp1341
Rp1342
sVsteel_canister
p1343
g2
(g3
g4
(dp1344
S'FT_DESC'
p1345
NsS'FT_TYPE'
p1346
g1343
sS'FT_GROUP'
p1347
Vair_sampler
p1348
sS'FT_COMMENT'
p1349
NsS'SYSTIME'
p1350
g2
(g13
g14
(lp1351
g16
(S'\x07\xde\x05\x01\x00\x00\x00\x00\x00\x00'
p1352
tp1353
Rp1354
aNatp1355
Rp1356
(dp1357
g23
S'[)'
p1358
sbstp1359
Rp1360
sVnephelometer
p1361
g2
(g3
g4
(dp1362
S'FT_DESC'
p1363
NsS'FT_TYPE'
p1364
g1361
sS'FT_GROUP'
p1365
Vair_monitor
p1366
sS'FT_COMMENT'
p1367
NsS'SYSTIME'
p1368
g2
(g13
g14
(lp1369
g16
(S'\x07\xde\x05\x01\x00\x00\x00\x00\x00\x00'
p1370
tp1371
Rp1372
aNatp1373
Rp1374
(dp1375
g23
S'[)'
p1376
sbstp1377
Rp1378
sVdmps
p1379
g2
(g3
g4
(dp1380
S'FT_DESC'
p1381
VDifferential Mobility Particle Sizer
p1382
sS'FT_TYPE'
p1383
g1379
sS'FT_GROUP'
p1384
Vair_monitor
p1385
sS'FT_COMMENT'
p1386
NsS'SYSTIME'
p1387
g2
(g13
g14
(lp1388
g16
(S'\x07\xde\x05\x01\x00\x00\x00\x00\x00\x00'
p1389
tp1390
Rp1391
aNatp1392
Rp1393
(dp1394
g23
S'[)'
p1395
sbstp1396
Rp1397
sVsmps
p1398
g2
(g3
g4
(dp1399
S'FT_DESC'
p1400
VScanning Mobility Particle Sizer
p1401
sS'FT_TYPE'
p1402
g1398
sS'FT_GROUP'
p1403
Vair_monitor
p1404
sS'FT_COMMENT'
p1405
NsS'SYSTIME'
p1406
g2
(g13
g14
(lp1407
g16
(S'\x07\xde\x05\x01\x00\x00\x00\x00\x00\x00'
p1408
tp1409
Rp1410
aNatp1411
Rp1412
(dp1413
g23
S'[)'
p1414
sbstp1415
Rp1416
sVfilterpack
p1417
g2
(g3
g4
(dp1418
S'FT_DESC'
p1419
NsS'FT_TYPE'
p1420
g1417
sS'FT_GROUP'
p1421
Vair_sampler
p1422
sS'FT_COMMENT'
p1423
NsS'SYSTIME'
p1424
g2
(g13
g14
(lp1425
g16
(S'\x07\xde\x05\x01\x00\x00\x00\x00\x00\x00'
p1426
tp1427
Rp1428
aNatp1429
Rp1430
(dp1431
g23
S'[)'
p1432
sbstp1433
Rp1434
sVTEOM_FDMS
p1435
g2
(g3
g4
(dp1436
S'FT_DESC'
p1437
NsS'FT_TYPE'
p1438
g1435
sS'FT_GROUP'
p1439
Vair_monitor
p1440
sS'FT_COMMENT'
p1441
NsS'SYSTIME'
p1442
g2
(g13
g14
(lp1443
g16
(S'\x07\xde\x05\x01\x00\x00\x00\x00\x00\x00'
p1444
tp1445
Rp1446
aNatp1447
Rp1448
(dp1449
g23
S'[)'
p1450
sbstp1451
Rp1452
sVlvs_denuder_tandem
p1453
g2
(g3
g4
(dp1454
S'FT_DESC'
p1455
NsS'FT_TYPE'
p1456
g1453
sS'FT_GROUP'
p1457
Vair_sampler
p1458
sS'FT_COMMENT'
p1459
NsS'SYSTIME'
p1460
g2
(g13
g14
(lp1461
g16
(S'\x07\xde\x05\x01\x00\x00\x00\x00\x00\x00'
p1462
tp1463
Rp1464
aNatp1465
Rp1466
(dp1467
g23
S'[)'
p1468
sbstp1469
Rp1470
sVfilter_2pack
p1471
g2
(g3
g4
(dp1472
S'FT_DESC'
p1473
NsS'FT_TYPE'
p1474
g1471
sS'FT_GROUP'
p1475
Vair_sampler
p1476
sS'FT_COMMENT'
p1477
NsS'SYSTIME'
p1478
g2
(g13
g14
(lp1479
g16
(S'\x07\xde\x05\x01\x00\x00\x00\x00\x00\x00'
p1480
tp1481
Rp1482
aNatp1483
Rp1484
(dp1485
g23
S'[)'
p1486
sbstp1487
Rp1488
sVtdmps
p1489
g2
(g3
g4
(dp1490
S'FT_DESC'
p1491
VTwin Differential Mobility Particle Sizer
p1492
sS'FT_TYPE'
p1493
g1489
sS'FT_GROUP'
p1494
Vair_monitor
p1495
sS'FT_COMMENT'
p1496
NsS'SYSTIME'
p1497
g2
(g13
g14
(lp1498
g16
(S'\x07\xde\x05\x01\x00\x00\x00\x00\x00\x00'
p1499
tp1500
Rp1501
aNatp1502
Rp1503
(dp1504
g23
S'[)'
p1505
sbstp1506
Rp1507
sVaws
p1508
g2
(g3
g4
(dp1509
S'FT_DESC'
p1510
NsS'FT_TYPE'
p1511
g1508
sS'FT_GROUP'
p1512
Vphys_monitor
p1513
sS'FT_COMMENT'
p1514
NsS'SYSTIME'
p1515
g2
(g13
g14
(lp1516
g16
(S'\x07\xde\x05\x01\x00\x00\x00\x00\x00\x00'
p1517
tp1518
Rp1519
aNatp1520
Rp1521
(dp1522
g23
S'[)'
p1523
sbstp1524
Rp1525
sVdoas
p1526
g2
(g3
g4
(dp1527
S'FT_DESC'
p1528
NsS'FT_TYPE'
p1529
g1526
sS'FT_GROUP'
p1530
Vair_monitor
p1531
sS'FT_COMMENT'
p1532
NsS'SYSTIME'
p1533
g2
(g13
g14
(lp1534
g16
(S'\x07\xde\x05\x01\x00\x00\x00\x00\x00\x00'
p1535
tp1536
Rp1537
aNatp1538
Rp1539
(dp1540
g23
S'[)'
p1541
sbstp1542
Rp1543
sVaircraft_system
p1544
g2
(g3
g4
(dp1545
S'FT_DESC'
p1546
NsS'FT_TYPE'
p1547
g1544
sS'FT_GROUP'
p1548
Vphys_monitor
p1549
sS'FT_COMMENT'
p1550
NsS'SYSTIME'
p1551
g2
(g13
g14
(lp1552
g16
(S'\x07\xde\x05\x01\x00\x00\x00\x00\x00\x00'
p1553
tp1554
Rp1555
aNatp1556
Rp1557
(dp1558
g23
S'[)'
p1559
sbstp1560
Rp1561
sVlvs_QBQ
p1562
g2
(g3
g4
(dp1563
S'FT_DESC'
p1564
NsS'FT_TYPE'
p1565
g1562
sS'FT_GROUP'
p1566
Vair_sampler
p1567
sS'FT_COMMENT'
p1568
NsS'SYSTIME'
p1569
g2
(g13
g14
(lp1570
g16
(S'\x07\xde\x05\x01\x00\x00\x00\x00\x00\x00'
p1571
tp1572
Rp1573
aNatp1574
Rp1575
(dp1576
g23
S'[)'
p1577
sbstp1578
Rp1579
sVuv_fluoresc
p1580
g2
(g3
g4
(dp1581
S'FT_DESC'
p1582
NsS'FT_TYPE'
p1583
g1580
sS'FT_GROUP'
p1584
Vair_monitor
p1585
sS'FT_COMMENT'
p1586
NsS'SYSTIME'
p1587
g2
(g13
g14
(lp1588
g16
(S'\x07\xde\x05\x01\x00\x00\x00\x00\x00\x00'
p1589
tp1590
Rp1591
aNatp1592
Rp1593
(dp1594
g23
S'[)'
p1595
sbstp1596
Rp1597
sVprecip_gauge
p1598
g2
(g3
g4
(dp1599
S'FT_DESC'
p1600
VOfficial rain and snow gauges.
p1601
sS'FT_TYPE'
p1602
g1598
sS'FT_GROUP'
p1603
Vprecip_sampler
p1604
sS'FT_COMMENT'
p1605
NsS'SYSTIME'
p1606
g2
(g13
g14
(lp1607
g16
(S'\x07\xde\x05\x01\x00\x00\x00\x00\x00\x00'
p1608
tp1609
Rp1610
aNatp1611
Rp1612
(dp1613
g23
S'[)'
p1614
sbstp1615
Rp1616
sVglass_flask
p1617
g2
(g3
g4
(dp1618
S'FT_DESC'
p1619
NsS'FT_TYPE'
p1620
g1617
sS'FT_GROUP'
p1621
Vair_sampler
p1622
sS'FT_COMMENT'
p1623
NsS'SYSTIME'
p1624
g2
(g13
g14
(lp1625
g16
(S'\x07\xde\x05\x01\x00\x00\x00\x00\x00\x00'
p1626
tp1627
Rp1628
aNatp1629
Rp1630
(dp1631
g23
S'[)'
p1632
sbstp1633
Rp1634
sVpassive_puf
p1635
g2
(g3
g4
(dp1636
S'FT_DESC'
p1637
NsS'FT_TYPE'
p1638
g1635
sS'FT_GROUP'
p1639
Vair_monitor
p1640
sS'FT_COMMENT'
p1641
NsS'SYSTIME'
p1642
g2
(g13
g14
(lp1643
g16
(S'\x07\xde\x05\x01\x00\x00\x00\x00\x00\x00'
p1644
tp1645
Rp1646
aNatp1647
Rp1648
(dp1649
g23
S'[)'
p1650
sbstp1651
Rp1652
sVonline_gc
p1653
g2
(g3
g4
(dp1654
S'FT_DESC'
p1655
NsS'FT_TYPE'
p1656
g1653
sS'FT_GROUP'
p1657
Vair_monitor
p1658
sS'FT_COMMENT'
p1659
NsS'SYSTIME'
p1660
g2
(g13
g14
(lp1661
g16
(S'\x07\xde\x05\x01\x00\x00\x00\x00\x00\x00'
p1662
tp1663
Rp1664
aNatp1665
Rp1666
(dp1667
g23
S'[)'
p1668
sbstp1669
Rp1670
sVabs_tube
p1671
g2
(g3
g4
(dp1672
S'FT_DESC'
p1673
NsS'FT_TYPE'
p1674
g1671
sS'FT_GROUP'
p1675
Vair_sampler
p1676
sS'FT_COMMENT'
p1677
NsS'SYSTIME'
p1678
g2
(g13
g14
(lp1679
g16
(S'\x07\xde\x05\x01\x00\x00\x00\x00\x00\x00'
p1680
tp1681
Rp1682
aNatp1683
Rp1684
(dp1685
g23
S'[)'
p1686
sbstp1687
Rp1688
sVlow_vol_sampler
p1689
g2
(g3
g4
(dp1690
S'FT_DESC'
p1691
NsS'FT_TYPE'
p1692
g1689
sS'FT_GROUP'
p1693
Vair_sampler
p1694
sS'FT_COMMENT'
p1695
NsS'SYSTIME'
p1696
g2
(g13
g14
(lp1697
g16
(S'\x07\xde\x05\x01\x00\x00\x00\x00\x00\x00'
p1698
tp1699
Rp1700
aNatp1701
Rp1702
(dp1703
g23
S'[)'
p1704
sbstp1705
Rp1706
sVcpc
p1707
g2
(g3
g4
(dp1708
S'FT_DESC'
p1709
NsS'FT_TYPE'
p1710
g1707
sS'FT_GROUP'
p1711
Vair_monitor
p1712
sS'FT_COMMENT'
p1713
NsS'SYSTIME'
p1714
g2
(g13
g14
(lp1715
g16
(S'\x07\xde\x05\x01\x00\x00\x00\x00\x00\x00'
p1716
tp1717
Rp1718
aNatp1719
Rp1720
(dp1721
g23
S'[)'
p1722
sbstp1723
Rp1724
sVtedlar_bag
p1725
g2
(g3
g4
(dp1726
S'FT_DESC'
p1727
Vair sampling plastic bags, PVF (Tedlar) film
p1728
sS'FT_TYPE'
p1729
g1725
sS'FT_GROUP'
p1730
Vair_sampler
p1731
sS'FT_COMMENT'
p1732
NsS'SYSTIME'
p1733
g2
(g13
g14
(lp1734
g16
(S'\x07\xde\x05\x01\x00\x00\x00\x00\x00\x00'
p1735
tp1736
Rp1737
aNatp1738
Rp1739
(dp1740
g23
S'[)'
p1741
sbstp1742
Rp1743
sVfilter_3pack
p1744
g2
(g3
g4
(dp1745
S'FT_DESC'
p1746
NsS'FT_TYPE'
p1747
g1744
sS'FT_GROUP'
p1748
Vair_sampler
p1749
sS'FT_COMMENT'
p1750
NsS'SYSTIME'
p1751
g2
(g13
g14
(lp1752
g16
(S'\x07\xde\x05\x01\x00\x00\x00\x00\x00\x00'
p1753
tp1754
Rp1755
aNatp1756
Rp1757
(dp1758
g23
S'[)'
p1759
sbstp1760
Rp1761
sVIVLPM
p1762
g2
(g3
g4
(dp1763
S'FT_DESC'
p1764
NsS'FT_TYPE'
p1765
g1762
sS'FT_GROUP'
p1766
Vair_sampler
p1767
sS'FT_COMMENT'
p1768
NsS'SYSTIME'
p1769
g2
(g13
g14
(lp1770
g16
(S'\x07\xde\x05\x01\x00\x00\x00\x00\x00\x00'
p1771
tp1772
Rp1773
aNatp1774
Rp1775
(dp1776
g23
S'[)'
p1777
sbstp1778
Rp1779
s.