(dp0
VPFA
p1
ccopy_reg
_reconstructor
p2
(cnilutility.datatypes
DataObject
p3
c__builtin__
dict
p4
(dp5
S'IM_DESC'
p6
NsS'IM_INLETTUBE_MATERIAL'
p7
g1
sS'IM_COMMENT'
p8
NsS'SYSTIME'
p9
g2
(cnilutility.datetime_helper
DatetimeInterval
p10
c__builtin__
list
p11
(lp12
cdatetime
datetime
p13
(S'\x07\xe8\x07\x10\x0b\x02\x10\r/\xa6'
p14
tp15
Rp16
aNatp17
Rp18
(dp19
S'bounds'
p20
S'[)'
p21
sbstp22
Rp23
sVCopper
p24
g2
(g3
g4
(dp25
S'IM_DESC'
p26
NsS'IM_INLETTUBE_MATERIAL'
p27
g24
sS'IM_COMMENT'
p28
NsS'SYSTIME'
p29
g2
(g10
g11
(lp30
g13
(S'\x07\xde\x05\x01\x00\x00\x00\x00\x00\x00'
p31
tp32
Rp33
aNatp34
Rp35
(dp36
g20
S'[)'
p37
sbstp38
Rp39
sVTeflon
p40
g2
(g3
g4
(dp41
S'IM_DESC'
p42
NsS'IM_INLETTUBE_MATERIAL'
p43
g40
sS'IM_COMMENT'
p44
NsS'SYSTIME'
p45
g2
(g10
g11
(lp46
g13
(S'\x07\xde\x05\x01\x00\x00\x00\x00\x00\x00'
p47
tp48
Rp49
aNatp50
Rp51
(dp52
g20
S'[)'
p53
sbstp54
Rp55
sVStainless steel
p56
g2
(g3
g4
(dp57
S'IM_DESC'
p58
NsS'IM_INLETTUBE_MATERIAL'
p59
g56
sS'IM_COMMENT'
p60
NsS'SYSTIME'
p61
g2
(g10
g11
(lp62
g13
(S'\x07\xde\x05\x01\x00\x00\x00\x00\x00\x00'
p63
tp64
Rp65
aNatp66
Rp67
(dp68
g20
S'[)'
p69
sbstp70
Rp71
sVSynflex 1300
p72
g2
(g3
g4
(dp73
S'IM_DESC'
p74
VSynflex composite tubing: outer, high-density polyethylene layer, inner aluminium layer, ethylene copolymer coating
p75
sS'IM_INLETTUBE_MATERIAL'
p76
g72
sS'IM_COMMENT'
p77
NsS'SYSTIME'
p78
g2
(g10
g11
(lp79
g13
(S'\x07\xe7\x06\x15\x0b&(\x0c\x91\x94'
p80
tp81
Rp82
aNatp83
Rp84
(dp85
g20
S'[)'
p86
sbstp87
Rp88
sVGlass coated steel
p89
g2
(g3
g4
(dp90
S'IM_DESC'
p91
NsS'IM_INLETTUBE_MATERIAL'
p92
g89
sS'IM_COMMENT'
p93
NsS'SYSTIME'
p94
g2
(g10
g11
(lp95
g13
(S'\x07\xde\x05\x01\x00\x00\x00\x00\x00\x00'
p96
tp97
Rp98
aNatp99
Rp100
(dp101
g20
S'[)'
p102
sbstp103
Rp104
s.