(dp0
VDiffuser cone
p1
ccopy_reg
_reconstructor
p2
(cnilutility.datatypes
DataObject
p3
c__builtin__
dict
p4
(dp5
S'IT_DESC'
p6
NsS'IT_COMMENT'
p7
NsS'IT_INLET_TYPE'
p8
g1
sS'SYSTIME'
p9
g2
(cnilutility.datetime_helper
DatetimeInterval
p10
c__builtin__
list
p11
(lp12
cdatetime
datetime
p13
(S'\x07\xde\x05\x01\x00\x00\x00\x00\x00\x00'
p14
tp15
Rp16
aNatp17
Rp18
(dp19
S'bounds'
p20
S'[)'
p21
sbstp22
Rp23
sVImpactor--direct
p24
g2
(g3
g4
(dp25
S'IT_DESC'
p26
NsS'IT_COMMENT'
p27
NsS'IT_INLET_TYPE'
p28
g24
sS'SYSTIME'
p29
g2
(g10
g11
(lp30
g13
(S'\x07\xde\x05\x01\x00\x00\x00\x00\x00\x00'
p31
tp32
Rp33
aNatp34
Rp35
(dp36
g20
S'[)'
p37
sbstp38
Rp39
sVWhole-air inlet
p40
g2
(g3
g4
(dp41
S'IT_DESC'
p42
NsS'IT_COMMENT'
p43
NsS'IT_INLET_TYPE'
p44
g40
sS'SYSTIME'
p45
g2
(g10
g11
(lp46
g13
(S'\x07\xde\x05\x01\x00\x00\x00\x00\x00\x00'
p47
tp48
Rp49
aNatp50
Rp51
(dp52
g20
S'[)'
p53
sbstp54
Rp55
sVSelective filtration
p56
g2
(g3
g4
(dp57
S'IT_DESC'
p58
NsS'IT_COMMENT'
p59
NsS'IT_INLET_TYPE'
p60
g56
sS'SYSTIME'
p61
g2
(g10
g11
(lp62
g13
(S'\x07\xde\x05\x01\x00\x00\x00\x00\x00\x00'
p63
tp64
Rp65
aNatp66
Rp67
(dp68
g20
S'[)'
p69
sbstp70
Rp71
sVIsokinetic
p72
g2
(g3
g4
(dp73
S'IT_DESC'
p74
NsS'IT_COMMENT'
p75
NsS'IT_INLET_TYPE'
p76
g72
sS'SYSTIME'
p77
g2
(g10
g11
(lp78
g13
(S'\x07\xde\x05\x01\x00\x00\x00\x00\x00\x00'
p79
tp80
Rp81
aNatp82
Rp83
(dp84
g20
S'[)'
p85
sbstp86
Rp87
sVCanister valve opening
p88
g2
(g3
g4
(dp89
S'IT_DESC'
p90
NsS'IT_COMMENT'
p91
NsS'IT_INLET_TYPE'
p92
g88
sS'SYSTIME'
p93
g2
(g10
g11
(lp94
g13
(S'\x07\xde\x05\x01\x00\x00\x00\x00\x00\x00'
p95
tp96
Rp97
aNatp98
Rp99
(dp100
g20
S'[)'
p101
sbstp102
Rp103
sVStainless steel
p104
g2
(g3
g4
(dp105
S'IT_DESC'
p106
NsS'IT_COMMENT'
p107
NsS'IT_INLET_TYPE'
p108
g104
sS'SYSTIME'
p109
g2
(g10
g11
(lp110
g13
(S'\x07\xde\x05\x01\x00\x00\x00\x00\x00\x00'
p111
tp112
Rp113
aNatp114
Rp115
(dp116
g20
S'[)'
p117
sbstp118
Rp119
sVOpen conductive tubing
p120
g2
(g3
g4
(dp121
S'IT_DESC'
p122
NsS'IT_COMMENT'
p123
NsS'IT_INLET_TYPE'
p124
g120
sS'SYSTIME'
p125
g2
(g10
g11
(lp126
g13
(S'\x07\xde\x05\x01\x00\x00\x00\x00\x00\x00'
p127
tp128
Rp129
aNatp130
Rp131
(dp132
g20
S'[)'
p133
sbstp134
Rp135
sVNone--open-face filter
p136
g2
(g3
g4
(dp137
S'IT_DESC'
p138
NsS'IT_COMMENT'
p139
NsS'IT_INLET_TYPE'
p140
g136
sS'SYSTIME'
p141
g2
(g10
g11
(lp142
g13
(S'\x07\xde\x05\x01\x00\x00\x00\x00\x00\x00'
p143
tp144
Rp145
aNatp146
Rp147
(dp148
g20
S'[)'
p149
sbstp150
Rp151
sVHat or hood
p152
g2
(g3
g4
(dp153
S'IT_DESC'
p154
NsS'IT_COMMENT'
p155
NsS'IT_INLET_TYPE'
p156
g152
sS'SYSTIME'
p157
g2
(g10
g11
(lp158
g13
(S'\x07\xde\x05\x01\x00\x00\x00\x00\x00\x00'
p159
tp160
Rp161
aNatp162
Rp163
(dp164
g20
S'[)'
p165
sbstp166
Rp167
sVElutriator
p168
g2
(g3
g4
(dp169
S'IT_DESC'
p170
NsS'IT_COMMENT'
p171
NsS'IT_INLET_TYPE'
p172
g168
sS'SYSTIME'
p173
g2
(g10
g11
(lp174
g13
(S'\x07\xde\x05\x01\x00\x00\x00\x00\x00\x00'
p175
tp176
Rp177
aNatp178
Rp179
(dp180
g20
S'[)'
p181
sbstp182
Rp183
sVImpactor--virtual/concentrator
p184
g2
(g3
g4
(dp185
S'IT_DESC'
p186
NsS'IT_COMMENT'
p187
NsS'IT_INLET_TYPE'
p188
g184
sS'SYSTIME'
p189
g2
(g10
g11
(lp190
g13
(S'\x07\xde\x05\x01\x00\x00\x00\x00\x00\x00'
p191
tp192
Rp193
aNatp194
Rp195
(dp196
g20
S'[)'
p197
sbstp198
Rp199
sVCyclone
p200
g2
(g3
g4
(dp201
S'IT_DESC'
p202
NsS'IT_COMMENT'
p203
NsS'IT_INLET_TYPE'
p204
g200
sS'SYSTIME'
p205
g2
(g10
g11
(lp206
g13
(S'\x07\xde\x05\x01\x00\x00\x00\x00\x00\x00'
p207
tp208
Rp209
aNatp210
Rp211
(dp212
g20
S'[)'
p213
sbstp214
Rp215
sVImpactor--elutriator combination
p216
g2
(g3
g4
(dp217
S'IT_DESC'
p218
NsS'IT_COMMENT'
p219
NsS'IT_INLET_TYPE'
p220
g216
sS'SYSTIME'
p221
g2
(g10
g11
(lp222
g13
(S'\x07\xde\x05\x01\x00\x00\x00\x00\x00\x00'
p223
tp224
Rp225
aNatp226
Rp227
(dp228
g20
S'[)'
p229
sbstp230
Rp231
sVDownward-facing tube
p232
g2
(g3
g4
(dp233
S'IT_DESC'
p234
NsS'IT_COMMENT'
p235
NsS'IT_INLET_TYPE'
p236
g232
sS'SYSTIME'
p237
g2
(g10
g11
(lp238
g13
(S'\x07\xde\x05\x01\x00\x00\x00\x00\x00\x00'
p239
tp240
Rp241
aNatp242
Rp243
(dp244
g20
S'[)'
p245
sbstp246
Rp247
s.