(dp0
VNot corrected for reaction with O3 in the inlet
p1
ccopy_reg
_reconstructor
p2
(cnilutility.datatypes
DataObject
p3
c__builtin__
dict
p4
(dp5
S'OC_DESC'
p6
NsS'OC_OZONE_CORRECTION'
p7
g1
sS'OC_COMMENT'
p8
NsS'SYSTIME'
p9
g2
(cnilutility.datetime_helper
DatetimeInterval
p10
c__builtin__
list
p11
(lp12
cdatetime
datetime
p13
(S'\x07\xde\x05\x01\x00\x00\x00\x00\x00\x00'
p14
tp15
Rp16
aNatp17
Rp18
(dp19
S'bounds'
p20
S'[)'
p21
sbstp22
Rp23
sVCorrected for reaction with O3 in the inlet
p24
g2
(g3
g4
(dp25
S'OC_DESC'
p26
NsS'OC_OZONE_CORRECTION'
p27
g24
sS'OC_COMMENT'
p28
NsS'SYSTIME'
p29
g2
(g10
g11
(lp30
g13
(S'\x07\xde\x05\x01\x00\x00\x00\x00\x00\x00'
p31
tp32
Rp33
aNatp34
Rp35
(dp36
g20
S'[)'
p37
sbstp38
Rp39
s.