(dp0
Vpollen
p1
ccopy_reg
_reconstructor
p2
(cnilutility.datatypes
DataObject
p3
c__builtin__
dict
p4
(dp5
S'PG_NAME'
p6
g1
sS'PG_DESC'
p7
Vpollen
p8
sS'PG_COMMENT'
p9
NsS'CO_COUNT'
p10
L57L
sS'SYSTIME'
p11
g2
(cnilutility.datetime_helper
DatetimeInterval
p12
c__builtin__
list
p13
(lp14
cdatetime
datetime
p15
(S'\x07\xe7\x0b\n\x0c!\x1d\x0f-`'
p16
tp17
Rp18
aNatp19
Rp20
(dp21
S'bounds'
p22
S'[)'
p23
sbstp24
Rp25
sVGHG-Other_Halogenated
p26
g2
(g3
g4
(dp27
S'PG_NAME'
p28
g26
sS'PG_DESC'
p29
Vgreenhouse gases (other halogenated)
p30
sS'PG_COMMENT'
p31
NsS'CO_COUNT'
p32
L9L
sS'SYSTIME'
p33
g2
(g12
g13
(lp34
g15
(S'\x07\xe7\x0b\n\x0c!\x1d\x0f-`'
p35
tp36
Rp37
aNatp38
Rp39
(dp40
g22
S'[)'
p41
sbstp42
Rp43
sVGHG-Other_fluorinated
p44
g2
(g3
g4
(dp45
S'PG_NAME'
p46
g44
sS'PG_DESC'
p47
Vgreenhouse gases (other fluorinated)
p48
sS'PG_COMMENT'
p49
NsS'CO_COUNT'
p50
L3L
sS'SYSTIME'
p51
g2
(g12
g13
(lp52
g15
(S'\x07\xe7\x0b\n\x0c!\x1d\x0f-`'
p53
tp54
Rp55
aNatp56
Rp57
(dp58
g22
S'[)'
p59
sbstp60
Rp61
sVadd_halogenated
p62
g2
(g3
g4
(dp63
S'PG_NAME'
p64
g62
sS'PG_DESC'
p65
Vadditional halogenated compunds
p66
sS'PG_COMMENT'
p67
NsS'CO_COUNT'
p68
L13L
sS'SYSTIME'
p69
g2
(g12
g13
(lp70
g15
(S'\x07\xe7\x0b\n\x0c!\x1d\x0f-`'
p71
tp72
Rp73
aNatp74
Rp75
(dp76
g22
S'[)'
p77
sbstp78
Rp79
sVGHG-HFCs
p80
g2
(g3
g4
(dp81
S'PG_NAME'
p82
g80
sS'PG_DESC'
p83
Vgreenhouse gases (HFCs)
p84
sS'PG_COMMENT'
p85
NsS'CO_COUNT'
p86
L12L
sS'SYSTIME'
p87
g2
(g12
g13
(lp88
g15
(S'\x07\xe7\x0b\n\x0c!\x1d\x0f-`'
p89
tp90
Rp91
aNatp92
Rp93
(dp94
g22
S'[)'
p95
sbstp96
Rp97
sVpop
p98
g2
(g3
g4
(dp99
S'PG_NAME'
p100
g98
sS'PG_DESC'
p101
VPOPs (persistent organic pollutants)
p102
sS'PG_COMMENT'
p103
NsS'CO_COUNT'
p104
L359L
sS'SYSTIME'
p105
g2
(g12
g13
(lp106
g15
(S'\x07\xe7\x0b\n\x0c!\x1d\x0f-`'
p107
tp108
Rp109
aNatp110
Rp111
(dp112
g22
S'[)'
p113
sbstp114
Rp115
sVchlordane
p116
g2
(g3
g4
(dp117
S'PG_NAME'
p118
g116
sS'PG_DESC'
p119
Vchlordane
p120
sS'PG_COMMENT'
p121
NsS'CO_COUNT'
p122
L4L
sS'SYSTIME'
p123
g2
(g12
g13
(lp124
g15
(S'\x07\xde\x05\x01\x00\x00\x00\x00\x00\x00'
p125
tp126
Rp127
aNatp128
Rp129
(dp130
g22
S'[)'
p131
sbstp132
Rp133
sVGHG-PFCs
p134
g2
(g3
g4
(dp135
S'PG_NAME'
p136
g134
sS'PG_DESC'
p137
Vgreenhouse gases (PFCs)
p138
sS'PG_COMMENT'
p139
NsS'CO_COUNT'
p140
L4L
sS'SYSTIME'
p141
g2
(g12
g13
(lp142
g15
(S'\x07\xe7\x0b\n\x0c!\x1d\x0f-`'
p143
tp144
Rp145
aNatp146
Rp147
(dp148
g22
S'[)'
p149
sbstp150
Rp151
sVpcddf
p152
g2
(g3
g4
(dp153
S'PG_NAME'
p154
g152
sS'PG_DESC'
p155
VPCDD/F
p156
sS'PG_COMMENT'
p157
NsS'CO_COUNT'
p158
L17L
sS'SYSTIME'
p159
g2
(g12
g13
(lp160
g15
(S'\x07\xe7\t\x0e\t!\x14\x08\xe7\x82'
p161
tp162
Rp163
aNatp164
Rp165
(dp166
g22
S'[)'
p167
sbstp168
Rp169
sVhbcd
p170
g2
(g3
g4
(dp171
S'PG_NAME'
p172
g170
sS'PG_DESC'
p173
VHBCDs (hexabromocyclododecane)
p174
sS'PG_COMMENT'
p175
NsS'CO_COUNT'
p176
L4L
sS'SYSTIME'
p177
g2
(g12
g13
(lp178
g15
(S'\x07\xe7\x0b\n\x0c!\x1d\x0f-`'
p179
tp180
Rp181
aNatp182
Rp183
(dp184
g22
S'[)'
p185
sbstp186
Rp187
sVscattering
p188
g2
(g3
g4
(dp189
S'PG_NAME'
p190
g188
sS'PG_DESC'
p191
Vaerosol light scattering
p192
sS'PG_COMMENT'
p193
NsS'CO_COUNT'
p194
L2L
sS'SYSTIME'
p195
g2
(g12
g13
(lp196
g15
(S'\x07\xe7\x0b\n\x0c!\x1d\x0f-`'
p197
tp198
Rp199
aNatp200
Rp201
(dp202
g22
S'[)'
p203
sbstp204
Rp205
sVpah-16
p206
g2
(g3
g4
(dp207
S'PG_NAME'
p208
g206
sS'PG_DESC'
p209
VPAHs (polycyclic aromatic hydrocarbons, 16)
p210
sS'PG_COMMENT'
p211
NsS'CO_COUNT'
p212
L17L
sS'SYSTIME'
p213
g2
(g12
g13
(lp214
g15
(S'\x07\xe7\x0b\n\x0c!\x1d\x0f-`'
p215
tp216
Rp217
aNatp218
Rp219
(dp220
g22
S'[)'
p221
sbstp222
Rp223
sVVOC-OVOCs
p224
g2
(g3
g4
(dp225
S'PG_NAME'
p226
g224
sS'PG_DESC'
p227
VVOC (OVOCs)
p228
sS'PG_COMMENT'
p229
NsS'CO_COUNT'
p230
L32L
sS'SYSTIME'
p231
g2
(g12
g13
(lp232
g15
(S'\x07\xe7\x0b\n\x0c!\x1d\x0f-`'
p233
tp234
Rp235
aNatp236
Rp237
(dp238
g22
S'[)'
p239
sbstp240
Rp241
sVall_precip
p242
g2
(g3
g4
(dp243
S'PG_NAME'
p244
g242
sS'PG_DESC'
p245
Vall precipitation related measurements
p246
sS'PG_COMMENT'
p247
NsS'CO_COUNT'
p248
L210L
sS'SYSTIME'
p249
g2
(g12
g13
(lp250
g15
(S'\x07\xde\x05\x01\x00\x00\x00\x00\x00\x00'
p251
tp252
Rp253
aNatp254
Rp255
(dp256
g22
S'[)'
p257
sbstp258
Rp259
sVpcb-7
p260
g2
(g3
g4
(dp261
S'PG_NAME'
p262
g260
sS'PG_DESC'
p263
VPCBs (polychlorinated biphenyls, 7)
p264
sS'PG_COMMENT'
p265
NsS'CO_COUNT'
p266
L7L
sS'SYSTIME'
p267
g2
(g12
g13
(lp268
g15
(S'\x07\xe7\x0b\n\x0c!\x1d\x0f-`'
p269
tp270
Rp271
aNatp272
Rp273
(dp274
g22
S'[)'
p275
sbstp276
Rp277
sVpcb
p278
g2
(g3
g4
(dp279
S'PG_NAME'
p280
g278
sS'PG_DESC'
p281
VPCBs (polychlorinated biphenyls)
p282
sS'PG_COMMENT'
p283
NsS'CO_COUNT'
p284
L156L
sS'SYSTIME'
p285
g2
(g12
g13
(lp286
g15
(S'\x07\xe7\x0b\n\x0c!\x1d\x0f-`'
p287
tp288
Rp289
aNatp290
Rp291
(dp292
g22
S'[)'
p293
sbstp294
Rp295
sVddt
p296
g2
(g3
g4
(dp297
S'PG_NAME'
p298
g296
sS'PG_DESC'
p299
VDDT (dichlorodiphenyltrichloroethane)
p300
sS'PG_COMMENT'
p301
NsS'CO_COUNT'
p302
L8L
sS'SYSTIME'
p303
g2
(g12
g13
(lp304
g15
(S'\x07\xe7\x0b\n\x0c!\x1d\x0f-`'
p305
tp306
Rp307
aNatp308
Rp309
(dp310
g22
S'[)'
p311
sbstp312
Rp313
sVhm
p314
g2
(g3
g4
(dp315
S'PG_NAME'
p316
g314
sS'PG_DESC'
p317
Vheavy metals
p318
sS'PG_COMMENT'
p319
NsS'CO_COUNT'
p320
L62L
sS'SYSTIME'
p321
g2
(g12
g13
(lp322
g15
(S'\x07\xde\x05\x01\x00\x00\x00\x00\x00\x00'
p323
tp324
Rp325
aNatp326
Rp327
(dp328
g22
S'[)'
p329
sbstp330
Rp331
sVVOC-Terpenes
p332
g2
(g3
g4
(dp333
S'PG_NAME'
p334
g332
sS'PG_DESC'
p335
VVOC (terpenes)
p336
sS'PG_COMMENT'
p337
NsS'CO_COUNT'
p338
L21L
sS'SYSTIME'
p339
g2
(g12
g13
(lp340
g15
(S'\x07\xe7\x0b\n\x0c!\x1d\x0f-`'
p341
tp342
Rp343
aNatp344
Rp345
(dp346
g22
S'[)'
p347
sbstp348
Rp349
sVvoc_carb
p350
g2
(g3
g4
(dp351
S'PG_NAME'
p352
g350
sS'PG_DESC'
p353
VVOC (carbonyls)
p354
sS'PG_COMMENT'
p355
NsS'CO_COUNT'
p356
L40L
sS'SYSTIME'
p357
g2
(g12
g13
(lp358
g15
(S'\x07\xe7\t\x0e\n2"\x03\xb92'
p359
tp360
Rp361
aNatp362
Rp363
(dp364
g22
S'[)'
p365
sbstp366
Rp367
sVpbde
p368
g2
(g3
g4
(dp369
S'PG_NAME'
p370
g368
sS'PG_DESC'
p371
VPBDEs (polybrominated diphenyl ethers)
p372
sS'PG_COMMENT'
p373
NsS'CO_COUNT'
p374
L38L
sS'SYSTIME'
p375
g2
(g12
g13
(lp376
g15
(S'\x07\xe7\x0b\n\x0c!\x1d\x0f-`'
p377
tp378
Rp379
aNatp380
Rp381
(dp382
g22
S'[)'
p383
sbstp384
Rp385
sVpah
p386
g2
(g3
g4
(dp387
S'PG_NAME'
p388
g386
sS'PG_DESC'
p389
VPAHs (polycyclic aromatic hydrocarbons)
p390
sS'PG_COMMENT'
p391
NsS'CO_COUNT'
p392
L56L
sS'SYSTIME'
p393
g2
(g12
g13
(lp394
g15
(S'\x07\xe7\x0b\n\x0c!\x1d\x0f-`'
p395
tp396
Rp397
aNatp398
Rp399
(dp400
g22
S'[)'
p401
sbstp402
Rp403
sVEC-OC
p404
g2
(g3
g4
(dp405
S'PG_NAME'
p406
g404
sS'PG_DESC'
p407
VOC/EC
p408
sS'PG_COMMENT'
p409
NsS'CO_COUNT'
p410
L5L
sS'SYSTIME'
p411
g2
(g12
g13
(lp412
g15
(S'\x07\xe7\t\r\x0b5*\x0e\rs'
p413
tp414
Rp415
aNatp416
Rp417
(dp418
g22
S'[)'
p419
sbstp420
Rp421
sVo3
p422
g2
(g3
g4
(dp423
S'PG_NAME'
p424
g422
sS'PG_DESC'
p425
Vozone
p426
sS'PG_COMMENT'
p427
NsS'CO_COUNT'
p428
L1L
sS'SYSTIME'
p429
g2
(g12
g13
(lp430
g15
(S'\x07\xe7\x0b\n\x0c!\x1d\x0f-`'
p431
tp432
Rp433
aNatp434
Rp435
(dp436
g22
S'[)'
p437
sbstp438
Rp439
sVpm
p440
g2
(g3
g4
(dp441
S'PG_NAME'
p442
g440
sS'PG_DESC'
p443
VPM mass
p444
sS'PG_COMMENT'
p445
NsS'CO_COUNT'
p446
L4L
sS'SYSTIME'
p447
g2
(g12
g13
(lp448
g15
(S'\x07\xe7\t\r\r\x13\x15\x01\xdf\x1a'
p449
tp450
Rp451
aNatp452
Rp453
(dp454
g22
S'[)'
p455
sbstp456
Rp457
sVVOC-Mass-based
p458
g2
(g3
g4
(dp459
S'PG_NAME'
p460
g458
sS'PG_DESC'
p461
VVOCs based on molecular mass (multiple species by PTR-MS)
p462
sS'PG_COMMENT'
p463
NsS'CO_COUNT'
p464
L20L
sS'SYSTIME'
p465
g2
(g12
g13
(lp466
g15
(S'\x07\xe9\x02\x04\n\x0e\x03\n\xe4\x0c'
p467
tp468
Rp469
aNatp470
Rp471
(dp472
g22
S'[)'
p473
sbstp474
Rp475
sVtracers
p476
g2
(g3
g4
(dp477
S'PG_NAME'
p478
g476
sS'PG_DESC'
p479
Vorganic tracers
p480
sS'PG_COMMENT'
p481
NsS'CO_COUNT'
p482
L51L
sS'SYSTIME'
p483
g2
(g12
g13
(lp484
g15
(S'\x07\xe7\x0b\n\x0c!\x1d\x0f-`'
p485
tp486
Rp487
aNatp488
Rp489
(dp490
g22
S'[)'
p491
sbstp492
Rp493
sVGHGmain
p494
g2
(g3
g4
(dp495
S'PG_NAME'
p496
g494
sS'PG_DESC'
p497
Vmain greenhouse gases
p498
sS'PG_COMMENT'
p499
NsS'CO_COUNT'
p500
L4L
sS'SYSTIME'
p501
g2
(g12
g13
(lp502
g15
(S'\x07\xe7\x0b\n\x0c!\x1d\x0f-`'
p503
tp504
Rp505
aNatp506
Rp507
(dp508
g22
S'[)'
p509
sbstp510
Rp511
sVVOC-Alkynes
p512
g2
(g3
g4
(dp513
S'PG_NAME'
p514
g512
sS'PG_DESC'
p515
VVOC (alkynes)
p516
sS'PG_COMMENT'
p517
NsS'CO_COUNT'
p518
L3L
sS'SYSTIME'
p519
g2
(g12
g13
(lp520
g15
(S'\x07\xe7\x0b\n\x0c!\x1d\x0f-`'
p521
tp522
Rp523
aNatp524
Rp525
(dp526
g22
S'[)'
p527
sbstp528
Rp529
sVmain_air
p530
g2
(g3
g4
(dp531
S'PG_NAME'
p532
g530
sS'PG_DESC'
p533
Vinorganics in air and particle phase
p534
sS'PG_COMMENT'
p535
NsS'CO_COUNT'
p536
L36L
sS'SYSTIME'
p537
g2
(g12
g13
(lp538
g15
(S'\x07\xe7\x0b\n\x0c!\x1d\x0f-`'
p539
tp540
Rp541
aNatp542
Rp543
(dp544
g22
S'[)'
p545
sbstp546
Rp547
sVGHG
p548
g2
(g3
g4
(dp549
S'PG_NAME'
p550
g548
sS'PG_DESC'
p551
Vgreenhouse gases
p552
sS'PG_COMMENT'
p553
NsS'CO_COUNT'
p554
L44L
sS'SYSTIME'
p555
g2
(g12
g13
(lp556
g15
(S'\x07\xe7\x0b\n\x0c!\x1d\x0f-`'
p557
tp558
Rp559
aNatp560
Rp561
(dp562
g22
S'[)'
p563
sbstp564
Rp565
sVmet
p566
g2
(g3
g4
(dp567
S'PG_NAME'
p568
g566
sS'PG_DESC'
p569
Vmeteorology
p570
sS'PG_COMMENT'
p571
NsS'CO_COUNT'
p572
L11L
sS'SYSTIME'
p573
g2
(g12
g13
(lp574
g15
(S'\x07\xe7\x0b\n\x0c!\x1d\x0f-`'
p575
tp576
Rp577
aNatp578
Rp579
(dp580
g22
S'[)'
p581
sbstp582
Rp583
sVNOx
p584
g2
(g3
g4
(dp585
S'PG_NAME'
p586
g584
sS'PG_DESC'
p587
Vnitrogen oxides
p588
sS'PG_COMMENT'
p589
NsS'CO_COUNT'
p590
L3L
sS'SYSTIME'
p591
g2
(g12
g13
(lp592
g15
(S'\x07\xde\x05\x01\x00\x00\x00\x00\x00\x00'
p593
tp594
Rp595
aNatp596
Rp597
(dp598
g22
S'[)'
p599
sbstp600
Rp601
sVvoc_hc
p602
g2
(g3
g4
(dp603
S'PG_NAME'
p604
g602
sS'PG_DESC'
p605
VVOC (hydrocarbons)
p606
sS'PG_COMMENT'
p607
NsS'CO_COUNT'
p608
L118L
sS'SYSTIME'
p609
g2
(g12
g13
(lp610
g15
(S'\x07\xe7\t\x0e\n2"\x03\xb92'
p611
tp612
Rp613
aNatp614
Rp615
(dp616
g22
S'[)'
p617
sbstp618
Rp619
sVall_air
p620
g2
(g3
g4
(dp621
S'PG_NAME'
p622
g620
sS'PG_DESC'
p623
Vall air and aerosol measurements
p624
sS'PG_COMMENT'
p625
NsS'CO_COUNT'
p626
L925L
sS'SYSTIME'
p627
g2
(g12
g13
(lp628
g15
(S'\x07\xde\x05\x01\x00\x00\x00\x00\x00\x00'
p629
tp630
Rp631
aNatp632
Rp633
(dp634
g22
S'[)'
p635
sbstp636
Rp637
sVVOC-Alkenes
p638
g2
(g3
g4
(dp639
S'PG_NAME'
p640
g638
sS'PG_DESC'
p641
VVOC (alkenes)
p642
sS'PG_COMMENT'
p643
NsS'CO_COUNT'
p644
L18L
sS'SYSTIME'
p645
g2
(g12
g13
(lp646
g15
(S'\x07\xe7\x0b\n\x0c!\x1d\x0f-`'
p647
tp648
Rp649
aNatp650
Rp651
(dp652
g22
S'[)'
p653
sbstp654
Rp655
sVhch
p656
g2
(g3
g4
(dp657
S'PG_NAME'
p658
g656
sS'PG_DESC'
p659
VHCH (hexachlorocyclohexanes)
p660
sS'PG_COMMENT'
p661
NsS'CO_COUNT'
p662
L3L
sS'SYSTIME'
p663
g2
(g12
g13
(lp664
g15
(S'\x07\xe7\x0b\n\x0c!\x1d\x0f-`'
p665
tp666
Rp667
aNatp668
Rp669
(dp670
g22
S'[)'
p671
sbstp672
Rp673
sVhmb
p674
g2
(g3
g4
(dp675
S'PG_NAME'
p676
g674
sS'PG_DESC'
p677
VHalomethoxybenzenes (HMBs)
p678
sS'PG_COMMENT'
p679
NsS'CO_COUNT'
p680
L8L
sS'SYSTIME'
p681
g2
(g12
g13
(lp682
g15
(S'\x07\xe9\x0c\x04\x0b#(\x0ew\x96'
p683
tp684
Rp685
aNatp686
Rp687
(dp688
g22
S'[)'
p689
sbstp690
Rp691
sVhg
p692
g2
(g3
g4
(dp693
S'PG_NAME'
p694
g692
sS'PG_DESC'
p695
Vmercury
p696
sS'PG_COMMENT'
p697
NsS'CO_COUNT'
p698
L6L
sS'SYSTIME'
p699
g2
(g12
g13
(lp700
g15
(S'\x07\xe7\x0b\n\x0c!\x1d\x0f-`'
p701
tp702
Rp703
aNatp704
Rp705
(dp706
g22
S'[)'
p707
sbstp708
Rp709
sVbio_aerosols
p710
g2
(g3
g4
(dp711
S'PG_NAME'
p712
g710
sS'PG_DESC'
p713
Vbioaerosols
p714
sS'PG_COMMENT'
p715
NsS'CO_COUNT'
p716
L63L
sS'SYSTIME'
p717
g2
(g12
g13
(lp718
g15
(S'\x07\xe7\x0b\n\x0c!\x1d\x0f-`'
p719
tp720
Rp721
aNatp722
Rp723
(dp724
g22
S'[)'
p725
sbstp726
Rp727
sVGHG-Halons
p728
g2
(g3
g4
(dp729
S'PG_NAME'
p730
g728
sS'PG_DESC'
p731
Vgreenhouse gases (halons)
p732
sS'PG_COMMENT'
p733
NsS'CO_COUNT'
p734
L3L
sS'SYSTIME'
p735
g2
(g12
g13
(lp736
g15
(S'\x07\xe7\x0b\n\x0c!\x1d\x0f-`'
p737
tp738
Rp739
aNatp740
Rp741
(dp742
g22
S'[)'
p743
sbstp744
Rp745
sVVOC
p746
g2
(g3
g4
(dp747
S'PG_NAME'
p748
g746
sS'PG_DESC'
p749
VVOC (volatile organic compounds)
p750
sS'PG_COMMENT'
p751
NsS'CO_COUNT'
p752
L183L
sS'SYSTIME'
p753
g2
(g12
g13
(lp754
g15
(S'\x07\xe7\x0b\n\x0f\x088\x0b\xdc@'
p755
tp756
Rp757
aNatp758
Rp759
(dp760
g22
S'[)'
p761
sbstp762
Rp763
sVmain_precip
p764
g2
(g3
g4
(dp765
S'PG_NAME'
p766
g764
sS'PG_DESC'
p767
Vinorganics in precipitation
p768
sS'PG_COMMENT'
p769
NsS'CO_COUNT'
p770
L16L
sS'SYSTIME'
p771
g2
(g12
g13
(lp772
g15
(S'\x07\xe7\x0b\n\x0c!\x1d\x0f-`'
p773
tp774
Rp775
aNatp776
Rp777
(dp778
g22
S'[)'
p779
sbstp780
Rp781
sVVOC-Alkanes
p782
g2
(g3
g4
(dp783
S'PG_NAME'
p784
g782
sS'PG_DESC'
p785
VVOC (alkanes)
p786
sS'PG_COMMENT'
p787
NsS'CO_COUNT'
p788
L38L
sS'SYSTIME'
p789
g2
(g12
g13
(lp790
g15
(S'\x07\xe7\x0b\n\x0c!\x1d\x0f-`'
p791
tp792
Rp793
aNatp794
Rp795
(dp796
g22
S'[)'
p797
sbstp798
Rp799
sVVOC-Aromatics
p800
g2
(g3
g4
(dp801
S'PG_NAME'
p802
g800
sS'PG_DESC'
p803
VVOC (aromatics)
p804
sS'PG_COMMENT'
p805
NsS'CO_COUNT'
p806
L14L
sS'SYSTIME'
p807
g2
(g12
g13
(lp808
g15
(S'\x07\xe7\x0b\n\x0c!\x1d\x0f-`'
p809
tp810
Rp811
aNatp812
Rp813
(dp814
g22
S'[)'
p815
sbstp816
Rp817
sVfungi_spores
p818
g2
(g3
g4
(dp819
S'PG_NAME'
p820
g818
sS'PG_DESC'
p821
Vfungi spores
p822
sS'PG_COMMENT'
p823
NsS'CO_COUNT'
p824
L6L
sS'SYSTIME'
p825
g2
(g12
g13
(lp826
g15
(S'\x07\xe7\x0b\n\x0c!\x1d\x0f-`'
p827
tp828
Rp829
aNatp830
Rp831
(dp832
g22
S'[)'
p833
sbstp834
Rp835
sVGHG-CFCs
p836
g2
(g3
g4
(dp837
S'PG_NAME'
p838
g836
sS'PG_DESC'
p839
Vgreenhouse gases (CFCs)
p840
sS'PG_COMMENT'
p841
NsS'CO_COUNT'
p842
L5L
sS'SYSTIME'
p843
g2
(g12
g13
(lp844
g15
(S'\x07\xe7\x0b\n\x0c!\x1d\x0f-`'
p845
tp846
Rp847
aNatp848
Rp849
(dp850
g22
S'[)'
p851
sbstp852
Rp853
sVpfas
p854
g2
(g3
g4
(dp855
S'PG_NAME'
p856
g854
sS'PG_DESC'
p857
VPFAS (per- and polyfluoroalkyl substances)
p858
sS'PG_COMMENT'
p859
NsS'CO_COUNT'
p860
L50L
sS'SYSTIME'
p861
g2
(g12
g13
(lp862
g15
(S'\x07\xe7\x0b\n\x0c!\x1d\x0f-`'
p863
tp864
Rp865
aNatp866
Rp867
(dp868
g22
S'[)'
p869
sbstp870
Rp871
sVGHG-HCFCs
p872
g2
(g3
g4
(dp873
S'PG_NAME'
p874
g872
sS'PG_DESC'
p875
Vgreenhouse gases (HCFCs)
p876
sS'PG_COMMENT'
p877
NsS'CO_COUNT'
p878
L4L
sS'SYSTIME'
p879
g2
(g12
g13
(lp880
g15
(S'\x07\xe7\x0b\n\x0c!\x1d\x0f-`'
p881
tp882
Rp883
aNatp884
Rp885
(dp886
g22
S'[)'
p887
sbstp888
Rp889
s.