(dp0
VIMPROVE
p1
ccopy_reg
_reconstructor
p2
(cnilutility.datatypes
DataObject
p3
c__builtin__
dict
p4
(dp5
S'PR_HOMEPAGE_URL'
p6
NsS'PS_ID'
p7
I8633
sS'OPEN_ACCESS'
p8
I00
sS'PR_DESC'
p9
Vhttp://vista.cira.colostate.edu/improve/Publications/OtherDocs/IMPROVEDataGuide/IMPROVEDataGuide.htm
p10
sS'PR_STARTDATE'
p11
cdatetime
datetime
p12
(S'\x07\xd9\x02\x0f\x00\x00\x00\x00\x00\x00'
p13
tp14
Rp15
sS'PR_ENDDATE'
p16
NsS'PR_ACRONYM'
p17
g1
sS'SYSTIME'
p18
g2
(cnilutility.datetime_helper
DatetimeInterval
p19
c__builtin__
list
p20
(lp21
g12
(S'\x07\xde\x05\x01\x00\x00\x00\x00\x00\x00'
p22
tp23
Rp24
aNatp25
Rp26
(dp27
S'bounds'
p28
S'[)'
p29
sbsS'PR_NAME'
p30
VIMPROVE
p31
sS'PR_DATAPOLICY'
p32
NsS'PR_COMMENT'
p33
Nstp34
Rp35
sVWDCRG_legacy
p36
g2
(g3
g4
(dp37
S'PR_HOMEPAGE_URL'
p38
NsS'PS_ID'
p39
I1390
sS'OPEN_ACCESS'
p40
I00
sS'PR_DESC'
p41
VWDCRG legacy data converted from WDCGG, content is locked and data not available
p42
sS'PR_STARTDATE'
p43
g12
(S'\x07\xe4\n\x02\x00\x00\x00\x00\x00\x00'
p44
tp45
Rp46
sS'PR_ENDDATE'
p47
NsS'PR_ACRONYM'
p48
g36
sS'SYSTIME'
p49
g2
(g19
g20
(lp50
g12
(S'\x07\xde\x05\x01\x00\x00\x00\x00\x00\x00'
p51
tp52
Rp53
aNatp54
Rp55
(dp56
g28
S'[)'
p57
sbsS'PR_NAME'
p58
VWDCRG legacy data
p59
sS'PR_DATAPOLICY'
p60
NsS'PR_COMMENT'
p61
Nstp62
Rp63
sVCAMPAIGN
p64
g2
(g3
g4
(dp65
S'PR_HOMEPAGE_URL'
p66
NsS'PS_ID'
p67
I6555
sS'OPEN_ACCESS'
p68
I00
sS'PR_DESC'
p69
NsS'PR_STARTDATE'
p70
g12
(S'\x07\xd2\x07\x01\x00\x00\x00\x00\x00\x00'
p71
tp72
Rp73
sS'PR_ENDDATE'
p74
NsS'PR_ACRONYM'
p75
g64
sS'SYSTIME'
p76
g2
(g19
g20
(lp77
g12
(S'\x07\xde\x05\x01\x00\x00\x00\x00\x00\x00'
p78
tp79
Rp80
aNatp81
Rp82
(dp83
g28
S'[)'
p84
sbsS'PR_NAME'
p85
NsS'PR_DATAPOLICY'
p86
VFor scientific purposes, access to the data is limited. Data will be given access to after approval from the data producer or owner.
p87
sS'PR_COMMENT'
p88
Nstp89
Rp90
sVGUAN
p91
g2
(g3
g4
(dp92
S'PR_HOMEPAGE_URL'
p93
Vhttp://wiki.tropos.de/index.php/GUAN
p94
sS'PS_ID'
p95
I13767
sS'OPEN_ACCESS'
p96
I01
sS'PR_DESC'
p97
VGUAN is a joint observation network, which aims to improve our understanding of atmospheric aerosol particles with regard to human particle exposure and aerosol climate effects.
p98
sS'PR_STARTDATE'
p99
g12
(S'\x07\xdd\x01\x1f\x130 \x00\x00\x00'
p100
tp101
Rp102
sS'PR_ENDDATE'
p103
NsS'PR_ACRONYM'
p104
g91
sS'SYSTIME'
p105
g2
(g19
g20
(lp106
g12
(S'\x07\xde\x05\x01\x00\x00\x00\x00\x00\x00'
p107
tp108
Rp109
aNatp110
Rp111
(dp112
g28
S'[)'
p113
sbsS'PR_NAME'
p114
VGerman Ultrafine Aerosol Networ
p115
sS'PR_DATAPOLICY'
p116
Vhttp://actris.nilu.no/Content/Documents/DataPolicy.pdf
p117
sS'PR_COMMENT'
p118
Nstp119
Rp120
sVMOCA
p121
g2
(g3
g4
(dp122
S'PR_HOMEPAGE_URL'
p123
Vhttp://moca.nilu.no
p124
sS'PS_ID'
p125
I9744
sS'OPEN_ACCESS'
p126
I00
sS'PR_DESC'
p127
VMOCA is a project funded by the Norwegian Research Council that will apply advanced measurements and modelling to quantify the amount and present atmospheric impact of CH4 originating from MH.
p128
sS'PR_STARTDATE'
p129
g12
(S'\x07\xde\x01\x01\x00\x00\x00\x00\x00\x00'
p130
tp131
Rp132
sS'PR_ENDDATE'
p133
NsS'PR_ACRONYM'
p134
g121
sS'SYSTIME'
p135
g2
(g19
g20
(lp136
g12
(S'\x07\xde\x05\x01\x00\x00\x00\x00\x00\x00'
p137
tp138
Rp139
aNatp140
Rp141
(dp142
g28
S'[)'
p143
sbsS'PR_NAME'
p144
VMethane emissions from the Arctic OCean to the Atmosphere
p145
sS'PR_DATAPOLICY'
p146
VFor scientific purposes, access to MOCA data is unlimited but by their use you accept that an offer of co-authorship will be made through personal contact with the data producer or owner.
p147
sS'PR_COMMENT'
p148
Nstp149
Rp150
sVWeBaSOOP
p151
g2
(g3
g4
(dp152
S'PR_HOMEPAGE_URL'
p153
Vhttps://webasoop.vinca.rs/
p154
sS'PS_ID'
p155
NsS'OPEN_ACCESS'
p156
I00
sS'PR_DESC'
p157
NsS'PR_STARTDATE'
p158
g12
(S'\x07\xe6\x07\x01\x00\x00\x00\x00\x00\x00'
p159
tp160
Rp161
sS'PR_ENDDATE'
p162
g12
(S'\x07\xe9\x0c\x1f\x00\x00\x00\x00\x00\x00'
p163
tp164
Rp165
sS'PR_ACRONYM'
p166
g151
sS'SYSTIME'
p167
g2
(g19
g20
(lp168
g12
(S'\x07\xe9\x07\x03\n3.\x03\x94m'
p169
tp170
Rp171
aNatp172
Rp173
(dp174
g28
S'[)'
p175
sbsS'PR_NAME'
p176
VResearch Reinforcing in the Western Balkans in Offline and Online Monitoring and Source Identification of Atmospheric Particles
p177
sS'PR_DATAPOLICY'
p178
NsS'PR_COMMENT'
p179
Nstp180
Rp181
sVEUSAAR_preliminary
p182
g2
(g3
g4
(dp183
S'PR_HOMEPAGE_URL'
p184
Vhttp://www.eusaar.net
p185
sS'PS_ID'
p186
I13767
sS'OPEN_ACCESS'
p187
I00
sS'PR_DESC'
p188
VIntegration of measurements of atmospheric aerosol properties performed in a distributed network of 20 high quality European ground-based stations in support of policy issues on air quality, long-range transport of pollutants and climate change.
p189
sS'PR_STARTDATE'
p190
g12
(S'\x07\xd8\n\t\x14\r8\x00\x9c@'
p191
tp192
Rp193
sS'PR_ENDDATE'
p194
NsS'PR_ACRONYM'
p195
g182
sS'SYSTIME'
p196
g2
(g19
g20
(lp197
g12
(S'\x07\xde\x05\x01\x00\x00\x00\x00\x00\x00'
p198
tp199
Rp200
aNatp201
Rp202
(dp203
g28
S'[)'
p204
sbsS'PR_NAME'
p205
VPreliminary data submissions for European Supersites for Atmospheric Aerosol Research
p206
sS'PR_DATAPOLICY'
p207
Vhttp://www.eusaar.net/files/data/data_protocol.cfm
p208
sS'PR_COMMENT'
p209
Nstp210
Rp211
sVNILU_NRT
p212
g2
(g3
g4
(dp213
S'PR_HOMEPAGE_URL'
p214
Vhttp://www.nilu.no
p215
sS'PS_ID'
p216
I1195
sS'OPEN_ACCESS'
p217
I01
sS'PR_DESC'
p218
VAtmospheric measuremnts produced at NILU.
p219
sS'PR_STARTDATE'
p220
g12
(S'\x07\xd9\x01\x01\x00\x00\x00\x00\x00\x00'
p221
tp222
Rp223
sS'PR_ENDDATE'
p224
NsS'PR_ACRONYM'
p225
g212
sS'SYSTIME'
p226
g2
(g19
g20
(lp227
g12
(S'\x07\xde\x05\x01\x00\x00\x00\x00\x00\x00'
p228
tp229
Rp230
aNatp231
Rp232
(dp233
g28
S'[)'
p234
sbsS'PR_NAME'
p235
VNear Realtime Data from Norwegian Institute for Air Research
p236
sS'PR_DATAPOLICY'
p237
VData can not be published without specific agreement from NILU.
p238
sS'PR_COMMENT'
p239
Nstp240
Rp241
sVAMAP
p242
g2
(g3
g4
(dp243
S'PR_HOMEPAGE_URL'
p244
NsS'PS_ID'
p245
I6555
sS'OPEN_ACCESS'
p246
I00
sS'PR_DESC'
p247
NsS'PR_STARTDATE'
p248
g12
(S'\x07\xbc\x01\x01\x00\x00\x00\x00\x00\x00'
p249
tp250
Rp251
sS'PR_ENDDATE'
p252
NsS'PR_ACRONYM'
p253
g242
sS'SYSTIME'
p254
g2
(g19
g20
(lp255
g12
(S'\x07\xde\x05\x01\x00\x00\x00\x00\x00\x00'
p256
tp257
Rp258
aNatp259
Rp260
(dp261
g28
S'[)'
p262
sbsS'PR_NAME'
p263
NsS'PR_DATAPOLICY'
p264
VFor scientific purposes, access to the AMAP data is unlimited but by their use you accept that an offer of co-authorship will be made through personal contact with the data producer or owner.
p265
sS'PR_COMMENT'
p266
Nstp267
Rp268
sVCARIBIC-GEOmon
p269
g2
(g3
g4
(dp270
S'PR_HOMEPAGE_URL'
p271
NsS'PS_ID'
p272
I1195
sS'OPEN_ACCESS'
p273
I00
sS'PR_DESC'
p274
NsS'PR_STARTDATE'
p275
g12
(S'\x07\xda\x01\x19\x0b\x1e \nT\x88'
p276
tp277
Rp278
sS'PR_ENDDATE'
p279
NsS'PR_ACRONYM'
p280
g269
sS'SYSTIME'
p281
g2
(g19
g20
(lp282
g12
(S'\x07\xde\x05\x01\x00\x00\x00\x00\x00\x00'
p283
tp284
Rp285
aNatp286
Rp287
(dp288
g28
S'[)'
p289
sbsS'PR_NAME'
p290
NsS'PR_DATAPOLICY'
p291
VThese data should preferrably be accessed through http://www.iagos-data.fr/. The data in EBAS were reported due to obligations in a past EU-project, and is likely not anymore the best representation of these resources.
p292
sS'PR_COMMENT'
p293
Nstp294
Rp295
sVGAW-WDCRG_NRT
p296
g2
(g3
g4
(dp297
S'PR_HOMEPAGE_URL'
p298
Vhttp://www.gaw-wdcrg.org
p299
sS'PS_ID'
p300
I1195
sS'OPEN_ACCESS'
p301
I00
sS'PR_DESC'
p302
VThe World Data Centre for Reactive Gases is the data repository and archive for reactive gases of the World Meteorological Organisation's (WMO) Global Atmosphere Watch (GAW) programme.
p303
sS'PR_STARTDATE'
p304
g12
(S'\x07\xe0\x01\x01\x00\x00\x00\x00\x00\x00'
p305
tp306
Rp307
sS'PR_ENDDATE'
p308
NsS'PR_ACRONYM'
p309
g296
sS'SYSTIME'
p310
g2
(g19
g20
(lp311
g12
(S'\x07\xde\x05\x01\x00\x00\x00\x00\x00\x00'
p312
tp313
Rp314
aNatp315
Rp316
(dp317
g28
S'[)'
p318
sbsS'PR_NAME'
p319
VNear Realtime Data for World Data Centre for Reactive Gases
p320
sS'PR_DATAPOLICY'
p321
NsS'PR_COMMENT'
p322
Nstp323
Rp324
sVUnderRevision
p325
g2
(g3
g4
(dp326
S'PR_HOMEPAGE_URL'
p327
NsS'PS_ID'
p328
I8633
sS'OPEN_ACCESS'
p329
I00
sS'PR_DESC'
p330
VData under revision, content is locked and data not available until resubmission
p331
sS'PR_STARTDATE'
p332
g12
(S"\x07\xe3\x02\x0b\x0f'6\x03\xd0\x90"
p333
tp334
Rp335
sS'PR_ENDDATE'
p336
NsS'PR_ACRONYM'
p337
g325
sS'SYSTIME'
p338
g2
(g19
g20
(lp339
g12
(S'\x07\xde\x05\x01\x00\x00\x00\x00\x00\x00'
p340
tp341
Rp342
aNatp343
Rp344
(dp345
g28
S'[)'
p346
sbsS'PR_NAME'
p347
VData under revision
p348
sS'PR_DATAPOLICY'
p349
NsS'PR_COMMENT'
p350
Nstp351
Rp352
sVACTRIS_preliminary
p353
g2
(g3
g4
(dp354
S'PR_HOMEPAGE_URL'
p355
Vhttp://www.actris.eu
p356
sS'PS_ID'
p357
I9744
sS'OPEN_ACCESS'
p358
I00
sS'PR_DESC'
p359
VACTRIS is the European Research Infrastructure for the observation of Aerosol, Clouds, and Trace gases. ACTRIS is composed of observing stations, exploratory platforms, instruments calibration centres, and a data centre.
p360
sS'PR_STARTDATE'
p361
g12
(S'\x07\xdc\x01\x01\x00\x00\x00\x00\x00\x00'
p362
tp363
Rp364
sS'PR_ENDDATE'
p365
NsS'PR_ACRONYM'
p366
g353
sS'SYSTIME'
p367
g2
(g19
g20
(lp368
g12
(S'\x07\xde\x05\x01\x00\x00\x00\x00\x00\x00'
p369
tp370
Rp371
aNatp372
Rp373
(dp374
g28
S'[)'
p375
sbsS'PR_NAME'
p376
VPreliminary data submissions for European Research Infrastructure for the observation of Aerosol, Clouds, and Trace gases
p377
sS'PR_DATAPOLICY'
p378
Vhttp://actris.nilu.no/Content/Documents/DataPolicy.pdf
p379
sS'PR_COMMENT'
p380
Nstp381
Rp382
sVNOAA-GGGRN
p383
g2
(g3
g4
(dp384
S'PR_HOMEPAGE_URL'
p385
Vhttps://esrl.noaa.gov/gmd/ccgg/ggrn.php
p386
sS'PS_ID'
p387
I8633
sS'OPEN_ACCESS'
p388
I00
sS'PR_DESC'
p389
VThe Global Greenhouse Gas Reference Network measures the atmospheric distribution and trends of the three main long-term drivers of climate change, carbon dioxide (CO2), methane (CH4), and nitrous oxide (N2O), as well as carbon monoxide (CO) which is an i
p390
sS'PR_STARTDATE'
p391
g12
(S'\x07\xe5\x01\x01\x00\x00\x00\x00\x00\x00'
p392
tp393
Rp394
sS'PR_ENDDATE'
p395
NsS'PR_ACRONYM'
p396
g383
sS'SYSTIME'
p397
g2
(g19
g20
(lp398
g12
(S'\x07\xde\x05\x01\x00\x00\x00\x00\x00\x00'
p399
tp400
Rp401
aNatp402
Rp403
(dp404
g28
S'[)'
p405
sbsS'PR_NAME'
p406
VNOAA Global Greenhouse Gas Reference Network
p407
sS'PR_DATAPOLICY'
p408
NsS'PR_COMMENT'
p409
Nstp410
Rp411
sVACTRIS
p412
g2
(g3
g4
(dp413
S'PR_HOMEPAGE_URL'
p414
Vhttp://www.actris.eu
p415
sS'PS_ID'
p416
I9744
sS'OPEN_ACCESS'
p417
I01
sS'PR_DESC'
p418
VACTRIS is the European Research Infrastructure for the observation of Aerosol, Clouds, and Trace gases. ACTRIS is composed of observing stations, exploratory platforms, instruments calibration centres, and a data centre.
p419
sS'PR_STARTDATE'
p420
g12
(S'\x07\xdc\x01\x01\x00\x00\x00\x00\x00\x00'
p421
tp422
Rp423
sS'PR_ENDDATE'
p424
NsS'PR_ACRONYM'
p425
g412
sS'SYSTIME'
p426
g2
(g19
g20
(lp427
g12
(S'\x07\xde\x05\x01\x00\x00\x00\x00\x00\x00'
p428
tp429
Rp430
aNatp431
Rp432
(dp433
g28
S'[)'
p434
sbsS'PR_NAME'
p435
VEuropean Research Infrastructure for the observation of Aerosol, Clouds, and Trace gases
p436
sS'PR_DATAPOLICY'
p437
Vhttp://actris.nilu.no/Content/Documents/DataPolicy.pdf
p438
sS'PR_COMMENT'
p439
Nstp440
Rp441
sVEUSAAR
p442
g2
(g3
g4
(dp443
S'PR_HOMEPAGE_URL'
p444
Vhttp://www.eusaar.net
p445
sS'PS_ID'
p446
I13767
sS'OPEN_ACCESS'
p447
I01
sS'PR_DESC'
p448
VIntegration of measurements of atmospheric aerosol properties performed in a distributed network of 20 high quality European ground-based stations in support of policy issues on air quality, long-range transport of pollutants and climate change.
p449
sS'PR_STARTDATE'
p450
g12
(S'\x07\xd7\x05\x15\x08"\x00\x00\x00\x00'
p451
tp452
Rp453
sS'PR_ENDDATE'
p454
NsS'PR_ACRONYM'
p455
g442
sS'SYSTIME'
p456
g2
(g19
g20
(lp457
g12
(S'\x07\xde\x05\x01\x00\x00\x00\x00\x00\x00'
p458
tp459
Rp460
aNatp461
Rp462
(dp463
g28
S'[)'
p464
sbsS'PR_NAME'
p465
VEuropean Supersites for Atmospheric Aerosol Research
p466
sS'PR_DATAPOLICY'
p467
Vhttp://www.eusaar.net/files/data/data_protocol.cfm
p468
sS'PR_COMMENT'
p469
Nstp470
Rp471
sVNOAA-ESRL_NRT
p472
g2
(g3
g4
(dp473
S'PR_HOMEPAGE_URL'
p474
NsS'PS_ID'
p475
I8102
sS'OPEN_ACCESS'
p476
I00
sS'PR_DESC'
p477
NsS'PR_STARTDATE'
p478
g12
(S'\x07\xda\x03\x01\x125\x00\x00\x00\x00'
p479
tp480
Rp481
sS'PR_ENDDATE'
p482
NsS'PR_ACRONYM'
p483
g472
sS'SYSTIME'
p484
g2
(g19
g20
(lp485
g12
(S'\x07\xde\x05\x01\x00\x00\x00\x00\x00\x00'
p486
tp487
Rp488
aNatp489
Rp490
(dp491
g28
S'[)'
p492
sbsS'PR_NAME'
p493
NsS'PR_DATAPOLICY'
p494
NsS'PR_COMMENT'
p495
Nstp496
Rp497
sVAutoPollen_restricted_NRT
p498
g2
(g3
g4
(dp499
S'PR_HOMEPAGE_URL'
p500
Vhttps://www.eumetnet.eu/activities/miscellaneous/current-activities-mi/autopollen/
p501
sS'PS_ID'
p502
I8633
sS'OPEN_ACCESS'
p503
I00
sS'PR_DESC'
p504
VNear realtime data for Automatic European pollen monitoring network, integrating developing and planned projects
p505
sS'PR_STARTDATE'
p506
g12
(S'\x07\xe7\x02\x19\x00\x00\x00\x00\x00\x00'
p507
tp508
Rp509
sS'PR_ENDDATE'
p510
NsS'PR_ACRONYM'
p511
g498
sS'SYSTIME'
p512
g2
(g19
g20
(lp513
g12
(S'\x07\xe7\x03\x1c\r\x1f\t\x02\x9b\x19'
p514
tp515
Rp516
aNatp517
Rp518
(dp519
g28
S'[)'
p520
sbsS'PR_NAME'
p521
VNear realtime data for EUMETNET AutoPollen programme. Data with access restrictions
p522
sS'PR_DATAPOLICY'
p523
NsS'PR_COMMENT'
p524
Vtemporary generated a restricted projects (MeteoSwiss has legal difficulties publishing data
p525
stp526
Rp527
sVIndependent
p528
g2
(g3
g4
(dp529
S'PR_HOMEPAGE_URL'
p530
NsS'PS_ID'
p531
I1195
sS'OPEN_ACCESS'
p532
I01
sS'PR_DESC'
p533
VProject established to allow reporting of data which do not have an affiliation to frameworks in EBAS. Users of "Independent" data should investigate the associated metadata and take contact with data originators regarding matters associated to data use
p534
sS'PR_STARTDATE'
p535
NsS'PR_ENDDATE'
p536
NsS'PR_ACRONYM'
p537
g528
sS'SYSTIME'
p538
g2
(g19
g20
(lp539
g12
(S'\x07\xde\x05\x01\x00\x00\x00\x00\x00\x00'
p540
tp541
Rp542
aNatp543
Rp544
(dp545
g28
S'[)'
p546
sbsS'PR_NAME'
p547
VIndependent data made available without official affiliation to another existing EBAS project/framework
p548
sS'PR_DATAPOLICY'
p549
VPublic open access. We encourage contacting data originators if substatial use of individual time series is planned (fair use data policy).
p550
sS'PR_COMMENT'
p551
Nstp552
Rp553
sVGAW-WDCRG
p554
g2
(g3
g4
(dp555
S'PR_HOMEPAGE_URL'
p556
Vhttp://www.gaw-wdcrg.org
p557
sS'PS_ID'
p558
I1195
sS'OPEN_ACCESS'
p559
I01
sS'PR_DESC'
p560
VThe World Data Centre for Reactive Gases is the data repository and archive for reactive gases of the World Meteorological Organisation's (WMO) Global Atmosphere Watch (GAW) programme.
p561
sS'PR_STARTDATE'
p562
g12
(S'\x07\xe0\x01\x01\x00\x00\x00\x00\x00\x00'
p563
tp564
Rp565
sS'PR_ENDDATE'
p566
NsS'PR_ACRONYM'
p567
g554
sS'SYSTIME'
p568
g2
(g19
g20
(lp569
g12
(S'\x07\xde\x05\x01\x00\x00\x00\x00\x00\x00'
p570
tp571
Rp572
aNatp573
Rp574
(dp575
g28
S'[)'
p576
sbsS'PR_NAME'
p577
VWorld Data Centre for Reactive Gases
p578
sS'PR_DATAPOLICY'
p579
NsS'PR_COMMENT'
p580
Nstp581
Rp582
sVAutoPollen
p583
g2
(g3
g4
(dp584
S'PR_HOMEPAGE_URL'
p585
Vhttps://www.eumetnet.eu/activities/miscellaneous/current-activities-mi/autopollen/
p586
sS'PS_ID'
p587
I8633
sS'OPEN_ACCESS'
p588
I01
sS'PR_DESC'
p589
VAutomatic European pollen monitoring network, integrating developing and planned projects
p590
sS'PR_STARTDATE'
p591
g12
(S'\x07\xe5\x01\x01\x00\x00\x00\x00\x00\x00'
p592
tp593
Rp594
sS'PR_ENDDATE'
p595
NsS'PR_ACRONYM'
p596
g583
sS'SYSTIME'
p597
g2
(g19
g20
(lp598
g12
(S'\x07\xde\x05\x01\x00\x00\x00\x00\x00\x00'
p599
tp600
Rp601
aNatp602
Rp603
(dp604
g28
S'[)'
p605
sbsS'PR_NAME'
p606
VEUMETNET AutoPollen programme
p607
sS'PR_DATAPOLICY'
p608
NsS'PR_COMMENT'
p609
Nstp610
Rp611
sVIMPACTS
p612
g2
(g3
g4
(dp613
S'PR_HOMEPAGE_URL'
p614
NsS'PS_ID'
p615
I6555
sS'OPEN_ACCESS'
p616
I01
sS'PR_DESC'
p617
NsS'PR_STARTDATE'
p618
g12
(S'\x07\xd9\x08\x1c\x0b\x03\x00\x00\x00\x00'
p619
tp620
Rp621
sS'PR_ENDDATE'
p622
NsS'PR_ACRONYM'
p623
g612
sS'SYSTIME'
p624
g2
(g19
g20
(lp625
g12
(S'\x07\xde\x05\x01\x00\x00\x00\x00\x00\x00'
p626
tp627
Rp628
aNatp629
Rp630
(dp631
g28
S'[)'
p632
sbsS'PR_NAME'
p633
NsS'PR_DATAPOLICY'
p634
VPublic open access. We encourage contacting data originators if substatial use of individual time series is planned (fair use data policy).
p635
sS'PR_COMMENT'
p636
Nstp637
Rp638
sVOECD
p639
g2
(g3
g4
(dp640
S'PR_HOMEPAGE_URL'
p641
NsS'PS_ID'
p642
I1195
sS'OPEN_ACCESS'
p643
I01
sS'PR_DESC'
p644
NsS'PR_STARTDATE'
p645
g12
(S'\x07\xb2\x01\x01\x00\x00\x00\x00\x00\x00'
p646
tp647
Rp648
sS'PR_ENDDATE'
p649
NsS'PR_ACRONYM'
p650
g639
sS'SYSTIME'
p651
g2
(g19
g20
(lp652
g12
(S'\x07\xde\x05\x01\x00\x00\x00\x00\x00\x00'
p653
tp654
Rp655
aNatp656
Rp657
(dp658
g28
S'[)'
p659
sbsS'PR_NAME'
p660
NsS'PR_DATAPOLICY'
p661
VPublic open access. We encourage contacting data originators if substatial use of individual time series is planned (fair use data policy).
p662
sS'PR_COMMENT'
p663
Nstp664
Rp665
sVGAW-WDCA_NRT
p666
g2
(g3
g4
(dp667
S'PR_HOMEPAGE_URL'
p668
Vhttp://www.gaw-wdca.org
p669
sS'PS_ID'
p670
I8102
sS'OPEN_ACCESS'
p671
I00
sS'PR_DESC'
p672
VThe World Data Centre for Aerosols is the data repository and archive for microphysical, optical, and chemical properties of atmospheric aerosol of the World Meteorological Organisation's (WMO) Global Atmosphere Watch (GAW) programme.
p673
sS'PR_STARTDATE'
p674
g12
(S'\x07\xd9\x0b\x07\x021\x00\x00\x00\x00'
p675
tp676
Rp677
sS'PR_ENDDATE'
p678
NsS'PR_ACRONYM'
p679
g666
sS'SYSTIME'
p680
g2
(g19
g20
(lp681
g12
(S'\x07\xde\x05\x01\x00\x00\x00\x00\x00\x00'
p682
tp683
Rp684
aNatp685
Rp686
(dp687
g28
S'[)'
p688
sbsS'PR_NAME'
p689
VNear Realtime Data for World Data Centre for Aerosols
p690
sS'PR_DATAPOLICY'
p691
NsS'PR_COMMENT'
p692
Nstp693
Rp694
sVPollenScience_NRT
p695
g2
(g3
g4
(dp696
S'PR_HOMEPAGE_URL'
p697
Vhttps://pollenscience.eu
p698
sS'PS_ID'
p699
I8633
sS'OPEN_ACCESS'
p700
I01
sS'PR_DESC'
p701
VThe aim of Pollen Science is to collect and graphically display the data of different pollen measurement networks and stations.
p702
sS'PR_STARTDATE'
p703
g12
(S'\x07\xe7\t\x0f\x00\x00\x00\x00\x00\x00'
p704
tp705
Rp706
sS'PR_ENDDATE'
p707
NsS'PR_ACRONYM'
p708
g695
sS'SYSTIME'
p709
g2
(g19
g20
(lp710
g12
(S'\x07\xe7\n\x19\x0b\x003\x01|d'
p711
tp712
Rp713
aNatp714
Rp715
(dp716
g28
S'[)'
p717
sbsS'PR_NAME'
p718
VPollen Science NRT
p719
sS'PR_DATAPOLICY'
p720
NsS'PR_COMMENT'
p721
Nstp722
Rp723
sVCREATE
p724
g2
(g3
g4
(dp725
S'PR_HOMEPAGE_URL'
p726
NsS'PS_ID'
p727
I1195
sS'OPEN_ACCESS'
p728
I01
sS'PR_DESC'
p729
NsS'PR_STARTDATE'
p730
g12
(S'\x07\xbc\x01\x01\x00\x00\x00\x00\x00\x00'
p731
tp732
Rp733
sS'PR_ENDDATE'
p734
NsS'PR_ACRONYM'
p735
g724
sS'SYSTIME'
p736
g2
(g19
g20
(lp737
g12
(S'\x07\xde\x05\x01\x00\x00\x00\x00\x00\x00'
p738
tp739
Rp740
aNatp741
Rp742
(dp743
g28
S'[)'
p744
sbsS'PR_NAME'
p745
NsS'PR_DATAPOLICY'
p746
VFair use data policy (see also EMEP and WMO-GAW)
p747
sS'PR_COMMENT'
p748
Nstp749
Rp750
sVCAMP
p751
g2
(g3
g4
(dp752
S'PR_HOMEPAGE_URL'
p753
Vhttp://www.ospar.org
p754
sS'PS_ID'
p755
I6555
sS'OPEN_ACCESS'
p756
I01
sS'PR_DESC'
p757
VThe OSPARCOM Comprehensive Atmospheric Monitoring Programme goal is the assessment of the atmospheric input of selected contaminants to the OSPAR maritime area and regions.
p758
sS'PR_STARTDATE'
p759
g12
(S'\x07\xbc\x01\x01\x00\x00\x00\x00\x00\x00'
p760
tp761
Rp762
sS'PR_ENDDATE'
p763
NsS'PR_ACRONYM'
p764
g751
sS'SYSTIME'
p765
g2
(g19
g20
(lp766
g12
(S'\x07\xde\x05\x01\x00\x00\x00\x00\x00\x00'
p767
tp768
Rp769
aNatp770
Rp771
(dp772
g28
S'[)'
p773
sbsS'PR_NAME'
p774
VOSPARCOM - Comprehensive Atmospheric Monitoring Programme
p775
sS'PR_DATAPOLICY'
p776
VPublic open access. We encourage contacting data originators if substatial use of individual time series is planned (fair use data policy).
p777
sS'PR_COMMENT'
p778
Nstp779
Rp780
sVMAMCS
p781
g2
(g3
g4
(dp782
S'PR_HOMEPAGE_URL'
p783
NsS'PS_ID'
p784
I6555
sS'OPEN_ACCESS'
p785
I00
sS'PR_DESC'
p786
NsS'PR_STARTDATE'
p787
g12
(S'\x07\xce\x01\x01\x00\x00\x00\x00\x00\x00'
p788
tp789
Rp790
sS'PR_ENDDATE'
p791
NsS'PR_ACRONYM'
p792
g781
sS'SYSTIME'
p793
g2
(g19
g20
(lp794
g12
(S'\x07\xde\x05\x01\x00\x00\x00\x00\x00\x00'
p795
tp796
Rp797
aNatp798
Rp799
(dp800
g28
S'[)'
p801
sbsS'PR_NAME'
p802
NsS'PR_DATAPOLICY'
p803
VFor scientific purposes. We encourage contacting data originators if substatial use of individual time series is planned (fair use data policy).
p804
sS'PR_COMMENT'
p805
Nstp806
Rp807
sVEMEP
p808
g2
(g3
g4
(dp809
S'PR_HOMEPAGE_URL'
p810
Vhttp://www.emep.int
p811
sS'PS_ID'
p812
I1195
sS'OPEN_ACCESS'
p813
I01
sS'PR_DESC'
p814
VThe European Monitoring and Evaluation Programme (EMEP) is a scientifically based and policy driven programme under the Convention on Long-range Transboundary Air Pollution (CLRTAP) for int'l co-operation to solve transboundary air pollution problems.
p815
sS'PR_STARTDATE'
p816
g12
(S'\x07\xb9\x03\x02\x00\x00\x00\x00\x00\x00'
p817
tp818
Rp819
sS'PR_ENDDATE'
p820
NsS'PR_ACRONYM'
p821
g808
sS'SYSTIME'
p822
g2
(g19
g20
(lp823
g12
(S'\x07\xde\x05\x01\x00\x00\x00\x00\x00\x00'
p824
tp825
Rp826
aNatp827
Rp828
(dp829
g28
S'[)'
p830
sbsS'PR_NAME'
p831
VEuropean Monitoring and Evaluation Programme
p832
sS'PR_DATAPOLICY'
p833
VPublic open access. We encourage contacting data originators if substatial use of individual time series is planned (fair use data policy).
p834
sS'PR_COMMENT'
p835
Nstp836
Rp837
sVCOLOSSAL
p838
g2
(g3
g4
(dp839
S'PR_HOMEPAGE_URL'
p840
Vhttps://www.costcolossal.eu
p841
sS'PS_ID'
p842
I6555
sS'OPEN_ACCESS'
p843
I00
sS'PR_DESC'
p844
VAssessment of fine atmospheric aerosols (PM2.5), ther spatial variability (across Europe), their temporal variability (1h or better), the seasonality, the phenomenology (chemical composition) and the sources.
p845
sS'PR_STARTDATE'
p846
g12
(S'\x07\xe1\x01\x01\x00\x00\x00\x00\x00\x00'
p847
tp848
Rp849
sS'PR_ENDDATE'
p850
NsS'PR_ACRONYM'
p851
g838
sS'SYSTIME'
p852
g2
(g19
g20
(lp853
g12
(S'\x07\xde\x05\x01\x00\x00\x00\x00\x00\x00'
p854
tp855
Rp856
aNatp857
Rp858
(dp859
g28
S'[)'
p860
sbsS'PR_NAME'
p861
VChemical On-Line cOmpoSition and Source Apportionment of fine aerosoL
p862
sS'PR_DATAPOLICY'
p863
NsS'PR_COMMENT'
p864
Nstp865
Rp866
sVNBPN
p867
g2
(g3
g4
(dp868
S'PR_HOMEPAGE_URL'
p869
NsS'PS_ID'
p870
I8633
sS'OPEN_ACCESS'
p871
I00
sS'PR_DESC'
p872
NsS'PR_STARTDATE'
p873
g12
(S'\x07\xd7\x0c\x12\x0c&\x00\x00\x00\x00'
p874
tp875
Rp876
sS'PR_ENDDATE'
p877
NsS'PR_ACRONYM'
p878
g867
sS'SYSTIME'
p879
g2
(g19
g20
(lp880
g12
(S'\x07\xde\x05\x01\x00\x00\x00\x00\x00\x00'
p881
tp882
Rp883
aNatp884
Rp885
(dp886
g28
S'[)'
p887
sbsS'PR_NAME'
p888
NsS'PR_DATAPOLICY'
p889
Vhttp://iek8wikis.iek.fz-juelich.de/HTAPWiki/NiluDatabase_HTAPDataAccess?action=AttachFile&do=get&target=DataPolicy_HTAP_V02_2009-02-26.pdf
p890
sS'PR_COMMENT'
p891
Nstp892
Rp893
sVINDAAF
p894
g2
(g3
g4
(dp895
S'PR_HOMEPAGE_URL'
p896
Vhttps://indaaf.obs-mip.fr/
p897
sS'PS_ID'
p898
NsS'OPEN_ACCESS'
p899
I00
sS'PR_DESC'
p900
VAtmospheric composition and deposition long-term monitoring in Africa
p901
sS'PR_STARTDATE'
p902
g12
(S'\x07\xda\x01\x01\x00\x00\x00\x00\x00\x00'
p903
tp904
Rp905
sS'PR_ENDDATE'
p906
NsS'PR_ACRONYM'
p907
g894
sS'SYSTIME'
p908
g2
(g19
g20
(lp909
g12
(S'\x07\xe7\t\x16\x06\x07\x01\x00f\xe0'
p910
tp911
Rp912
aNatp913
Rp914
(dp915
g28
S'[)'
p916
sbsS'PR_NAME'
p917
VInternational Network to study Deposition and Atmospheric chemistry in AFrica
p918
sS'PR_DATAPOLICY'
p919
NsS'PR_COMMENT'
p920
Nstp921
Rp922
sVROSHYDROMET
p923
g2
(g3
g4
(dp924
S'PR_HOMEPAGE_URL'
p925
NsS'PS_ID'
p926
I1195
sS'OPEN_ACCESS'
p927
I00
sS'PR_DESC'
p928
NsS'PR_STARTDATE'
p929
g12
(S'\x07\xd9\x08\x1b\n,\x00\x00\x00\x00'
p930
tp931
Rp932
sS'PR_ENDDATE'
p933
NsS'PR_ACRONYM'
p934
g923
sS'SYSTIME'
p935
g2
(g19
g20
(lp936
g12
(S'\x07\xde\x05\x01\x00\x00\x00\x00\x00\x00'
p937
tp938
Rp939
aNatp940
Rp941
(dp942
g28
S'[)'
p943
sbsS'PR_NAME'
p944
NsS'PR_DATAPOLICY'
p945
VData policy will be presented upon request
p946
sS'PR_COMMENT'
p947
Nstp948
Rp949
sVATMO-ACCESS
p950
g2
(g3
g4
(dp951
S'PR_HOMEPAGE_URL'
p952
Vhttps://www.atmo-access.eu
p953
sS'PS_ID'
p954
I9744
sS'OPEN_ACCESS'
p955
I01
sS'PR_DESC'
p956
VATMO-ACCESS is the organized response of distributed atmospheric research facilities for developing a pilot for a new model of Integrating Activities. The project will deliver a series of recommendations for establishing a comprehensive and sustainable framework for access to distributed atmospheric Research Infrastructures (RI), ensuring integrated access to and optimised use of the services they provide.
p957
sS'PR_STARTDATE'
p958
g12
(S'\x07\xe7\x01\x01\x00\x00\x00\x00\x00\x00'
p959
tp960
Rp961
sS'PR_ENDDATE'
p962
NsS'PR_ACRONYM'
p963
g950
sS'SYSTIME'
p964
g2
(g19
g20
(lp965
g12
(S'\x07\xe7\x06\t\x0c\x083\x00\xef\x16'
p966
tp967
Rp968
aNatp969
Rp970
(dp971
g28
S'[)'
p972
sbsS'PR_NAME'
p973
VSustainable Access to Atmospheric Research Facilities
p974
sS'PR_DATAPOLICY'
p975
Vhttps://www7.obs-mip.fr/wp-content-aeris/uploads/sites/82/2023/04/ATMO_ACCESS_WP1_MS1_2.pdf
p976
sS'PR_COMMENT'
p977
VData curated through the Homeless Data Portal of the ATMO-ACCESS project
p978
stp979
Rp980
sVGAW-WDCGG-node
p981
g2
(g3
g4
(dp982
S'PR_HOMEPAGE_URL'
p983
NsS'PS_ID'
p984
I9185
sS'OPEN_ACCESS'
p985
I01
sS'PR_DESC'
p986
NsS'PR_STARTDATE'
p987
g12
(S'\x07\xdc\t\x12\x10\x0e\x18\x02\xe60'
p988
tp989
Rp990
sS'PR_ENDDATE'
p991
NsS'PR_ACRONYM'
p992
g981
sS'SYSTIME'
p993
g2
(g19
g20
(lp994
g12
(S'\x07\xde\x05\x01\x00\x00\x00\x00\x00\x00'
p995
tp996
Rp997
aNatp998
Rp999
(dp1000
g28
S'[)'
p1001
sbsS'PR_NAME'
p1002
VGAW-WDCGG-node
p1003
sS'PR_DATAPOLICY'
p1004
NsS'PR_COMMENT'
p1005
Nstp1006
Rp1007
sVCAPMoN
p1008
g2
(g3
g4
(dp1009
S'PR_HOMEPAGE_URL'
p1010
NsS'PS_ID'
p1011
I8633
sS'OPEN_ACCESS'
p1012
I00
sS'PR_DESC'
p1013
NsS'PR_STARTDATE'
p1014
g12
(S'\x07\xd7\x0c\x0e\r\x07\x00\x00\x00\x00'
p1015
tp1016
Rp1017
sS'PR_ENDDATE'
p1018
NsS'PR_ACRONYM'
p1019
g1008
sS'SYSTIME'
p1020
g2
(g19
g20
(lp1021
g12
(S'\x07\xde\x05\x01\x00\x00\x00\x00\x00\x00'
p1022
tp1023
Rp1024
aNatp1025
Rp1026
(dp1027
g28
S'[)'
p1028
sbsS'PR_NAME'
p1029
NsS'PR_DATAPOLICY'
p1030
Vhttp://iek8wikis.iek.fz-juelich.de/HTAPWiki/NiluDatabase_HTAPDataAccess?action=AttachFile&do=get&target=DataPolicy_HTAP_V02_2009-02-26.pdf
p1031
sS'PR_COMMENT'
p1032
Nstp1033
Rp1034
sVNILU_internal
p1035
g2
(g3
g4
(dp1036
S'PR_HOMEPAGE_URL'
p1037
NsS'PS_ID'
p1038
I6555
sS'OPEN_ACCESS'
p1039
I00
sS'PR_DESC'
p1040
VNILU internal data, password protected, not visible to outside (hidden and test datasets)
p1041
sS'PR_STARTDATE'
p1042
g12
(S'\x07\xd8\x01\x01\x00\x00\x00\x00\x00\x00'
p1043
tp1044
Rp1045
sS'PR_ENDDATE'
p1046
NsS'PR_ACRONYM'
p1047
g1035
sS'SYSTIME'
p1048
g2
(g19
g20
(lp1049
g12
(S'\x07\xde\x05\x01\x00\x00\x00\x00\x00\x00'
p1050
tp1051
Rp1052
aNatp1053
Rp1054
(dp1055
g28
S'[)'
p1056
sbsS'PR_NAME'
p1057
VNILU internal
p1058
sS'PR_DATAPOLICY'
p1059
VFor scientific purposes. Data policy will be given if data are shared
p1060
sS'PR_COMMENT'
p1061
Nstp1062
Rp1063
sVPARIS_NRT
p1064
g2
(g3
g4
(dp1065
S'PR_HOMEPAGE_URL'
p1066
Vhttps://horizoneurope-paris.eu
p1067
sS'PS_ID'
p1068
I6555
sS'OPEN_ACCESS'
p1069
I01
sS'PR_DESC'
p1070
VPARIS \u2013 Process Attribution of Regional Emissions \u2013 is a 4-year Horizon Europe research project (2023-2026). We aim to significantly increase our knowledge about the emissions of climate forcers from eight European countries. PARIS focuses on the interface between bottom-up and top-down approaches and aims to strengthen the collaboration between scientists and national inventory teams for the evaluation and development of national inventories.
p1071
sS'PR_STARTDATE'
p1072
g12
(S'\x07\xe7\x01\x01\x00\x00\x00\x00\x00\x00'
p1073
tp1074
Rp1075
sS'PR_ENDDATE'
p1076
g12
(S'\x07\xeb\x01\x01\x00\x00\x00\x00\x00\x00'
p1077
tp1078
Rp1079
sS'PR_ACRONYM'
p1080
g1064
sS'SYSTIME'
p1081
g2
(g19
g20
(lp1082
g12
(S'\x07\xe8\n\x0f\x0f"\t\x0e\xaa\xce'
p1083
tp1084
Rp1085
aNatp1086
Rp1087
(dp1088
g28
S'[)'
p1089
sbsS'PR_NAME'
p1090
VProcess Attribution of Regional Emissions
p1091
sS'PR_DATAPOLICY'
p1092
NsS'PR_COMMENT'
p1093
VIn-situ aerosol measurements for PARIS should be stored in EBAS while GHG measurements are stored in ICOS Carbon Portal
p1094
stp1095
Rp1096
sVNILU
p1097
g2
(g3
g4
(dp1098
S'PR_HOMEPAGE_URL'
p1099
Vhttp://www.nilu.no
p1100
sS'PS_ID'
p1101
I1195
sS'OPEN_ACCESS'
p1102
I01
sS'PR_DESC'
p1103
VAtmospheric measuremnts produced at NILU.
p1104
sS'PR_STARTDATE'
p1105
g12
(S'\x07\xb2\x01\x01\x00\x00\x00\x00\x00\x00'
p1106
tp1107
Rp1108
sS'PR_ENDDATE'
p1109
NsS'PR_ACRONYM'
p1110
g1097
sS'SYSTIME'
p1111
g2
(g19
g20
(lp1112
g12
(S'\x07\xde\x05\x01\x00\x00\x00\x00\x00\x00'
p1113
tp1114
Rp1115
aNatp1116
Rp1117
(dp1118
g28
S'[)'
p1119
sbsS'PR_NAME'
p1120
VNorwegian Institute for Air Research
p1121
sS'PR_DATAPOLICY'
p1122
VPublic open access. We encourage contacting data originators if substatial use of individual time series is planned (fair use data policy).
p1123
sS'PR_COMMENT'
p1124
Nstp1125
Rp1126
sVGEOmon
p1127
g2
(g3
g4
(dp1128
S'PR_HOMEPAGE_URL'
p1129
NsS'PS_ID'
p1130
I1195
sS'OPEN_ACCESS'
p1131
I00
sS'PR_DESC'
p1132
NsS'PR_STARTDATE'
p1133
g12
(S'\x07\xd8\x01\x01\x00\x00\x00\x00\x00\x00'
p1134
tp1135
Rp1136
sS'PR_ENDDATE'
p1137
NsS'PR_ACRONYM'
p1138
g1127
sS'SYSTIME'
p1139
g2
(g19
g20
(lp1140
g12
(S'\x07\xde\x05\x01\x00\x00\x00\x00\x00\x00'
p1141
tp1142
Rp1143
aNatp1144
Rp1145
(dp1146
g28
S'[)'
p1147
sbsS'PR_NAME'
p1148
NsS'PR_DATAPOLICY'
p1149
VData policy will be presented upon request
p1150
sS'PR_COMMENT'
p1151
Nstp1152
Rp1153
sVNILU_NRT_internal
p1154
g2
(g3
g4
(dp1155
S'PR_HOMEPAGE_URL'
p1156
NsS'PS_ID'
p1157
I6555
sS'OPEN_ACCESS'
p1158
I00
sS'PR_DESC'
p1159
VNILU internal NRT data, password protected, not visible to outside (mostly for setup phase and tests)
p1160
sS'PR_STARTDATE'
p1161
g12
(S'\x07\xdd\x01\x01\x00\x00\x00\x00\x00\x00'
p1162
tp1163
Rp1164
sS'PR_ENDDATE'
p1165
NsS'PR_ACRONYM'
p1166
g1154
sS'SYSTIME'
p1167
g2
(g19
g20
(lp1168
g12
(S'\x07\xde\x05\x01\x00\x00\x00\x00\x00\x00'
p1169
tp1170
Rp1171
aNatp1172
Rp1173
(dp1174
g28
S'[)'
p1175
sbsS'PR_NAME'
p1176
VNILU NRT internal
p1177
sS'PR_DATAPOLICY'
p1178
NsS'PR_COMMENT'
p1179
Nstp1180
Rp1181
sVInGOS
p1182
g2
(g3
g4
(dp1183
S'PR_HOMEPAGE_URL'
p1184
NsS'PS_ID'
p1185
I9185
sS'OPEN_ACCESS'
p1186
I01
sS'PR_DESC'
p1187
NsS'PR_STARTDATE'
p1188
g12
(S'\x07\xdd\x01\x1d\t;\x00\x00\x00\x00'
p1189
tp1190
Rp1191
sS'PR_ENDDATE'
p1192
NsS'PR_ACRONYM'
p1193
g1182
sS'SYSTIME'
p1194
g2
(g19
g20
(lp1195
g12
(S'\x07\xde\x05\x01\x00\x00\x00\x00\x00\x00'
p1196
tp1197
Rp1198
aNatp1199
Rp1200
(dp1201
g28
S'[)'
p1202
sbsS'PR_NAME'
p1203
NsS'PR_DATAPOLICY'
p1204
VPublic open access. We encourage contacting data originators if substatial use of individual time series is planned (fair use data policy).
p1205
sS'PR_COMMENT'
p1206
Nstp1207
Rp1208
sVPARIS
p1209
g2
(g3
g4
(dp1210
S'PR_HOMEPAGE_URL'
p1211
Vhttps://horizoneurope-paris.eu
p1212
sS'PS_ID'
p1213
I6555
sS'OPEN_ACCESS'
p1214
I01
sS'PR_DESC'
p1215
VPARIS \u2013 Process Attribution of Regional Emissions \u2013 is a 4-year Horizon Europe research project (2023-2026). We aim to significantly increase our knowledge about the emissions of climate forcers from eight European countries. PARIS focuses on the interface between bottom-up and top-down approaches and aims to strengthen the collaboration between scientists and national inventory teams for the evaluation and development of national inventories.
p1216
sS'PR_STARTDATE'
p1217
g12
(S'\x07\xe7\x01\x01\x00\x00\x00\x00\x00\x00'
p1218
tp1219
Rp1220
sS'PR_ENDDATE'
p1221
g12
(S'\x07\xeb\x01\x01\x00\x00\x00\x00\x00\x00'
p1222
tp1223
Rp1224
sS'PR_ACRONYM'
p1225
g1209
sS'SYSTIME'
p1226
g2
(g19
g20
(lp1227
g12
(S'\x07\xe8\x08\x1c\x0b\x07:\r0\xbe'
p1228
tp1229
Rp1230
aNatp1231
Rp1232
(dp1233
g28
S'[)'
p1234
sbsS'PR_NAME'
p1235
VProcess Attribution of Regional Emissions
p1236
sS'PR_DATAPOLICY'
p1237
NsS'PR_COMMENT'
p1238
VIn-situ aerosol measurements for PARIS should be stored in EBAS, while GHG measurements are stored in ICOS Carbon Portal
p1239
stp1240
Rp1241
sVEUCAARI
p1242
g2
(g3
g4
(dp1243
S'PR_HOMEPAGE_URL'
p1244
NsS'PS_ID'
p1245
I9185
sS'OPEN_ACCESS'
p1246
I00
sS'PR_DESC'
p1247
NsS'PR_STARTDATE'
p1248
g12
(S'\x07\xd9\x06\x17\x13\x08\x00\x00\x00\x00'
p1249
tp1250
Rp1251
sS'PR_ENDDATE'
p1252
NsS'PR_ACRONYM'
p1253
g1242
sS'SYSTIME'
p1254
g2
(g19
g20
(lp1255
g12
(S'\x07\xde\x05\x01\x00\x00\x00\x00\x00\x00'
p1256
tp1257
Rp1258
aNatp1259
Rp1260
(dp1261
g28
S'[)'
p1262
sbsS'PR_NAME'
p1263
NsS'PR_DATAPOLICY'
p1264
Vhttp://www.eusaar.net/files/data/data_protocol.cfm
p1265
sS'PR_COMMENT'
p1266
Nstp1267
Rp1268
sVReGAME
p1269
g2
(g3
g4
(dp1270
S'PR_HOMEPAGE_URL'
p1271
Vhttps://www.nilu.com/2021/12/regame-exploring-methane-sources/
p1272
sS'PS_ID'
p1273
I16869
sS'OPEN_ACCESS'
p1274
I01
sS'PR_DESC'
p1275
VIn ReGAME, Reliable Global Methane Emissions estimates in a changing world, we integrate new measurement technologies into models to determine why atmospheric methane (CH4) is increasing, and whether climate-sensitive Arctic CH4 reservoirs will release significant CH4 to the atmosphere
p1276
sS'PR_STARTDATE'
p1277
g12
(S'\x07\xe4\x0c\x01\x00\x00\x00\x00\x00\x00'
p1278
tp1279
Rp1280
sS'PR_ENDDATE'
p1281
NsS'PR_ACRONYM'
p1282
g1269
sS'SYSTIME'
p1283
g2
(g19
g20
(lp1284
g12
(S'\x07\xe7\x06\x15\x0b*%\x06\x00X'
p1285
tp1286
Rp1287
aNatp1288
Rp1289
(dp1290
g28
S'[)'
p1291
sbsS'PR_NAME'
p1292
VREliable Global Methane Emissions estimates in a changing world
p1293
sS'PR_DATAPOLICY'
p1294
NsS'PR_COMMENT'
p1295
Nstp1296
Rp1297
sVsel_HTAP
p1298
g2
(g3
g4
(dp1299
S'PR_HOMEPAGE_URL'
p1300
NsS'PS_ID'
p1301
I8633
sS'OPEN_ACCESS'
p1302
I00
sS'PR_DESC'
p1303
VHTAP Observation DB - selection of Datasets from other (primary) Projects
p1304
sS'PR_STARTDATE'
p1305
g12
(S'\x07\xd0\x01\x01\x00\x00\x00\x00\x00\x00'
p1306
tp1307
Rp1308
sS'PR_ENDDATE'
p1309
NsS'PR_ACRONYM'
p1310
g1298
sS'SYSTIME'
p1311
g2
(g19
g20
(lp1312
g12
(S'\x07\xde\x05\x01\x00\x00\x00\x00\x00\x00'
p1313
tp1314
Rp1315
aNatp1316
Rp1317
(dp1318
g28
S'[)'
p1319
sbsS'PR_NAME'
p1320
VHTAP Observation DB
p1321
sS'PR_DATAPOLICY'
p1322
Vhttp://iek8wikis.iek.fz-juelich.de/HTAPWiki/NiluDatabase_HTAPDataAccess?action=AttachFile&do=get&target=DataPolicy_HTAP_V02_2009-02-26.pdf
p1323
sS'PR_COMMENT'
p1324
Nstp1325
Rp1326
sVSYLVA_NRT
p1327
g2
(g3
g4
(dp1328
S'PR_HOMEPAGE_URL'
p1329
Vhttps://sylva.bioaerosol.eu
p1330
sS'PS_ID'
p1331
I8633
sS'OPEN_ACCESS'
p1332
I01
sS'PR_DESC'
p1333
VThe overall goal of SYLVA is to achieve a radical improvement and fill gaps in temporal resolution, timeliness, coverage, and availability of information about aeroalaeroallergens and other bioaerosols
p1334
sS'PR_STARTDATE'
p1335
g12
(S'\x07\xe7\t\x0f\x00\x00\x00\x00\x00\x00'
p1336
tp1337
Rp1338
sS'PR_ENDDATE'
p1339
NsS'PR_ACRONYM'
p1340
g1327
sS'SYSTIME'
p1341
g2
(g19
g20
(lp1342
g12
(S'\x07\xe7\t\x13\r\x031\tR\xb3'
p1343
tp1344
Rp1345
aNatp1346
Rp1347
(dp1348
g28
S'[)'
p1349
sbsS'PR_NAME'
p1350
VNear realtime data for SYLVA
p1351
sS'PR_DATAPOLICY'
p1352
NsS'PR_COMMENT'
p1353
Nstp1354
Rp1355
sVSIOS_InfraNOR
p1356
g2
(g3
g4
(dp1357
S'PR_HOMEPAGE_URL'
p1358
Vhttps://sios-svalbard.org/
p1359
sS'PS_ID'
p1360
I8102
sS'OPEN_ACCESS'
p1361
I00
sS'PR_DESC'
p1362
VSIOS_InfraNOR covers the Norwegian contribution to the Svalbard Integrated Observing System (SIOS)
p1363
sS'PR_STARTDATE'
p1364
g12
(S'\x07\xe5\x02\t\x00\x00\x00\x00\x00\x00'
p1365
tp1366
Rp1367
sS'PR_ENDDATE'
p1368
NsS'PR_ACRONYM'
p1369
g1356
sS'SYSTIME'
p1370
g2
(g19
g20
(lp1371
g12
(S'\x07\xde\x05\x01\x00\x00\x00\x00\x00\x00'
p1372
tp1373
Rp1374
aNatp1375
Rp1376
(dp1377
g28
S'[)'
p1378
sbsS'PR_NAME'
p1379
VNorwegian contribution to the Svalbard Integrated Observing System
p1380
sS'PR_DATAPOLICY'
p1381
VPublic open access. We encourage contacting data originators if substatial use of individual time series is planned (fair use data policy).
p1382
sS'PR_COMMENT'
p1383
Nstp1384
Rp1385
sVGAW-WDCA
p1386
g2
(g3
g4
(dp1387
S'PR_HOMEPAGE_URL'
p1388
Vhttp://www.gaw-wdca.org
p1389
sS'PS_ID'
p1390
I8102
sS'OPEN_ACCESS'
p1391
I01
sS'PR_DESC'
p1392
VThe World Data Centre for Aerosols is the data repository and archive for microphysical, optical, and chemical properties of atmospheric aerosol of the World Meteorological Organisation's (WMO) Global Atmosphere Watch (GAW) programme.
p1393
sS'PR_STARTDATE'
p1394
g12
(S"\x07\xd8\n\t\r'\n\x03\xf7\xa0"
p1395
tp1396
Rp1397
sS'PR_ENDDATE'
p1398
NsS'PR_ACRONYM'
p1399
g1386
sS'SYSTIME'
p1400
g2
(g19
g20
(lp1401
g12
(S'\x07\xde\x05\x01\x00\x00\x00\x00\x00\x00'
p1402
tp1403
Rp1404
aNatp1405
Rp1406
(dp1407
g28
S'[)'
p1408
sbsS'PR_NAME'
p1409
VWorld Data Centre for Aerosols
p1410
sS'PR_DATAPOLICY'
p1411
NsS'PR_COMMENT'
p1412
Nstp1413
Rp1414
sVePIN
p1415
g2
(g3
g4
(dp1416
S'PR_HOMEPAGE_URL'
p1417
Vhttps://epin.lgl.bayern.de
p1418
sS'PS_ID'
p1419
I8633
sS'OPEN_ACCESS'
p1420
I00
sS'PR_DESC'
p1421
VElektronisches Polleninformationsnetzwerk Bayern (Electronic Pollen Information Network) monitors pollen concentarion at 8 sites.
p1422
sS'PR_STARTDATE'
p1423
g12
(S'\x07\xe8\x01\x01\x00\x00\x00\x00\x00\x00'
p1424
tp1425
Rp1426
sS'PR_ENDDATE'
p1427
NsS'PR_ACRONYM'
p1428
g1415
sS'SYSTIME'
p1429
g2
(g19
g20
(lp1430
g12
(S'\x07\xe8\t\x0c\x08\r,\x08\x97F'
p1431
tp1432
Rp1433
aNatp1434
Rp1435
(dp1436
g28
S'[)'
p1437
sbsS'PR_NAME'
p1438
VElectronic Pollen Information Network
p1439
sS'PR_DATAPOLICY'
p1440
NsS'PR_COMMENT'
p1441
Nstp1442
Rp1443
sVEMEP_preliminary
p1444
g2
(g3
g4
(dp1445
S'PR_HOMEPAGE_URL'
p1446
Vhttp://www.emep.int
p1447
sS'PS_ID'
p1448
I1195
sS'OPEN_ACCESS'
p1449
I00
sS'PR_DESC'
p1450
VThe European Monitoring and Evaluation Programme (EMEP) is a scientifically based and policy driven programme under the Convention on Long-range Transboundary Air Pollution (CLRTAP) for int'l co-operation to solve transboundary air pollution problems.
p1451
sS'PR_STARTDATE'
p1452
g12
(S"\x07\xd8\n\t\r'\n\x03\xf7\xa0"
p1453
tp1454
Rp1455
sS'PR_ENDDATE'
p1456
NsS'PR_ACRONYM'
p1457
g1444
sS'SYSTIME'
p1458
g2
(g19
g20
(lp1459
g12
(S'\x07\xde\x05\x01\x00\x00\x00\x00\x00\x00'
p1460
tp1461
Rp1462
aNatp1463
Rp1464
(dp1465
g28
S'[)'
p1466
sbsS'PR_NAME'
p1467
VPreliminary data submissions for European Monitoring and Evaluation Programme
p1468
sS'PR_DATAPOLICY'
p1469
VThese data seta are considered as preliminary data, but may be given access to for scientific purposes.  Data policy will be presented upon request
p1470
sS'PR_COMMENT'
p1471
Nstp1472
Rp1473
sVNAtChem
p1474
g2
(g3
g4
(dp1475
S'PR_HOMEPAGE_URL'
p1476
NsS'PS_ID'
p1477
I8633
sS'OPEN_ACCESS'
p1478
I00
sS'PR_DESC'
p1479
NsS'PR_STARTDATE'
p1480
g12
(S'\x07\xd0\x01\x01\x00\x00\x00\x00\x00\x00'
p1481
tp1482
Rp1483
sS'PR_ENDDATE'
p1484
NsS'PR_ACRONYM'
p1485
g1474
sS'SYSTIME'
p1486
g2
(g19
g20
(lp1487
g12
(S'\x07\xde\x05\x01\x00\x00\x00\x00\x00\x00'
p1488
tp1489
Rp1490
aNatp1491
Rp1492
(dp1493
g28
S'[)'
p1494
sbsS'PR_NAME'
p1495
NsS'PR_DATAPOLICY'
p1496
Vhttp://iek8wikis.iek.fz-juelich.de/HTAPWiki/NiluDatabase_HTAPDataAccess?action=AttachFile&do=get&target=DataPolicy_HTAP_V02_2009-02-26.pdf
p1497
sS'PR_COMMENT'
p1498
Nstp1499
Rp1500
sVNOAA-ESRL
p1501
g2
(g3
g4
(dp1502
S'PR_HOMEPAGE_URL'
p1503
NsS'PS_ID'
p1504
I8102
sS'OPEN_ACCESS'
p1505
I01
sS'PR_DESC'
p1506
NsS'PR_STARTDATE'
p1507
g12
(S'\x07\xd9\n\x13\x0e3\x00\x00\x00\x00'
p1508
tp1509
Rp1510
sS'PR_ENDDATE'
p1511
NsS'PR_ACRONYM'
p1512
g1501
sS'SYSTIME'
p1513
g2
(g19
g20
(lp1514
g12
(S'\x07\xde\x05\x01\x00\x00\x00\x00\x00\x00'
p1515
tp1516
Rp1517
aNatp1518
Rp1519
(dp1520
g28
S'[)'
p1521
sbsS'PR_NAME'
p1522
NsS'PR_DATAPOLICY'
p1523
NsS'PR_COMMENT'
p1524
Nstp1525
Rp1526
sVHELCOM
p1527
g2
(g3
g4
(dp1528
S'PR_HOMEPAGE_URL'
p1529
Vhttp://www.helcom.fi
p1530
sS'PS_ID'
p1531
I1195
sS'OPEN_ACCESS'
p1532
I01
sS'PR_DESC'
p1533
VAtmospheric monitoring data for the assessment of the atmospheric input of selected contaminants to the Baltic sea area.
p1534
sS'PR_STARTDATE'
p1535
g12
(S'\x07\xc2\x03\x02\x00\x00\x00\x00\x00\x00'
p1536
tp1537
Rp1538
sS'PR_ENDDATE'
p1539
NsS'PR_ACRONYM'
p1540
g1527
sS'SYSTIME'
p1541
g2
(g19
g20
(lp1542
g12
(S'\x07\xde\x05\x01\x00\x00\x00\x00\x00\x00'
p1543
tp1544
Rp1545
aNatp1546
Rp1547
(dp1548
g28
S'[)'
p1549
sbsS'PR_NAME'
p1550
VBaltic Marine Environment Protection Commission - Helsinki Commission
p1551
sS'PR_DATAPOLICY'
p1552
VPublic open access. We encourage contacting data originators if substatial use of individual time series is planned (fair use data policy).
p1553
sS'PR_COMMENT'
p1554
Nstp1555
Rp1556
sVEMEP_NRT
p1557
g2
(g3
g4
(dp1558
S'PR_HOMEPAGE_URL'
p1559
Vhttp://www.emep.int
p1560
sS'PS_ID'
p1561
I1195
sS'OPEN_ACCESS'
p1562
I00
sS'PR_DESC'
p1563
VThe European Monitoring and Evaluation Programme (EMEP) is a scientifically based and policy driven programme under the Convention on Long-range Transboundary Air Pollution (CLRTAP) for int'l co-operation to solve transboundary air pollution problems.
p1564
sS'PR_STARTDATE'
p1565
g12
(S'\x07\xdb\x01\x01\x00\x00\x00\x00\x00\x00'
p1566
tp1567
Rp1568
sS'PR_ENDDATE'
p1569
NsS'PR_ACRONYM'
p1570
g1557
sS'SYSTIME'
p1571
g2
(g19
g20
(lp1572
g12
(S'\x07\xde\x05\x01\x00\x00\x00\x00\x00\x00'
p1573
tp1574
Rp1575
aNatp1576
Rp1577
(dp1578
g28
S'[)'
p1579
sbsS'PR_NAME'
p1580
VNear Realtime Data for European Monitoring and Evaluation Programme
p1581
sS'PR_DATAPOLICY'
p1582
VData policy will be presented upon request
p1583
sS'PR_COMMENT'
p1584
Nstp1585
Rp1586
sVePIN_NRT
p1587
g2
(g3
g4
(dp1588
S'PR_HOMEPAGE_URL'
p1589
Vhttps://epin.lgl.bayern.de
p1590
sS'PS_ID'
p1591
I8633
sS'OPEN_ACCESS'
p1592
I00
sS'PR_DESC'
p1593
VElektronisches Polleninformationsnetzwerk Bayern (Electronic Pollen Information Network) monitors pollen concentarion at 8 sites.
p1594
sS'PR_STARTDATE'
p1595
g12
(S'\x07\xe8\x01\x01\x00\x00\x00\x00\x00\x00'
p1596
tp1597
Rp1598
sS'PR_ENDDATE'
p1599
NsS'PR_ACRONYM'
p1600
g1587
sS'SYSTIME'
p1601
g2
(g19
g20
(lp1602
g12
(S'\x07\xe8\t\x0c\x08\r,\x08\x97F'
p1603
tp1604
Rp1605
aNatp1606
Rp1607
(dp1608
g28
S'[)'
p1609
sbsS'PR_NAME'
p1610
VNear Realtime Data for Electronic Pollen Information Network
p1611
sS'PR_DATAPOLICY'
p1612
NsS'PR_COMMENT'
p1613
Nstp1614
Rp1615
sVEUSAAR_NRT
p1616
g2
(g3
g4
(dp1617
S'PR_HOMEPAGE_URL'
p1618
Vhttp://www.eusaar.net
p1619
sS'PS_ID'
p1620
I13767
sS'OPEN_ACCESS'
p1621
I00
sS'PR_DESC'
p1622
VIntegration of measurements of atmospheric aerosol properties performed in a distributed network of 20 high quality European ground-based stations in support of policy issues on air quality, long-range transport of pollutants and climate change.
p1623
sS'PR_STARTDATE'
p1624
g12
(S'\x07\xd9\x0b\x07\x021\x00\x00\x00\x00'
p1625
tp1626
Rp1627
sS'PR_ENDDATE'
p1628
NsS'PR_ACRONYM'
p1629
g1616
sS'SYSTIME'
p1630
g2
(g19
g20
(lp1631
g12
(S'\x07\xde\x05\x01\x00\x00\x00\x00\x00\x00'
p1632
tp1633
Rp1634
aNatp1635
Rp1636
(dp1637
g28
S'[)'
p1638
sbsS'PR_NAME'
p1639
VNear Realtime Data for European Supersites for Atmospheric Aerosol Research
p1640
sS'PR_DATAPOLICY'
p1641
NsS'PR_COMMENT'
p1642
Nstp1643
Rp1644
sVRI-URBANS
p1645
g2
(g3
g4
(dp1646
S'PR_HOMEPAGE_URL'
p1647
Vhttps://riurbans.eu
p1648
sS'PS_ID'
p1649
I8102
sS'OPEN_ACCESS'
p1650
I01
sS'PR_DESC'
p1651
NsS'PR_STARTDATE'
p1652
g12
(S'\x07\xe6\x01\x01\x00\x00\x00\x00\x00\x00'
p1653
tp1654
Rp1655
sS'PR_ENDDATE'
p1656
NsS'PR_ACRONYM'
p1657
g1645
sS'SYSTIME'
p1658
g2
(g19
g20
(lp1659
g12
(S'\x07\xe6\x0b\x0e\r9\x0b\x0eR\xa2'
p1660
tp1661
Rp1662
aNatp1663
Rp1664
(dp1665
g28
S'[)'
p1666
sbsS'PR_NAME'
p1667
VRI-URBANS
p1668
sS'PR_DATAPOLICY'
p1669
NsS'PR_COMMENT'
p1670
Nstp1671
Rp1672
sVsel_GEOmon2.1
p1673
g2
(g3
g4
(dp1674
S'PR_HOMEPAGE_URL'
p1675
NsS'PS_ID'
p1676
I1195
sS'OPEN_ACCESS'
p1677
I00
sS'PR_DESC'
p1678
NsS'PR_STARTDATE'
p1679
g12
(S'\x07\xd8\x0c\x05\x00\x00\x00\x00\x00\x00'
p1680
tp1681
Rp1682
sS'PR_ENDDATE'
p1683
NsS'PR_ACRONYM'
p1684
g1673
sS'SYSTIME'
p1685
g2
(g19
g20
(lp1686
g12
(S'\x07\xde\x05\x01\x00\x00\x00\x00\x00\x00'
p1687
tp1688
Rp1689
aNatp1690
Rp1691
(dp1692
g28
S'[)'
p1693
sbsS'PR_NAME'
p1694
NsS'PR_DATAPOLICY'
p1695
VData policy will be presented upon request
p1696
sS'PR_COMMENT'
p1697
Nstp1698
Rp1699
sVEANET
p1700
g2
(g3
g4
(dp1701
S'PR_HOMEPAGE_URL'
p1702
NsS'PS_ID'
p1703
I8633
sS'OPEN_ACCESS'
p1704
I00
sS'PR_DESC'
p1705
NsS'PR_STARTDATE'
p1706
g12
(S'\x07\xd8\x01\n\n\x1b\x00\x00\x00\x00'
p1707
tp1708
Rp1709
sS'PR_ENDDATE'
p1710
NsS'PR_ACRONYM'
p1711
g1700
sS'SYSTIME'
p1712
g2
(g19
g20
(lp1713
g12
(S'\x07\xde\x05\x01\x00\x00\x00\x00\x00\x00'
p1714
tp1715
Rp1716
aNatp1717
Rp1718
(dp1719
g28
S'[)'
p1720
sbsS'PR_NAME'
p1721
NsS'PR_DATAPOLICY'
p1722
Vhttp://iek8wikis.iek.fz-juelich.de/HTAPWiki/NiluDatabase_HTAPDataAccess?action=AttachFile&do=get&target=DataPolicy_HTAP_V02_2009-02-26.pdf
p1723
sS'PR_COMMENT'
p1724
Nstp1725
Rp1726
sVUK_DECC
p1727
g2
(g3
g4
(dp1728
S'PR_HOMEPAGE_URL'
p1729
NsS'PS_ID'
p1730
I9185
sS'OPEN_ACCESS'
p1731
I01
sS'PR_DESC'
p1732
NsS'PR_STARTDATE'
p1733
g12
(S'\x07\xdd\x03\x07\x0b\x01\x1f\x00\x00\x00'
p1734
tp1735
Rp1736
sS'PR_ENDDATE'
p1737
NsS'PR_ACRONYM'
p1738
g1727
sS'SYSTIME'
p1739
g2
(g19
g20
(lp1740
g12
(S'\x07\xde\x05\x01\x00\x00\x00\x00\x00\x00'
p1741
tp1742
Rp1743
aNatp1744
Rp1745
(dp1746
g28
S'[)'
p1747
sbsS'PR_NAME'
p1748
NsS'PR_DATAPOLICY'
p1749
VPublic open access. We encourage contacting data originators if substatial use of individual time series is planned (fair use data policy).
p1750
sS'PR_COMMENT'
p1751
Nstp1752
Rp1753
sVMOCA_NRT
p1754
g2
(g3
g4
(dp1755
S'PR_HOMEPAGE_URL'
p1756
Vhttp://moca.nilu.no
p1757
sS'PS_ID'
p1758
I13767
sS'OPEN_ACCESS'
p1759
I00
sS'PR_DESC'
p1760
VNear Realtime Data for Methane emissions from the Arctic OCean to the Atmosphere
p1761
sS'PR_STARTDATE'
p1762
g12
(S'\x07\xde\x01\x01\x00\x00\x00\x00\x00\x00'
p1763
tp1764
Rp1765
sS'PR_ENDDATE'
p1766
NsS'PR_ACRONYM'
p1767
g1754
sS'SYSTIME'
p1768
g2
(g19
g20
(lp1769
g12
(S'\x07\xde\x05\x01\x00\x00\x00\x00\x00\x00'
p1770
tp1771
Rp1772
aNatp1773
Rp1774
(dp1775
g28
S'[)'
p1776
sbsS'PR_NAME'
p1777
VMethane emissions from the Arctic OCean to the Atmosphere (near realtime data)
p1778
sS'PR_DATAPOLICY'
p1779
VFor scientific purposes, access to MOCA data is unlimited but by their use you accept that an offer of co-authorship will be made through personal contact with the data producer or owner.
p1780
sS'PR_COMMENT'
p1781
Nstp1782
Rp1783
sVSOGE
p1784
g2
(g3
g4
(dp1785
S'PR_HOMEPAGE_URL'
p1786
NsS'PS_ID'
p1787
I9185
sS'OPEN_ACCESS'
p1788
I00
sS'PR_DESC'
p1789
NsS'PR_STARTDATE'
p1790
g12
(S'\x07\xd7\x06\x15\x06\x03\x00\x00\x00\x00'
p1791
tp1792
Rp1793
sS'PR_ENDDATE'
p1794
NsS'PR_ACRONYM'
p1795
g1784
sS'SYSTIME'
p1796
g2
(g19
g20
(lp1797
g12
(S'\x07\xde\x05\x01\x00\x00\x00\x00\x00\x00'
p1798
tp1799
Rp1800
aNatp1801
Rp1802
(dp1803
g28
S'[)'
p1804
sbsS'PR_NAME'
p1805
NsS'PR_DATAPOLICY'
p1806
VData policy will be presented upon request
p1807
sS'PR_COMMENT'
p1808
Nstp1809
Rp1810
sVHELCOM_preliminary
p1811
g2
(g3
g4
(dp1812
S'PR_HOMEPAGE_URL'
p1813
Vhttp://www.helcom.fi
p1814
sS'PS_ID'
p1815
I1195
sS'OPEN_ACCESS'
p1816
I00
sS'PR_DESC'
p1817
VAtmospheric monitoring data for the assessment of the atmospheric input of selected contaminants to the Baltic sea area.
p1818
sS'PR_STARTDATE'
p1819
g12
(S'\x07\xd8\n\t\x14\r8\x00u0'
p1820
tp1821
Rp1822
sS'PR_ENDDATE'
p1823
NsS'PR_ACRONYM'
p1824
g1811
sS'SYSTIME'
p1825
g2
(g19
g20
(lp1826
g12
(S'\x07\xde\x05\x01\x00\x00\x00\x00\x00\x00'
p1827
tp1828
Rp1829
aNatp1830
Rp1831
(dp1832
g28
S'[)'
p1833
sbsS'PR_NAME'
p1834
VPreliminary data submissions for Baltic Marine Environment Protection Commission - Helsinki Commission
p1835
sS'PR_DATAPOLICY'
p1836
VThese data seta are considered as preliminary data, but may be given access to for scientific purposes.  Data policy will be presented upon request
p1837
sS'PR_COMMENT'
p1838
Nstp1839
Rp1840
sVACTRIS_NRT
p1841
g2
(g3
g4
(dp1842
S'PR_HOMEPAGE_URL'
p1843
Vhttp://www.actris.eu
p1844
sS'PS_ID'
p1845
I9744
sS'OPEN_ACCESS'
p1846
I01
sS'PR_DESC'
p1847
VACTRIS is the European Research Infrastructure for the observation of Aerosol, Clouds, and Trace gases. ACTRIS is composed of observing stations, exploratory platforms, instruments calibration centres, and a data centre.
p1848
sS'PR_STARTDATE'
p1849
g12
(S'\x07\xdc\x01\x01\x00\x00\x00\x00\x00\x00'
p1850
tp1851
Rp1852
sS'PR_ENDDATE'
p1853
NsS'PR_ACRONYM'
p1854
g1841
sS'SYSTIME'
p1855
g2
(g19
g20
(lp1856
g12
(S'\x07\xde\x05\x01\x00\x00\x00\x00\x00\x00'
p1857
tp1858
Rp1859
aNatp1860
Rp1861
(dp1862
g28
S'[)'
p1863
sbsS'PR_NAME'
p1864
VNear Realtime Data for European Research Infrastructure for the observation of Aerosol, Clouds, and Trace gases
p1865
sS'PR_DATAPOLICY'
p1866
Vhttp://actris.nilu.no/Content/Documents/DataPolicy.pdf
p1867
sS'PR_COMMENT'
p1868
Nstp1869
Rp1870
sVSYLVA
p1871
g2
(g3
g4
(dp1872
S'PR_HOMEPAGE_URL'
p1873
Vhttps://sylva.bioaerosol.eu
p1874
sS'PS_ID'
p1875
I8633
sS'OPEN_ACCESS'
p1876
I01
sS'PR_DESC'
p1877
VThe overall goal of SYLVA is to achieve a radical improvement and fill gaps in temporal resolution, timeliness, coverage, and availability of information about aeroalaeroallergens and other bioaerosols
p1878
sS'PR_STARTDATE'
p1879
g12
(S'\x07\xe7\t\x0f\x00\x00\x00\x00\x00\x00'
p1880
tp1881
Rp1882
sS'PR_ENDDATE'
p1883
NsS'PR_ACRONYM'
p1884
g1871
sS'SYSTIME'
p1885
g2
(g19
g20
(lp1886
g12
(S'\x07\xe7\t\x13\r\x031\tR\xb3'
p1887
tp1888
Rp1889
aNatp1890
Rp1891
(dp1892
g28
S'[)'
p1893
sbsS'PR_NAME'
p1894
VSYLVA
p1895
sS'PR_DATAPOLICY'
p1896
NsS'PR_COMMENT'
p1897
Nstp1898
Rp1899
sVLegacy
p1900
g2
(g3
g4
(dp1901
S'PR_HOMEPAGE_URL'
p1902
NsS'PS_ID'
p1903
I1390
sS'OPEN_ACCESS'
p1904
I00
sS'PR_DESC'
p1905
VLegacy data, content is locked and data not available
p1906
sS'PR_STARTDATE'
p1907
g12
(S'\x07\xe3\x02\x0b\x0f)6\x07\xac\xd8'
p1908
tp1909
Rp1910
sS'PR_ENDDATE'
p1911
NsS'PR_ACRONYM'
p1912
g1900
sS'SYSTIME'
p1913
g2
(g19
g20
(lp1914
g12
(S'\x07\xde\x05\x01\x00\x00\x00\x00\x00\x00'
p1915
tp1916
Rp1917
aNatp1918
Rp1919
(dp1920
g28
S'[)'
p1921
sbsS'PR_NAME'
p1922
VLegacy data
p1923
sS'PR_DATAPOLICY'
p1924
NsS'PR_COMMENT'
p1925
Nstp1926
Rp1927
sVAutoPollen_NRT
p1928
g2
(g3
g4
(dp1929
S'PR_HOMEPAGE_URL'
p1930
Vhttps://www.eumetnet.eu/activities/miscellaneous/current-activities-mi/autopollen/
p1931
sS'PS_ID'
p1932
I8633
sS'OPEN_ACCESS'
p1933
I01
sS'PR_DESC'
p1934
VNear realtime data for Automatic European pollen monitoring network, integrating developing and planned projects
p1935
sS'PR_STARTDATE'
p1936
g12
(S'\x07\xe5\x01\x01\x00\x00\x00\x00\x00\x00'
p1937
tp1938
Rp1939
sS'PR_ENDDATE'
p1940
NsS'PR_ACRONYM'
p1941
g1928
sS'SYSTIME'
p1942
g2
(g19
g20
(lp1943
g12
(S'\x07\xde\x05\x01\x00\x00\x00\x00\x00\x00'
p1944
tp1945
Rp1946
aNatp1947
Rp1948
(dp1949
g28
S'[)'
p1950
sbsS'PR_NAME'
p1951
VNear realtime data for EUMETNET AutoPollen programme
p1952
sS'PR_DATAPOLICY'
p1953
NsS'PR_COMMENT'
p1954
Nstp1955
Rp1956
sVRI-URBANS_NRT
p1957
g2
(g3
g4
(dp1958
S'PR_HOMEPAGE_URL'
p1959
Vhttps://riurbans.eu
p1960
sS'PS_ID'
p1961
I8102
sS'OPEN_ACCESS'
p1962
I01
sS'PR_DESC'
p1963
NsS'PR_STARTDATE'
p1964
g12
(S'\x07\xe6\x01\x01\x00\x00\x00\x00\x00\x00'
p1965
tp1966
Rp1967
sS'PR_ENDDATE'
p1968
NsS'PR_ACRONYM'
p1969
g1957
sS'SYSTIME'
p1970
g2
(g19
g20
(lp1971
g12
(S'\x07\xe6\x0b\x0e\r9\x0b\x0eR\xa2'
p1972
tp1973
Rp1974
aNatp1975
Rp1976
(dp1977
g28
S'[)'
p1978
sbsS'PR_NAME'
p1979
VRI-URBANS
p1980
sS'PR_DATAPOLICY'
p1981
NsS'PR_COMMENT'
p1982
Nstp1983
Rp1984
sVNILU_preliminary
p1985
g2
(g3
g4
(dp1986
S'PR_HOMEPAGE_URL'
p1987
Vhttp://www.nilu.no
p1988
sS'PS_ID'
p1989
I1195
sS'OPEN_ACCESS'
p1990
I00
sS'PR_DESC'
p1991
VAtmospheric measuremnts produced at NILU.
p1992
sS'PR_STARTDATE'
p1993
g12
(S"\x07\xd8\n\t\r'\n\x03\xf7\xa0"
p1994
tp1995
Rp1996
sS'PR_ENDDATE'
p1997
NsS'PR_ACRONYM'
p1998
g1985
sS'SYSTIME'
p1999
g2
(g19
g20
(lp2000
g12
(S'\x07\xde\x05\x01\x00\x00\x00\x00\x00\x00'
p2001
tp2002
Rp2003
aNatp2004
Rp2005
(dp2006
g28
S'[)'
p2007
sbsS'PR_NAME'
p2008
VPreliminary data submissions from Norwegian Institute for Air Research
p2009
sS'PR_DATAPOLICY'
p2010
VData can not be published without specific agreement from NILU.
p2011
sS'PR_COMMENT'
p2012
Nstp2013
Rp2014
sVAMAP_public
p2015
g2
(g3
g4
(dp2016
S'PR_HOMEPAGE_URL'
p2017
NsS'PS_ID'
p2018
I6555
sS'OPEN_ACCESS'
p2019
I01
sS'PR_DESC'
p2020
NsS'PR_STARTDATE'
p2021
g12
(S'\x07\xbc\x01\x01\x00\x00\x00\x00\x00\x00'
p2022
tp2023
Rp2024
sS'PR_ENDDATE'
p2025
NsS'PR_ACRONYM'
p2026
g2015
sS'SYSTIME'
p2027
g2
(g19
g20
(lp2028
g12
(S'\x07\xde\x05\x01\x00\x00\x00\x00\x00\x00'
p2029
tp2030
Rp2031
aNatp2032
Rp2033
(dp2034
g28
S'[)'
p2035
sbsS'PR_NAME'
p2036
NsS'PR_DATAPOLICY'
p2037
VPublic open access. We encourage contacting data originators if substatial use of individual time series is planned (fair use data policy).
p2038
sS'PR_COMMENT'
p2039
Nstp2040
Rp2041
sVGAW-WDCRG_legacy
p2042
g2
(g3
g4
(dp2043
S'PR_HOMEPAGE_URL'
p2044
NsS'PS_ID'
p2045
I1390
sS'OPEN_ACCESS'
p2046
I00
sS'PR_DESC'
p2047
VGAW-WDCRG legacy data converted from WDCGG, content is locked and data not available
p2048
sS'PR_STARTDATE'
p2049
g12
(S'\x07\xe4\n\x02\x00\x00\x00\x00\x00\x00'
p2050
tp2051
Rp2052
sS'PR_ENDDATE'
p2053
NsS'PR_ACRONYM'
p2054
g2042
sS'SYSTIME'
p2055
g2
(g19
g20
(lp2056
g12
(S'\x07\xde\x05\x01\x00\x00\x00\x00\x00\x00'
p2057
tp2058
Rp2059
aNatp2060
Rp2061
(dp2062
g28
S'[)'
p2063
sbsS'PR_NAME'
p2064
VGAW-WDCRG legacy data
p2065
sS'PR_DATAPOLICY'
p2066
NsS'PR_COMMENT'
p2067
Nstp2068
Rp2069
sVMOE
p2070
g2
(g3
g4
(dp2071
S'PR_HOMEPAGE_URL'
p2072
NsS'PS_ID'
p2073
I6555
sS'OPEN_ACCESS'
p2074
I00
sS'PR_DESC'
p2075
NsS'PR_STARTDATE'
p2076
g12
(S'\x07\xce\x01\x01\x00\x00\x00\x00\x00\x00'
p2077
tp2078
Rp2079
sS'PR_ENDDATE'
p2080
NsS'PR_ACRONYM'
p2081
g2070
sS'SYSTIME'
p2082
g2
(g19
g20
(lp2083
g12
(S'\x07\xde\x05\x01\x00\x00\x00\x00\x00\x00'
p2084
tp2085
Rp2086
aNatp2087
Rp2088
(dp2089
g28
S'[)'
p2090
sbsS'PR_NAME'
p2091
NsS'PR_DATAPOLICY'
p2092
VFor scientific purposes. We encourage contacting data originators if substatial use of individual time series is planned (fair use data policy).
p2093
sS'PR_COMMENT'
p2094
Nstp2095
Rp2096
sVPollenScience
p2097
g2
(g3
g4
(dp2098
S'PR_HOMEPAGE_URL'
p2099
Vhttps://pollenscience.eu
p2100
sS'PS_ID'
p2101
I8633
sS'OPEN_ACCESS'
p2102
I01
sS'PR_DESC'
p2103
VThe aim of Pollen Science is to collect and graphically display the data of different pollen measurement networks and stations.
p2104
sS'PR_STARTDATE'
p2105
g12
(S'\x07\xe7\t\x0f\x00\x00\x00\x00\x00\x00'
p2106
tp2107
Rp2108
sS'PR_ENDDATE'
p2109
NsS'PR_ACRONYM'
p2110
g2097
sS'SYSTIME'
p2111
g2
(g19
g20
(lp2112
g12
(S'\x07\xe7\t\x0f\x17\x08\x1b\x0bJ\xd2'
p2113
tp2114
Rp2115
aNatp2116
Rp2117
(dp2118
g28
S'[)'
p2119
sbsS'PR_NAME'
p2120
VPollen Science
p2121
sS'PR_DATAPOLICY'
p2122
NsS'PR_COMMENT'
p2123
Nstp2124
Rp2125
s.