(dp0
VIMG
p1
ccopy_reg
_reconstructor
p2
(cnilutility.datatypes
DataObject
p3
c__builtin__
dict
p4
(dp5
S'RE_REGIME_CODE'
p6
g1
sS'RE_COMMENT'
p7
NsS'RE_DESC'
p8
VImmission measurement at ground level or in the lower troposphere
p9
sS'SYSTIME'
p10
g2
(cnilutility.datetime_helper
DatetimeInterval
p11
c__builtin__
list
p12
(lp13
cdatetime
datetime
p14
(S'\x07\xde\x05\x01\x00\x00\x00\x00\x00\x00'
p15
tp16
Rp17
aNatp18
Rp19
(dp20
S'bounds'
p21
S'[)'
p22
sbstp23
Rp24
s.