(dp0
(Vaws
p1
Vwind_speed
p2
Vultrasonic anemometer
p3
tp4
ccopy_reg
_reconstructor
p5
(cnilutility.datatypes
DataObject
p6
c__builtin__
dict
p7
(dp8
S'SE_SENSORTYPE'
p9
g3
sS'CO_COMP_NAME'
p10
g2
sS'SE_DESC'
p11
NsS'SYSTIME'
p12
g5
(cnilutility.datetime_helper
DatetimeInterval
p13
c__builtin__
list
p14
(lp15
cdatetime
datetime
p16
(S'\x07\xde\x05\x01\x00\x00\x00\x00\x00\x00'
p17
tp18
Rp19
aNatp20
Rp21
(dp22
S'bounds'
p23
S'[)'
p24
sbsS'SE_COMMENT'
p25
NsS'FT_TYPE'
p26
g1
stp27
Rp28
s(Vaws
p29
VUVA_radiation
p30
Vpyranometer
p31
tp32
g5
(g6
g7
(dp33
S'SE_SENSORTYPE'
p34
g31
sS'CO_COMP_NAME'
p35
g30
sS'SE_DESC'
p36
NsS'SYSTIME'
p37
g5
(g13
g14
(lp38
g16
(S'\x07\xde\x05\x01\x00\x00\x00\x00\x00\x00'
p39
tp40
Rp41
aNatp42
Rp43
(dp44
g23
S'[)'
p45
sbsS'SE_COMMENT'
p46
NsS'FT_TYPE'
p47
g29
stp48
Rp49
s(Vaws
p50
Vpressure
p51
Vcapacitive pressure sensor
p52
tp53
g5
(g6
g7
(dp54
S'SE_SENSORTYPE'
p55
g52
sS'CO_COMP_NAME'
p56
g51
sS'SE_DESC'
p57
NsS'SYSTIME'
p58
g5
(g13
g14
(lp59
g16
(S'\x07\xde\x05\x01\x00\x00\x00\x00\x00\x00'
p60
tp61
Rp62
aNatp63
Rp64
(dp65
g23
S'[)'
p66
sbsS'SE_COMMENT'
p67
NsS'FT_TYPE'
p68
g50
stp69
Rp70
s(Vaws
p71
Vwind_gust
p72
Vcup anemometer
p73
tp74
g5
(g6
g7
(dp75
S'SE_SENSORTYPE'
p76
g73
sS'CO_COMP_NAME'
p77
g72
sS'SE_DESC'
p78
NsS'SYSTIME'
p79
g5
(g13
g14
(lp80
g16
(S'\x07\xde\x05\x01\x00\x00\x00\x00\x00\x00'
p81
tp82
Rp83
aNatp84
Rp85
(dp86
g23
S'[)'
p87
sbsS'SE_COMMENT'
p88
NsS'FT_TYPE'
p89
g71
stp90
Rp91
s(Vaws
p92
Vwind_direction
p93
Vwind vane
p94
tp95
g5
(g6
g7
(dp96
S'SE_SENSORTYPE'
p97
g94
sS'CO_COMP_NAME'
p98
g93
sS'SE_DESC'
p99
NsS'SYSTIME'
p100
g5
(g13
g14
(lp101
g16
(S'\x07\xde\x05\x01\x00\x00\x00\x00\x00\x00'
p102
tp103
Rp104
aNatp105
Rp106
(dp107
g23
S'[)'
p108
sbsS'SE_COMMENT'
p109
NsS'FT_TYPE'
p110
g92
stp111
Rp112
s(Vaws
p113
Vgust
p114
Vultrasonic anemometer
p115
tp116
g5
(g6
g7
(dp117
S'SE_SENSORTYPE'
p118
g115
sS'CO_COMP_NAME'
p119
g114
sS'SE_DESC'
p120
NsS'SYSTIME'
p121
g5
(g13
g14
(lp122
g16
(S'\x07\xde\x05\x01\x00\x00\x00\x00\x00\x00'
p123
tp124
Rp125
aNatp126
Rp127
(dp128
g23
S'[)'
p129
sbsS'SE_COMMENT'
p130
NsS'FT_TYPE'
p131
g113
stp132
Rp133
s(Vaws
p134
Vrelative_humidity
p135
Vcapacitive polymer
p136
tp137
g5
(g6
g7
(dp138
S'SE_SENSORTYPE'
p139
g136
sS'CO_COMP_NAME'
p140
g135
sS'SE_DESC'
p141
NsS'SYSTIME'
p142
g5
(g13
g14
(lp143
g16
(S'\x07\xde\x05\x01\x00\x00\x00\x00\x00\x00'
p144
tp145
Rp146
aNatp147
Rp148
(dp149
g23
S'[)'
p150
sbsS'SE_COMMENT'
p151
NsS'FT_TYPE'
p152
g134
stp153
Rp154
s(Vaws
p155
Vprecipitation_amount
p156
Vrain gauge
p157
tp158
g5
(g6
g7
(dp159
S'SE_SENSORTYPE'
p160
g157
sS'CO_COMP_NAME'
p161
g156
sS'SE_DESC'
p162
NsS'SYSTIME'
p163
g5
(g13
g14
(lp164
g16
(S'\x07\xde\x05\x01\x00\x00\x00\x00\x00\x00'
p165
tp166
Rp167
aNatp168
Rp169
(dp170
g23
S'[)'
p171
sbsS'SE_COMMENT'
p172
NsS'FT_TYPE'
p173
g155
stp174
Rp175
s(Vaws
p176
Vwind_speed
p177
Vcup anemometer
p178
tp179
g5
(g6
g7
(dp180
S'SE_SENSORTYPE'
p181
g178
sS'CO_COMP_NAME'
p182
g177
sS'SE_DESC'
p183
NsS'SYSTIME'
p184
g5
(g13
g14
(lp185
g16
(S'\x07\xde\x05\x01\x00\x00\x00\x00\x00\x00'
p186
tp187
Rp188
aNatp189
Rp190
(dp191
g23
S'[)'
p192
sbsS'SE_COMMENT'
p193
NsS'FT_TYPE'
p194
g176
stp195
Rp196
s(Vaws
p197
Vtemperature
p198
Vplatinum resistance
p199
tp200
g5
(g6
g7
(dp201
S'SE_SENSORTYPE'
p202
g199
sS'CO_COMP_NAME'
p203
g198
sS'SE_DESC'
p204
NsS'SYSTIME'
p205
g5
(g13
g14
(lp206
g16
(S'\x07\xde\x05\x01\x00\x00\x00\x00\x00\x00'
p207
tp208
Rp209
aNatp210
Rp211
(dp212
g23
S'[)'
p213
sbsS'SE_COMMENT'
p214
NsS'FT_TYPE'
p215
g197
stp216
Rp217
s(Vaws
p218
Vwind_gust
p219
Vsonic
p220
tp221
g5
(g6
g7
(dp222
S'SE_SENSORTYPE'
p223
g220
sS'CO_COMP_NAME'
p224
g219
sS'SE_DESC'
p225
NsS'SYSTIME'
p226
g5
(g13
g14
(lp227
g16
(S'\x07\xde\x05\x01\x00\x00\x00\x00\x00\x00'
p228
tp229
Rp230
aNatp231
Rp232
(dp233
g23
S'[)'
p234
sbsS'SE_COMMENT'
p235
NsS'FT_TYPE'
p236
g218
stp237
Rp238
s(Vaws
p239
Vdownward_solar_radiation_flux_density
p240
Vpyranometer
p241
tp242
g5
(g6
g7
(dp243
S'SE_SENSORTYPE'
p244
g241
sS'CO_COMP_NAME'
p245
g240
sS'SE_DESC'
p246
NsS'SYSTIME'
p247
g5
(g13
g14
(lp248
g16
(S'\x07\xde\x05\x01\x00\x00\x00\x00\x00\x00'
p249
tp250
Rp251
aNatp252
Rp253
(dp254
g23
S'[)'
p255
sbsS'SE_COMMENT'
p256
NsS'FT_TYPE'
p257
g239
stp258
Rp259
s(Vaws
p260
Vwind_direction
p261
Vultrasonic anemometer
p262
tp263
g5
(g6
g7
(dp264
S'SE_SENSORTYPE'
p265
g262
sS'CO_COMP_NAME'
p266
g261
sS'SE_DESC'
p267
NsS'SYSTIME'
p268
g5
(g13
g14
(lp269
g16
(S'\x07\xde\x05\x01\x00\x00\x00\x00\x00\x00'
p270
tp271
Rp272
aNatp273
Rp274
(dp275
g23
S'[)'
p276
sbsS'SE_COMMENT'
p277
NsS'FT_TYPE'
p278
g260
stp279
Rp280
s(Vaws
p281
Vwind_direction
p282
Vsonic
p283
tp284
g5
(g6
g7
(dp285
S'SE_SENSORTYPE'
p286
g283
sS'CO_COMP_NAME'
p287
g282
sS'SE_DESC'
p288
NsS'SYSTIME'
p289
g5
(g13
g14
(lp290
g16
(S'\x07\xde\x05\x01\x00\x00\x00\x00\x00\x00'
p291
tp292
Rp293
aNatp294
Rp295
(dp296
g23
S'[)'
p297
sbsS'SE_COMMENT'
p298
NsS'FT_TYPE'
p299
g281
stp300
Rp301
s(Vaws
p302
Vdewpoint_temperature
p303
Vplatinum resistance
p304
tp305
g5
(g6
g7
(dp306
S'SE_SENSORTYPE'
p307
g304
sS'CO_COMP_NAME'
p308
g303
sS'SE_DESC'
p309
NsS'SYSTIME'
p310
g5
(g13
g14
(lp311
g16
(S'\x07\xde\x05\x01\x00\x00\x00\x00\x00\x00'
p312
tp313
Rp314
aNatp315
Rp316
(dp317
g23
S'[)'
p318
sbsS'SE_COMMENT'
p319
NsS'FT_TYPE'
p320
g302
stp321
Rp322
s(Vaws
p323
Vwind_speed
p324
Vsonic
p325
tp326
g5
(g6
g7
(dp327
S'SE_SENSORTYPE'
p328
g325
sS'CO_COMP_NAME'
p329
g324
sS'SE_DESC'
p330
NsS'SYSTIME'
p331
g5
(g13
g14
(lp332
g16
(S'\x07\xde\x05\x01\x00\x00\x00\x00\x00\x00'
p333
tp334
Rp335
aNatp336
Rp337
(dp338
g23
S'[)'
p339
sbsS'SE_COMMENT'
p340
NsS'FT_TYPE'
p341
g323
stp342
Rp343
s(Vaws
p344
Vpressure
p345
Vaneroid barometer
p346
tp347
g5
(g6
g7
(dp348
S'SE_SENSORTYPE'
p349
g346
sS'CO_COMP_NAME'
p350
g345
sS'SE_DESC'
p351
NsS'SYSTIME'
p352
g5
(g13
g14
(lp353
g16
(S'\x07\xde\x05\x01\x00\x00\x00\x00\x00\x00'
p354
tp355
Rp356
aNatp357
Rp358
(dp359
g23
S'[)'
p360
sbsS'SE_COMMENT'
p361
NsS'FT_TYPE'
p362
g344
stp363
Rp364
s(Vaws
p365
Vtemperature
p366
Vcapacitive polymer
p367
tp368
g5
(g6
g7
(dp369
S'SE_SENSORTYPE'
p370
g367
sS'CO_COMP_NAME'
p371
g366
sS'SE_DESC'
p372
NsS'SYSTIME'
p373
g5
(g13
g14
(lp374
g16
(S'\x07\xde\x05\x01\x00\x00\x00\x00\x00\x00'
p375
tp376
Rp377
aNatp378
Rp379
(dp380
g23
S'[)'
p381
sbsS'SE_COMMENT'
p382
NsS'FT_TYPE'
p383
g365
stp384
Rp385
s.