(dp0
VSTATION_RATING_NAtChem
p1
ccopy_reg
_reconstructor
p2
(cnilutility.datatypes
DataObject
p3
c__builtin__
dict
p4
(dp5
S'SZ_TYPE'
p6
g1
sS'SZ_NAME'
p7
VStation Rating (NAtChem)
p8
sS'SZ_DESC'
p9
VNAtChem: station rating
p10
sS'SYSTIME'
p11
g2
(cnilutility.datetime_helper
DatetimeInterval
p12
c__builtin__
list
p13
(lp14
cdatetime
datetime
p15
(S'\x07\xde\x05\x01\x00\x00\x00\x00\x00\x00'
p16
tp17
Rp18
aNatp19
Rp20
(dp21
S'bounds'
p22
S'[)'
p23
sbsS'SZ_DATATYPE'
p24
VCHR
p25
sS'SZ_COMMENT'
p26
Nstp27
Rp28
sVSTATION_LAT_NADP
p29
g2
(g3
g4
(dp30
S'SZ_TYPE'
p31
g29
sS'SZ_NAME'
p32
VLatitude (NADP Station)
p33
sS'SZ_DESC'
p34
VStation Latitude according to NADP Station Metadata
p35
sS'SYSTIME'
p36
g2
(g12
g13
(lp37
g15
(S'\x07\xde\x05\x01\x00\x00\x00\x00\x00\x00'
p38
tp39
Rp40
aNatp41
Rp42
(dp43
g22
S'[)'
p44
sbsS'SZ_DATATYPE'
p45
VDBL
p46
sS'SZ_COMMENT'
p47
Nstp48
Rp49
sVTIMEZONE_OFFSET
p50
g2
(g3
g4
(dp51
S'SZ_TYPE'
p52
g50
sS'SZ_NAME'
p53
VTime Zone Offset
p54
sS'SZ_DESC'
p55
VOffset UTC to LST (local standard time) in decimal hours
p56
sS'SYSTIME'
p57
g2
(g12
g13
(lp58
g15
(S'\x07\xde\x05\x01\x00\x00\x00\x00\x00\x00'
p59
tp60
Rp61
aNatp62
Rp63
(dp64
g22
S'[)'
p65
sbsS'SZ_DATATYPE'
p66
VDBL
p67
sS'SZ_COMMENT'
p68
Nstp69
Rp70
sVSTATION_LON_NAtChem
p71
g2
(g3
g4
(dp72
S'SZ_TYPE'
p73
g71
sS'SZ_NAME'
p74
VLongitude (NAtChem Station)
p75
sS'SZ_DESC'
p76
VStation Longitude according to NAtChem Station Metadata
p77
sS'SYSTIME'
p78
g2
(g12
g13
(lp79
g15
(S'\x07\xde\x05\x01\x00\x00\x00\x00\x00\x00'
p80
tp81
Rp82
aNatp83
Rp84
(dp85
g22
S'[)'
p86
sbsS'SZ_DATATYPE'
p87
VDBL
p88
sS'SZ_COMMENT'
p89
Nstp90
Rp91
sVSTATION_LON_NADP
p92
g2
(g3
g4
(dp93
S'SZ_TYPE'
p94
g92
sS'SZ_NAME'
p95
VLongitude (NADP Station)
p96
sS'SZ_DESC'
p97
VStation Longitude according to NADP Station Metadata
p98
sS'SYSTIME'
p99
g2
(g12
g13
(lp100
g15
(S'\x07\xde\x05\x01\x00\x00\x00\x00\x00\x00'
p101
tp102
Rp103
aNatp104
Rp105
(dp106
g22
S'[)'
p107
sbsS'SZ_DATATYPE'
p108
VDBL
p109
sS'SZ_COMMENT'
p110
Nstp111
Rp112
sVSTATION_TOPOGRAPHY_NAtChem
p113
g2
(g3
g4
(dp114
S'SZ_TYPE'
p115
g113
sS'SZ_NAME'
p116
VCoastal Indicator (NAtChem)
p117
sS'SZ_DESC'
p118
VNAtChem: coastal indicator
p119
sS'SYSTIME'
p120
g2
(g12
g13
(lp121
g15
(S'\x07\xde\x05\x01\x00\x00\x00\x00\x00\x00'
p122
tp123
Rp124
aNatp125
Rp126
(dp127
g22
S'[)'
p128
sbsS'SZ_DATATYPE'
p129
VCHR
p130
sS'SZ_COMMENT'
p131
Nstp132
Rp133
sVSTATION_ALT_IMPROVE
p134
g2
(g3
g4
(dp135
S'SZ_TYPE'
p136
g134
sS'SZ_NAME'
p137
VAltitude (IMPROVE Station)
p138
sS'SZ_DESC'
p139
VStation Altitude according to IMPROVE Station Metadata
p140
sS'SYSTIME'
p141
g2
(g12
g13
(lp142
g15
(S'\x07\xde\x05\x01\x00\x00\x00\x00\x00\x00'
p143
tp144
Rp145
aNatp146
Rp147
(dp148
g22
S'[)'
p149
sbsS'SZ_DATATYPE'
p150
VDBL
p151
sS'SZ_COMMENT'
p152
Nstp153
Rp154
sVUS_COUNTY_FIPS
p155
g2
(g3
g4
(dp156
S'SZ_TYPE'
p157
g155
sS'SZ_NAME'
p158
VUS County FIPS
p159
sS'SZ_DESC'
p160
VFederal Information Processing Standards code for US County
p161
sS'SYSTIME'
p162
g2
(g12
g13
(lp163
g15
(S'\x07\xde\x05\x01\x00\x00\x00\x00\x00\x00'
p164
tp165
Rp166
aNatp167
Rp168
(dp169
g22
S'[)'
p170
sbsS'SZ_DATATYPE'
p171
VINT
p172
sS'SZ_COMMENT'
p173
Nstp174
Rp175
sVSTATION_NAME_IMPROVE
p176
g2
(g3
g4
(dp177
S'SZ_TYPE'
p178
g176
sS'SZ_NAME'
p179
VIMPROVE Station Name
p180
sS'SZ_DESC'
p181
NsS'SYSTIME'
p182
g2
(g12
g13
(lp183
g15
(S'\x07\xde\x05\x01\x00\x00\x00\x00\x00\x00'
p184
tp185
Rp186
aNatp187
Rp188
(dp189
g22
S'[)'
p190
sbsS'SZ_DATATYPE'
p191
VCHR
p192
sS'SZ_COMMENT'
p193
Nstp194
Rp195
sVUS_STATE_FIPS
p196
g2
(g3
g4
(dp197
S'SZ_TYPE'
p198
g196
sS'SZ_NAME'
p199
VUS State FIPS
p200
sS'SZ_DESC'
p201
VFederal Information Processing Standards code for US states
p202
sS'SYSTIME'
p203
g2
(g12
g13
(lp204
g15
(S'\x07\xde\x05\x01\x00\x00\x00\x00\x00\x00'
p205
tp206
Rp207
aNatp208
Rp209
(dp210
g22
S'[)'
p211
sbsS'SZ_DATATYPE'
p212
VINT
p213
sS'SZ_COMMENT'
p214
Nstp215
Rp216
sVUS_STATE_2C
p217
g2
(g3
g4
(dp218
S'SZ_TYPE'
p219
g217
sS'SZ_NAME'
p220
VUS State Code
p221
sS'SZ_DESC'
p222
V2-char code for US states
p223
sS'SYSTIME'
p224
g2
(g12
g13
(lp225
g15
(S'\x07\xde\x05\x01\x00\x00\x00\x00\x00\x00'
p226
tp227
Rp228
aNatp229
Rp230
(dp231
g22
S'[)'
p232
sbsS'SZ_DATATYPE'
p233
VCHR
p234
sS'SZ_COMMENT'
p235
Nstp236
Rp237
sVSTATION_CODE_ABPM
p238
g2
(g3
g4
(dp239
S'SZ_TYPE'
p240
g238
sS'SZ_NAME'
p241
VABPM Station ID
p242
sS'SZ_DESC'
p243
V4 char Station ID according to ABPM Station Metadata
p244
sS'SYSTIME'
p245
g2
(g12
g13
(lp246
g15
(S'\x07\xde\x05\x01\x00\x00\x00\x00\x00\x00'
p247
tp248
Rp249
aNatp250
Rp251
(dp252
g22
S'[)'
p253
sbsS'SZ_DATATYPE'
p254
VCHR
p255
sS'SZ_COMMENT'
p256
Nstp257
Rp258
sVTIMEZONE_3C
p259
g2
(g3
g4
(dp260
S'SZ_TYPE'
p261
g259
sS'SZ_NAME'
p262
VTime Zone
p263
sS'SZ_DESC'
p264
V3 char (ambiguous) Time zone code
p265
sS'SYSTIME'
p266
g2
(g12
g13
(lp267
g15
(S'\x07\xde\x05\x01\x00\x00\x00\x00\x00\x00'
p268
tp269
Rp270
aNatp271
Rp272
(dp273
g22
S'[)'
p274
sbsS'SZ_DATATYPE'
p275
VCHR
p276
sS'SZ_COMMENT'
p277
Nstp278
Rp279
sVSTATION_NAME_NADP
p280
g2
(g3
g4
(dp281
S'SZ_TYPE'
p282
g280
sS'SZ_NAME'
p283
VNADP Station Name
p284
sS'SZ_DESC'
p285
NsS'SYSTIME'
p286
g2
(g12
g13
(lp287
g15
(S'\x07\xde\x05\x01\x00\x00\x00\x00\x00\x00'
p288
tp289
Rp290
aNatp291
Rp292
(dp293
g22
S'[)'
p294
sbsS'SZ_DATATYPE'
p295
VCHR
p296
sS'SZ_COMMENT'
p297
Nstp298
Rp299
sVSTATION_LOCATION_SETTING_NAtChem
p300
g2
(g3
g4
(dp301
S'SZ_TYPE'
p302
g300
sS'SZ_NAME'
p303
VLocation Setting(NAtChem)
p304
sS'SZ_DESC'
p305
VNAtChem: location setting
p306
sS'SYSTIME'
p307
g2
(g12
g13
(lp308
g15
(S'\x07\xde\x05\x01\x00\x00\x00\x00\x00\x00'
p309
tp310
Rp311
aNatp312
Rp313
(dp314
g22
S'[)'
p315
sbsS'SZ_DATATYPE'
p316
VCHR
p317
sS'SZ_COMMENT'
p318
Nstp319
Rp320
sVSTATION_CODE_IMPROVE
p321
g2
(g3
g4
(dp322
S'SZ_TYPE'
p323
g321
sS'SZ_NAME'
p324
VIMPROVE Station ID
p325
sS'SZ_DESC'
p326
NsS'SYSTIME'
p327
g2
(g12
g13
(lp328
g15
(S'\x07\xde\x05\x01\x00\x00\x00\x00\x00\x00'
p329
tp330
Rp331
aNatp332
Rp333
(dp334
g22
S'[)'
p335
sbsS'SZ_DATATYPE'
p336
VCHR
p337
sS'SZ_COMMENT'
p338
Nstp339
Rp340
sVSTATION_LAND_USE_NAtChem
p341
g2
(g3
g4
(dp342
S'SZ_TYPE'
p343
g341
sS'SZ_NAME'
p344
VLand Use (NAtChem)
p345
sS'SZ_DESC'
p346
VNAtChem: land use
p347
sS'SYSTIME'
p348
g2
(g12
g13
(lp349
g15
(S'\x07\xde\x05\x01\x00\x00\x00\x00\x00\x00'
p350
tp351
Rp352
aNatp353
Rp354
(dp355
g22
S'[)'
p356
sbsS'SZ_DATATYPE'
p357
VCHR
p358
sS'SZ_COMMENT'
p359
Nstp360
Rp361
sVSTATION_CODE_NBPN
p362
g2
(g3
g4
(dp363
S'SZ_TYPE'
p364
g362
sS'SZ_NAME'
p365
VNBPN Station ID
p366
sS'SZ_DESC'
p367
V12 char Station ID according to NBPN Station Metadata
p368
sS'SYSTIME'
p369
g2
(g12
g13
(lp370
g15
(S'\x07\xde\x05\x01\x00\x00\x00\x00\x00\x00'
p371
tp372
Rp373
aNatp374
Rp375
(dp376
g22
S'[)'
p377
sbsS'SZ_DATATYPE'
p378
VCHR
p379
sS'SZ_COMMENT'
p380
Nstp381
Rp382
sVSTATION_ALT_NAtChem
p383
g2
(g3
g4
(dp384
S'SZ_TYPE'
p385
g383
sS'SZ_NAME'
p386
VAltitude (NAtChem Station)
p387
sS'SZ_DESC'
p388
VStation Altitude according to NAtChem Station Metadata
p389
sS'SYSTIME'
p390
g2
(g12
g13
(lp391
g15
(S'\x07\xde\x05\x01\x00\x00\x00\x00\x00\x00'
p392
tp393
Rp394
aNatp395
Rp396
(dp397
g22
S'[)'
p398
sbsS'SZ_DATATYPE'
p399
VDBL
p400
sS'SZ_COMMENT'
p401
Nstp402
Rp403
sVSTATION_CODE_NADP
p404
g2
(g3
g4
(dp405
S'SZ_TYPE'
p406
g404
sS'SZ_NAME'
p407
VNADP Station ID
p408
sS'SZ_DESC'
p409
NsS'SYSTIME'
p410
g2
(g12
g13
(lp411
g15
(S'\x07\xde\x05\x01\x00\x00\x00\x00\x00\x00'
p412
tp413
Rp414
aNatp415
Rp416
(dp417
g22
S'[)'
p418
sbsS'SZ_DATATYPE'
p419
VCHR
p420
sS'SZ_COMMENT'
p421
Nstp422
Rp423
sVSTATION_COASTAL_IND_NAtChem
p424
g2
(g3
g4
(dp425
S'SZ_TYPE'
p426
g424
sS'SZ_NAME'
p427
VCoastal Indicator (NAtChem)
p428
sS'SZ_DESC'
p429
VNAtChem: coastal indicator
p430
sS'SYSTIME'
p431
g2
(g12
g13
(lp432
g15
(S'\x07\xde\x05\x01\x00\x00\x00\x00\x00\x00'
p433
tp434
Rp435
aNatp436
Rp437
(dp438
g22
S'[)'
p439
sbsS'SZ_DATATYPE'
p440
VCHR
p441
sS'SZ_COMMENT'
p442
Nstp443
Rp444
sVSTATION_CODE_CAPMoN
p445
g2
(g3
g4
(dp446
S'SZ_TYPE'
p447
g445
sS'SZ_NAME'
p448
VCAPMoN Station ID
p449
sS'SZ_DESC'
p450
V3 char Station ID according to CAPMoN Station Metadata
p451
sS'SYSTIME'
p452
g2
(g12
g13
(lp453
g15
(S'\x07\xde\x05\x01\x00\x00\x00\x00\x00\x00'
p454
tp455
Rp456
aNatp457
Rp458
(dp459
g22
S'[)'
p460
sbsS'SZ_DATATYPE'
p461
VCHR
p462
sS'SZ_COMMENT'
p463
Nstp464
Rp465
sVSTATION_LON_IMPROVE
p466
g2
(g3
g4
(dp467
S'SZ_TYPE'
p468
g466
sS'SZ_NAME'
p469
VLongitude (IMPROVE Station)
p470
sS'SZ_DESC'
p471
VStation Longitude according to IMPROVE Station Metadata
p472
sS'SYSTIME'
p473
g2
(g12
g13
(lp474
g15
(S'\x07\xde\x05\x01\x00\x00\x00\x00\x00\x00'
p475
tp476
Rp477
aNatp478
Rp479
(dp480
g22
S'[)'
p481
sbsS'SZ_DATATYPE'
p482
VDBL
p483
sS'SZ_COMMENT'
p484
Nstp485
Rp486
sVCA_PROVINCE_2C
p487
g2
(g3
g4
(dp488
S'SZ_TYPE'
p489
g487
sS'SZ_NAME'
p490
VCA Province
p491
sS'SZ_DESC'
p492
VTwo character code for canadian provinces
p493
sS'SYSTIME'
p494
g2
(g12
g13
(lp495
g15
(S'\x07\xde\x05\x01\x00\x00\x00\x00\x00\x00'
p496
tp497
Rp498
aNatp499
Rp500
(dp501
g22
S'[)'
p502
sbsS'SZ_DATATYPE'
p503
VCHR
p504
sS'SZ_COMMENT'
p505
Nstp506
Rp507
sVSTATION_ENDDATE_NAtChem
p508
g2
(g3
g4
(dp509
S'SZ_TYPE'
p510
g508
sS'SZ_NAME'
p511
VEnddate (NAtChem)
p512
sS'SZ_DESC'
p513
VNAtChem: End of measurements at station
p514
sS'SYSTIME'
p515
g2
(g12
g13
(lp516
g15
(S'\x07\xde\x05\x01\x00\x00\x00\x00\x00\x00'
p517
tp518
Rp519
aNatp520
Rp521
(dp522
g22
S'[)'
p523
sbsS'SZ_DATATYPE'
p524
VDAT
p525
sS'SZ_COMMENT'
p526
Nstp527
Rp528
sVSTATION_CODE_NFPM
p529
g2
(g3
g4
(dp530
S'SZ_TYPE'
p531
g529
sS'SZ_NAME'
p532
VNFPM Station ID
p533
sS'SZ_DESC'
p534
V4-5 char Station ID according to NFPM Station Metadata
p535
sS'SYSTIME'
p536
g2
(g12
g13
(lp537
g15
(S'\x07\xde\x05\x01\x00\x00\x00\x00\x00\x00'
p538
tp539
Rp540
aNatp541
Rp542
(dp543
g22
S'[)'
p544
sbsS'SZ_DATATYPE'
p545
VCHR
p546
sS'SZ_COMMENT'
p547
Nstp548
Rp549
sVSTATION_ALT_NADP
p550
g2
(g3
g4
(dp551
S'SZ_TYPE'
p552
g550
sS'SZ_NAME'
p553
VAltitude (NADP Station)
p554
sS'SZ_DESC'
p555
VStation Altitude according to NADP Station Metadata
p556
sS'SYSTIME'
p557
g2
(g12
g13
(lp558
g15
(S'\x07\xde\x05\x01\x00\x00\x00\x00\x00\x00'
p559
tp560
Rp561
aNatp562
Rp563
(dp564
g22
S'[)'
p565
sbsS'SZ_DATATYPE'
p566
VDBL
p567
sS'SZ_COMMENT'
p568
Nstp569
Rp570
sVSTATION_LAT_NAtChem
p571
g2
(g3
g4
(dp572
S'SZ_TYPE'
p573
g571
sS'SZ_NAME'
p574
VLatitude (NAtChem Station)
p575
sS'SZ_DESC'
p576
VStation Latitude according to NAtChem Station Metadata
p577
sS'SYSTIME'
p578
g2
(g12
g13
(lp579
g15
(S'\x07\xde\x05\x01\x00\x00\x00\x00\x00\x00'
p580
tp581
Rp582
aNatp583
Rp584
(dp585
g22
S'[)'
p586
sbsS'SZ_DATATYPE'
p587
VDBL
p588
sS'SZ_COMMENT'
p589
Nstp590
Rp591
sVSTATION_CODE_NAtChem
p592
g2
(g3
g4
(dp593
S'SZ_TYPE'
p594
g592
sS'SZ_NAME'
p595
VNAtChem Station ID
p596
sS'SZ_DESC'
p597
NsS'SYSTIME'
p598
g2
(g12
g13
(lp599
g15
(S'\x07\xde\x05\x01\x00\x00\x00\x00\x00\x00'
p600
tp601
Rp602
aNatp603
Rp604
(dp605
g22
S'[)'
p606
sbsS'SZ_DATATYPE'
p607
VCHR
p608
sS'SZ_COMMENT'
p609
Nstp610
Rp611
sVSTATION_LAT_IMPROVE
p612
g2
(g3
g4
(dp613
S'SZ_TYPE'
p614
g612
sS'SZ_NAME'
p615
VLatitude (IMPROVE Station)
p616
sS'SZ_DESC'
p617
VStation Latitude according to IMPROVE Station Metadata
p618
sS'SYSTIME'
p619
g2
(g12
g13
(lp620
g15
(S'\x07\xde\x05\x01\x00\x00\x00\x00\x00\x00'
p621
tp622
Rp623
aNatp624
Rp625
(dp626
g22
S'[)'
p627
sbsS'SZ_DATATYPE'
p628
VDBL
p629
sS'SZ_COMMENT'
p630
Nstp631
Rp632
sVUS_COUNTY_NAME
p633
g2
(g3
g4
(dp634
S'SZ_TYPE'
p635
g633
sS'SZ_NAME'
p636
VUS County
p637
sS'SZ_DESC'
p638
NsS'SYSTIME'
p639
g2
(g12
g13
(lp640
g15
(S'\x07\xde\x05\x01\x00\x00\x00\x00\x00\x00'
p641
tp642
Rp643
aNatp644
Rp645
(dp646
g22
S'[)'
p647
sbsS'SZ_DATATYPE'
p648
VCHR
p649
sS'SZ_COMMENT'
p650
Nstp651
Rp652
sVSTATION_NAME_NAtChem
p653
g2
(g3
g4
(dp654
S'SZ_TYPE'
p655
g653
sS'SZ_NAME'
p656
VNAtChem Station Name
p657
sS'SZ_DESC'
p658
NsS'SYSTIME'
p659
g2
(g12
g13
(lp660
g15
(S'\x07\xde\x05\x01\x00\x00\x00\x00\x00\x00'
p661
tp662
Rp663
aNatp664
Rp665
(dp666
g22
S'[)'
p667
sbsS'SZ_DATATYPE'
p668
VCHR
p669
sS'SZ_COMMENT'
p670
Nstp671
Rp672
sVSTATION_STARTDATE_NAtChem
p673
g2
(g3
g4
(dp674
S'SZ_TYPE'
p675
g673
sS'SZ_NAME'
p676
VStartdate (NAtChem)
p677
sS'SZ_DESC'
p678
VNAtChem: Begin of measurements at station
p679
sS'SYSTIME'
p680
g2
(g12
g13
(lp681
g15
(S'\x07\xde\x05\x01\x00\x00\x00\x00\x00\x00'
p682
tp683
Rp684
aNatp685
Rp686
(dp687
g22
S'[)'
p688
sbsS'SZ_DATATYPE'
p689
VDAT
p690
sS'SZ_COMMENT'
p691
Nstp692
Rp693
sVSTATION_CODE_REPQ
p694
g2
(g3
g4
(dp695
S'SZ_TYPE'
p696
g694
sS'SZ_NAME'
p697
VREPQ Station ID
p698
sS'SZ_DESC'
p699
V7 char Station ID according to REPQ Station Metadata
p700
sS'SYSTIME'
p701
g2
(g12
g13
(lp702
g15
(S'\x07\xde\x05\x01\x00\x00\x00\x00\x00\x00'
p703
tp704
Rp705
aNatp706
Rp707
(dp708
g22
S'[)'
p709
sbsS'SZ_DATATYPE'
p710
VCHR
p711
sS'SZ_COMMENT'
p712
Nstp713
Rp714
s.