(dp0
VNot corrected for water vapor quenching in CLD
p1
ccopy_reg
_reconstructor
p2
(cnilutility.datatypes
DataObject
p3
c__builtin__
dict
p4
(dp5
S'WC_DESC'
p6
NsS'WC_COMMENT'
p7
NsS'WC_WATERVAPOR_CORRECTION'
p8
g1
sS'SYSTIME'
p9
g2
(cnilutility.datetime_helper
DatetimeInterval
p10
c__builtin__
list
p11
(lp12
cdatetime
datetime
p13
(S'\x07\xde\x05\x01\x00\x00\x00\x00\x00\x00'
p14
tp15
Rp16
aNatp17
Rp18
(dp19
S'bounds'
p20
S'[)'
p21
sbstp22
Rp23
sVCorrected for water vapor quenching in CLD
p24
g2
(g3
g4
(dp25
S'WC_DESC'
p26
NsS'WC_COMMENT'
p27
NsS'WC_WATERVAPOR_CORRECTION'
p28
g24
sS'SYSTIME'
p29
g2
(g10
g11
(lp30
g13
(S'\x07\xde\x05\x01\x00\x00\x00\x00\x00\x00'
p31
tp32
Rp33
aNatp34
Rp35
(dp36
g20
S'[)'
p37
sbstp38
Rp39
sVNot applicable as calibrated at ambient humidity
p40
g2
(g3
g4
(dp41
S'WC_DESC'
p42
NsS'WC_COMMENT'
p43
NsS'WC_WATERVAPOR_CORRECTION'
p44
g40
sS'SYSTIME'
p45
g2
(g10
g11
(lp46
g13
(S'\x07\xde\x05\x01\x00\x00\x00\x00\x00\x00'
p47
tp48
Rp49
aNatp50
Rp51
(dp52
g20
S'[)'
p53
sbstp54
Rp55
s.