(dp0
S'CHARACTERISTICS'
p1
(dp2
VRH base max
p3
ccopy_reg
_reconstructor
p4
(cnilutility.datatypes
DataObject
p5
c__builtin__
dict
p6
(dp7
S'CT_SEQ'
p8
I16
sS'CT_TYPE'
p9
g3
sS'CT_DATATYPE'
p10
VDBL
p11
sS'CT_UNIT'
p12
V%
p13
sS'SYSTIME'
p14
g4
(cnilutility.datetime_helper
DatetimeInterval
p15
c__builtin__
list
p16
(lp17
cdatetime
datetime
p18
(S'\x07\xde\x05\x01\x00\x00\x00\x00\x00\x00'
p19
tp20
Rp21
aNatp22
Rp23
(dp24
S'bounds'
p25
S'[)'
p26
sbstp27
Rp28
sVOrifice diameter
p29
g4
(g5
g6
(dp30
S'CT_SEQ'
p31
I30
sS'CT_TYPE'
p32
g29
sS'CT_DATATYPE'
p33
VDBL
p34
sS'CT_UNIT'
p35
Vum
p36
sS'SYSTIME'
p37
g4
(g15
g16
(lp38
g18
(S'\x07\xde\x05\x01\x00\x00\x00\x00\x00\x00'
p39
tp40
Rp41
aNatp42
Rp43
(dp44
g25
S'[)'
p45
sbstp46
Rp47
sVAssumption
p48
g4
(g5
g6
(dp49
S'CT_SEQ'
p50
I3
sS'CT_TYPE'
p51
g48
sS'CT_DATATYPE'
p52
VCHR
p53
sS'CT_UNIT'
p54
NsS'SYSTIME'
p55
g4
(g15
g16
(lp56
g18
(S'\x07\xde\x05\x01\x00\x00\x00\x00\x00\x00'
p57
tp58
Rp59
aNatp60
Rp61
(dp62
g25
S'[)'
p63
sbstp64
Rp65
sVArtifact
p66
g4
(g5
g6
(dp67
S'CT_SEQ'
p68
I27
sS'CT_TYPE'
p69
g66
sS'CT_DATATYPE'
p70
VCHR
p71
sS'CT_UNIT'
p72
NsS'SYSTIME'
p73
g4
(g15
g16
(lp74
g18
(S'\x07\xde\x05\x01\x00\x00\x00\x00\x00\x00'
p75
tp76
Rp77
aNatp78
Rp79
(dp80
g25
S'[)'
p81
sbstp82
Rp83
sVFraction
p84
g4
(g5
g6
(dp85
S'CT_SEQ'
p86
I29
sS'CT_TYPE'
p87
g84
sS'CT_DATATYPE'
p88
VCHR
p89
sS'CT_UNIT'
p90
NsS'SYSTIME'
p91
g4
(g15
g16
(lp92
g18
(S'\x07\xde\x05\x01\x00\x00\x00\x00\x00\x00'
p93
tp94
Rp95
aNatp96
Rp97
(dp98
g25
S'[)'
p99
sbstp100
Rp101
sVFlight
p102
g4
(g5
g6
(dp103
S'CT_SEQ'
p104
I35
sS'CT_TYPE'
p105
g102
sS'CT_DATATYPE'
p106
VCHR
p107
sS'CT_UNIT'
p108
NsS'SYSTIME'
p109
g4
(g15
g16
(lp110
g18
(S'\x07\xde\x05\x01\x00\x00\x00\x00\x00\x00'
p111
tp112
Rp113
aNatp114
Rp115
(dp116
g25
S'[)'
p117
sbstp118
Rp119
sVProfile height
p120
g4
(g5
g6
(dp121
S'CT_SEQ'
p122
I30
sS'CT_TYPE'
p123
g120
sS'CT_DATATYPE'
p124
VINT
p125
sS'CT_UNIT'
p126
Vm
p127
sS'SYSTIME'
p128
g4
(g15
g16
(lp129
g18
(S'\x07\xde\x05\x01\x00\x00\x00\x00\x00\x00'
p130
tp131
Rp132
aNatp133
Rp134
(dp135
g25
S'[)'
p136
sbstp137
Rp138
sVDmin
p139
g4
(g5
g6
(dp140
S'CT_SEQ'
p141
I22
sS'CT_TYPE'
p142
g139
sS'CT_DATATYPE'
p143
VDBL
p144
sS'CT_UNIT'
p145
Vnm
p146
sS'SYSTIME'
p147
g4
(g15
g16
(lp148
g18
(S'\x07\xde\x05\x01\x00\x00\x00\x00\x00\x00'
p149
tp150
Rp151
aNatp152
Rp153
(dp154
g25
S'[)'
p155
sbstp156
Rp157
sVRH base
p158
g4
(g5
g6
(dp159
S'CT_SEQ'
p160
I15
sS'CT_TYPE'
p161
g158
sS'CT_DATATYPE'
p162
VDBL
p163
sS'CT_UNIT'
p164
V%
p165
sS'SYSTIME'
p166
g4
(g15
g16
(lp167
g18
(S'\x07\xde\x05\x01\x00\x00\x00\x00\x00\x00'
p168
tp169
Rp170
aNatp171
Rp172
(dp173
g25
S'[)'
p174
sbstp175
Rp176
sVDmax
p177
g4
(g5
g6
(dp178
S'CT_SEQ'
p179
I24
sS'CT_TYPE'
p180
g177
sS'CT_DATATYPE'
p181
VDBL
p182
sS'CT_UNIT'
p183
Vnm
p184
sS'SYSTIME'
p185
g4
(g15
g16
(lp186
g18
(S'\x07\xde\x05\x01\x00\x00\x00\x00\x00\x00'
p187
tp188
Rp189
aNatp190
Rp191
(dp192
g25
S'[)'
p193
sbstp194
Rp195
sVRH
p196
g4
(g5
g6
(dp197
S'CT_SEQ'
p198
I18
sS'CT_TYPE'
p199
g196
sS'CT_DATATYPE'
p200
VDBL
p201
sS'CT_UNIT'
p202
V%
p203
sS'SYSTIME'
p204
g4
(g15
g16
(lp205
g18
(S'\x07\xde\x05\x01\x00\x00\x00\x00\x00\x00'
p206
tp207
Rp208
aNatp209
Rp210
(dp211
g25
S'[)'
p212
sbstp213
Rp214
sVD
p215
g4
(g5
g6
(dp216
S'CT_SEQ'
p217
I20
sS'CT_TYPE'
p218
g215
sS'CT_DATATYPE'
p219
VDBL
p220
sS'CT_UNIT'
p221
Vnm
p222
sS'SYSTIME'
p223
g4
(g15
g16
(lp224
g18
(S'\x07\xde\x05\x01\x00\x00\x00\x00\x00\x00'
p225
tp226
Rp227
aNatp228
Rp229
(dp230
g25
S'[)'
p231
sbstp232
Rp233
sVStatus type
p234
g4
(g5
g6
(dp235
S'CT_SEQ'
p236
I42
sS'CT_TYPE'
p237
g234
sS'CT_DATATYPE'
p238
VCHR
p239
sS'CT_UNIT'
p240
NsS'SYSTIME'
p241
g4
(g15
g16
(lp242
g18
(S'\x07\xde\x05\x01\x00\x00\x00\x00\x00\x00'
p243
tp244
Rp245
aNatp246
Rp247
(dp248
g25
S'[)'
p249
sbstp250
Rp251
sVWavelength min
p252
g4
(g5
g6
(dp253
S'CT_SEQ'
p254
I11
sS'CT_TYPE'
p255
g252
sS'CT_DATATYPE'
p256
VDBL
p257
sS'CT_UNIT'
p258
Vnm
p259
sS'SYSTIME'
p260
g4
(g15
g16
(lp261
g18
(S'\x07\xde\x05\x01\x00\x00\x00\x00\x00\x00'
p262
tp263
Rp264
aNatp265
Rp266
(dp267
g25
S'[)'
p268
sbstp269
Rp270
sVWavelength 2
p271
g4
(g5
g6
(dp272
S'CT_SEQ'
p273
I14
sS'CT_TYPE'
p274
g271
sS'CT_DATATYPE'
p275
VDBL
p276
sS'CT_UNIT'
p277
Vnm
p278
sS'SYSTIME'
p279
g4
(g15
g16
(lp280
g18
(S'\x07\xe7\t\x1a\x0c\x1b\t\x04\x01"'
p281
tp282
Rp283
aNatp284
Rp285
(dp286
g25
S'[)'
p287
sbstp288
Rp289
sVWavelength 1
p290
g4
(g5
g6
(dp291
S'CT_SEQ'
p292
I13
sS'CT_TYPE'
p293
g290
sS'CT_DATATYPE'
p294
VDBL
p295
sS'CT_UNIT'
p296
Vnm
p297
sS'SYSTIME'
p298
g4
(g15
g16
(lp299
g18
(S'\x07\xe7\t\x1a\x0c\x1b\t\x04\x01"'
p300
tp301
Rp302
aNatp303
Rp304
(dp305
g25
S'[)'
p306
sbstp307
Rp308
sVDilution
p309
g4
(g5
g6
(dp310
S'CT_SEQ'
p311
I29
sS'CT_TYPE'
p312
g309
sS'CT_DATATYPE'
p313
VCHR
p314
sS'CT_UNIT'
p315
NsS'SYSTIME'
p316
g4
(g15
g16
(lp317
g18
(S'\x07\xde\x05\x01\x00\x00\x00\x00\x00\x00'
p318
tp319
Rp320
aNatp321
Rp322
(dp323
g25
S'[)'
p324
sbstp325
Rp326
sVLocation
p327
g4
(g5
g6
(dp328
S'CT_SEQ'
p329
I40
sS'CT_TYPE'
p330
g327
sS'CT_DATATYPE'
p331
VCHR
p332
sS'CT_UNIT'
p333
NsS'SYSTIME'
p334
g4
(g15
g16
(lp335
g18
(S'\x07\xde\x05\x01\x00\x00\x00\x00\x00\x00'
p336
tp337
Rp338
aNatp339
Rp340
(dp341
g25
S'[)'
p342
sbstp343
Rp344
sVRH humidified
p345
g4
(g5
g6
(dp346
S'CT_SEQ'
p347
I17
sS'CT_TYPE'
p348
g345
sS'CT_DATATYPE'
p349
VDBL
p350
sS'CT_UNIT'
p351
V%
p352
sS'SYSTIME'
p353
g4
(g15
g16
(lp354
g18
(S'\x07\xde\x05\x01\x00\x00\x00\x00\x00\x00'
p355
tp356
Rp357
aNatp358
Rp359
(dp360
g25
S'[)'
p361
sbstp362
Rp363
sVSS
p364
g4
(g5
g6
(dp365
S'CT_SEQ'
p366
I25
sS'CT_TYPE'
p367
g364
sS'CT_DATATYPE'
p368
VDBL
p369
sS'CT_UNIT'
p370
V%
p371
sS'SYSTIME'
p372
g4
(g15
g16
(lp373
g18
(S'\x07\xde\x05\x01\x00\x00\x00\x00\x00\x00'
p374
tp375
Rp376
aNatp377
Rp378
(dp379
g25
S'[)'
p380
sbstp381
Rp382
sVCorrection
p383
g4
(g5
g6
(dp384
S'CT_SEQ'
p385
I28
sS'CT_TYPE'
p386
g383
sS'CT_DATATYPE'
p387
VCHR
p388
sS'CT_UNIT'
p389
NsS'SYSTIME'
p390
g4
(g15
g16
(lp391
g18
(S'\x07\xde\x05\x01\x00\x00\x00\x00\x00\x00'
p392
tp393
Rp394
aNatp395
Rp396
(dp397
g25
S'[)'
p398
sbstp399
Rp400
sVWavelength max
p401
g4
(g5
g6
(dp402
S'CT_SEQ'
p403
I12
sS'CT_TYPE'
p404
g401
sS'CT_DATATYPE'
p405
VDBL
p406
sS'CT_UNIT'
p407
Vnm
p408
sS'SYSTIME'
p409
g4
(g15
g16
(lp410
g18
(S'\x07\xde\x05\x01\x00\x00\x00\x00\x00\x00'
p411
tp412
Rp413
aNatp414
Rp415
(dp416
g25
S'[)'
p417
sbstp418
Rp419
sVReference component
p420
g4
(g5
g6
(dp421
S'CT_SEQ'
p422
I10
sS'CT_TYPE'
p423
g420
sS'CT_DATATYPE'
p424
VCHR
p425
sS'CT_UNIT'
p426
NsS'SYSTIME'
p427
g4
(g15
g16
(lp428
g18
(S'\x07\xde\x05\x01\x00\x00\x00\x00\x00\x00'
p429
tp430
Rp431
aNatp432
Rp433
(dp434
g25
S'[)'
p435
sbstp436
Rp437
sVTower inlet height
p438
g4
(g5
g6
(dp439
S'CT_SEQ'
p440
I5
sS'CT_TYPE'
p441
g438
sS'CT_DATATYPE'
p442
VDBL
p443
sS'CT_UNIT'
p444
Vm
p445
sS'SYSTIME'
p446
g4
(g15
g16
(lp447
g18
(S'\x07\xde\x05\x01\x00\x00\x00\x00\x00\x00'
p448
tp449
Rp450
aNatp451
Rp452
(dp453
g25
S'[)'
p454
sbstp455
Rp456
sVWavelength
p457
g4
(g5
g6
(dp458
S'CT_SEQ'
p459
I10
sS'CT_TYPE'
p460
g457
sS'CT_DATATYPE'
p461
VDBL
p462
sS'CT_UNIT'
p463
Vnm
p464
sS'SYSTIME'
p465
g4
(g15
g16
(lp466
g18
(S'\x07\xde\x05\x01\x00\x00\x00\x00\x00\x00'
p467
tp468
Rp469
aNatp470
Rp471
(dp472
g25
S'[)'
p473
sbstp474
Rp475
sVGust definition
p476
g4
(g5
g6
(dp477
S'CT_SEQ'
p478
I37
sS'CT_TYPE'
p479
g476
sS'CT_DATATYPE'
p480
VCHR
p481
sS'CT_UNIT'
p482
NsS'SYSTIME'
p483
g4
(g15
g16
(lp484
g18
(S'\x07\xde\x05\x01\x00\x00\x00\x00\x00\x00'
p485
tp486
Rp487
aNatp488
Rp489
(dp490
g25
S'[)'
p491
sbstp492
Rp493
ssS'SORTORDER'
p494
(lp495
g48
ag438
ag420
ag457
ag252
ag401
ag290
ag271
ag158
ag3
ag345
ag196
ag215
ag139
ag177
ag364
ag66
ag383
ag309
ag84
ag29
ag120
ag102
ag476
ag327
ag234
asS'VALIDITY'
p496
(lp497
(VArtifact
p498
Vfilter_1pack
p499
Vorganic_carbon
p500
tp501
a(VArtifact
p502
Vhigh_vol_sampler
p503
Vorganic_carbon
p504
tp505
a(VArtifact
p506
Vlow_vol_sampler
p507
Vorganic_carbon
p508
tp509
a(VArtifact
p510
Vlvs_denuder_tandem
p511
Vorganic_carbon
p512
tp513
a(VArtifact
p514
Vlvs_single
p515
Vorganic_carbon
p516
tp517
a(VArtifact
p518
Vlvs_single_twin
p519
Vorganic_carbon
p520
tp521
a(VArtifact
p522
Vonline_thermal-optical_analysis
p523
Vorganic_carbon
p524
tp525
a(VAssumption
p526
Vnephelometer
p527
Vpressure
p528
tp529
a(VCorrection
p530
Vcpc
p531
Vflow_rate
p532
tp533
a(VCorrection
p534
Vcpc
p535
Vparticle_number_concentration
p536
tp537
a(VD
p538
VDMPS-CCNC
p539
Vcloud_condensation_nuclei_number_size_distribution
p540
tp541
a(VD
p542
Vaps
p543
Vparticle_number_size_distribution
p544
tp545
a(VD
p546
Vdmps
p547
Vparticle_number_size_distribution
p548
tp549
a(VD
p550
Vnais
p551
Vpositive_ion_concentration
p552
tp553
a(VD
p554
Voptical_particle_size_spectrometer
p555
Vparticle_number_size_distribution
p556
tp557
a(VD
p558
Vsmps
p559
Vparticle_number_size_distribution
p560
tp561
a(VD
p562
Vtdmps
p563
Vparticle_number_size_distribution
p564
tp565
a(VD
p566
Vtsmps
p567
Vparticle_number_size_distribution
p568
tp569
a(VD
p570
Vv-smps
p571
Vparticle_number_size_distribution
p572
tp573
a(VD
p574
Vv-tdmps
p575
Vparticle_number_size_distribution
p576
tp577
a(VDilution
p578
Vcpc
p579
Vflow_rate
p580
tp581
a(VDilution
p582
Vcpc
p583
Vparticle_number_concentration
p584
tp585
a(VDmax
p586
VDMPS-CCNC
p587
Vcloud_condensation_nuclei_number_size_distribution
p588
tp589
a(VDmax
p590
Vaps
p591
Vparticle_number_size_distribution
p592
tp593
a(VDmax
p594
Vdmps
p595
Vparticle_number_size_distribution
p596
tp597
a(VDmax
p598
Vimpactor
p599
Vammonium
p600
tp601
a(VDmax
p602
Vimpactor
p603
Vcalcium
p604
tp605
a(VDmax
p606
Vimpactor
p607
Vcarbonate
p608
tp609
a(VDmax
p610
Vimpactor
p611
Vchloride
p612
tp613
a(VDmax
p614
Vimpactor
p615
Vmagnesium
p616
tp617
a(VDmax
p618
Vimpactor
p619
Vmethansulphonate
p620
tp621
a(VDmax
p622
Vimpactor
p623
Vnitrate
p624
tp625
a(VDmax
p626
Vimpactor
p627
Vorganic_carbon
p628
tp629
a(VDmax
p630
Vimpactor
p631
Voxalate
p632
tp633
a(VDmax
p634
Vimpactor
p635
Vpotassium
p636
tp637
a(VDmax
p638
Vimpactor
p639
Vsodium
p640
tp641
a(VDmax
p642
Vimpactor
p643
Vsulphate_total
p644
tp645
a(VDmax
p646
Vimpactor
p647
Vtotal_carbon
p648
tp649
a(VDmax
p650
Voptical_particle_size_spectrometer
p651
Vparticle_number_size_distribution
p652
tp653
a(VDmax
p654
Vsmps
p655
Vparticle_number_size_distribution
p656
tp657
a(VDmax
p658
Vtdmps
p659
Vparticle_number_size_distribution
p660
tp661
a(VDmax
p662
Vtsmps
p663
Vparticle_number_size_distribution
p664
tp665
a(VDmax
p666
Vv-smps
p667
Vparticle_number_size_distribution
p668
tp669
a(VDmax
p670
Vv-tdmps
p671
Vparticle_number_size_distribution
p672
tp673
a(VDmin
p674
VDMPS-CCNC
p675
Vcloud_condensation_nuclei_number_size_distribution
p676
tp677
a(VDmin
p678
Vaps
p679
Vparticle_number_size_distribution
p680
tp681
a(VDmin
p682
Vdmps
p683
Vparticle_number_size_distribution
p684
tp685
a(VDmin
p686
Vimpactor
p687
Vammonium
p688
tp689
a(VDmin
p690
Vimpactor
p691
Vcalcium
p692
tp693
a(VDmin
p694
Vimpactor
p695
Vcarbonate
p696
tp697
a(VDmin
p698
Vimpactor
p699
Vchloride
p700
tp701
a(VDmin
p702
Vimpactor
p703
Vmagnesium
p704
tp705
a(VDmin
p706
Vimpactor
p707
Vmethansulphonate
p708
tp709
a(VDmin
p710
Vimpactor
p711
Vnitrate
p712
tp713
a(VDmin
p714
Vimpactor
p715
Vorganic_carbon
p716
tp717
a(VDmin
p718
Vimpactor
p719
Voxalate
p720
tp721
a(VDmin
p722
Vimpactor
p723
Vpotassium
p724
tp725
a(VDmin
p726
Vimpactor
p727
Vsodium
p728
tp729
a(VDmin
p730
Vimpactor
p731
Vsulphate_total
p732
tp733
a(VDmin
p734
Vimpactor
p735
Vtotal_carbon
p736
tp737
a(VDmin
p738
Voptical_particle_size_spectrometer
p739
Vparticle_number_size_distribution
p740
tp741
a(VDmin
p742
Vsmps
p743
Vparticle_number_size_distribution
p744
tp745
a(VDmin
p746
Vtdmps
p747
Vparticle_number_size_distribution
p748
tp749
a(VDmin
p750
Vtsmps
p751
Vparticle_number_size_distribution
p752
tp753
a(VDmin
p754
Vv-smps
p755
Vparticle_number_size_distribution
p756
tp757
a(VDmin
p758
Vv-tdmps
p759
Vparticle_number_size_distribution
p760
tp761
a(VFlight
p762
VGC-ECD
p763
Vdinitrogen_monoxide
p764
tp765
a(VFlight
p766
VGC-ECD
p767
Vsulfur_hexafluoride
p768
tp769
a(VFlight
p770
VGC-FID
p771
Vcarbon_dioxide
p772
tp773
a(VFlight
p774
VGC-FID
p775
Vmethane
p776
tp777
a(VFlight
p778
VGC-FID
p779
Vpressure
p780
tp781
a(VFlight
p782
Vaircraft_system
p783
Valtitude
p784
tp785
a(VFlight
p786
Vaircraft_system
p787
Vlatitude
p788
tp789
a(VFlight
p790
Vaircraft_system
p791
Vlongitude
p792
tp793
a(VFlight
p794
Vaircraft_system
p795
Vpressure
p796
tp797
a(VFraction
p798
Vaerosol_mass_spectrometer
p799
Vammonium
p800
tp801
a(VFraction
p802
Vaerosol_mass_spectrometer
p803
Vchloride
p804
tp805
a(VFraction
p806
Vaerosol_mass_spectrometer
p807
Vnitrate
p808
tp809
a(VFraction
p810
Vaerosol_mass_spectrometer
p811
Vorganic_mass
p812
tp813
a(VFraction
p814
Vaerosol_mass_spectrometer
p815
Vsulphate_total
p816
tp817
a(VFraction
p818
Vfilter_1pack
p819
Velemental_carbon
p820
tp821
a(VFraction
p822
Vfilter_1pack
p823
Vorganic_carbon
p824
tp825
a(VFraction
p826
Vhigh_vol_sampler
p827
Velemental_carbon
p828
tp829
a(VFraction
p830
Vhigh_vol_sampler
p831
Vorganic_carbon
p832
tp833
a(VFraction
p834
Vlow_vol_sampler
p835
Velemental_carbon
p836
tp837
a(VFraction
p838
Vlow_vol_sampler
p839
Vorganic_carbon
p840
tp841
a(VFraction
p842
Vlvs_denuder_tandem
p843
Vorganic_carbon
p844
tp845
a(VFraction
p846
Vlvs_single
p847
Velemental_carbon
p848
tp849
a(VFraction
p850
Vlvs_single
p851
Vorganic_carbon
p852
tp853
a(VFraction
p854
Vlvs_single_twin
p855
Velemental_carbon
p856
tp857
a(VFraction
p858
Vlvs_single_twin
p859
Vorganic_carbon
p860
tp861
a(VFraction
p862
Vonline_thermal-optical_analysis
p863
Vorganic_carbon
p864
tp865
a(VGust definition
p866
Vaws
p867
Vwind_gust
p868
tp869
a(VLocation
p870
VCCNC
p871
Vpressure
p872
tp873
a(VLocation
p874
VCCNC
p875
Vtemperature
p876
tp877
a(VLocation
p878
VDMPS-CCNC
p879
Vpressure
p880
tp881
a(VLocation
p882
VDMPS-CCNC
p883
Vrelative_humidity
p884
tp885
a(VLocation
p886
VDMPS-CCNC
p887
Vtemperature
p888
tp889
a(VLocation
p890
VTEOM
p891
Vpressure
p892
tp893
a(VLocation
p894
VTEOM
p895
Vtemperature
p896
tp897
a(VLocation
p898
Vaerosol_mass_spectrometer
p899
Vpressure
p900
tp901
a(VLocation
p902
Vaerosol_mass_spectrometer
p903
Vrelative_humidity
p904
tp905
a(VLocation
p906
Vaerosol_mass_spectrometer
p907
Vtemperature
p908
tp909
a(VLocation
p910
Vaps
p911
Vpressure
p912
tp913
a(VLocation
p914
Vaps
p915
Vrelative_humidity
p916
tp917
a(VLocation
p918
Vaps
p919
Vtemperature
p920
tp921
a(VLocation
p922
Vbeta_gauge_particulate_sampler
p923
Vpressure
p924
tp925
a(VLocation
p926
Vbeta_gauge_particulate_sampler
p927
Vtemperature
p928
tp929
a(VLocation
p930
Vchemiluminescence_molybdenum
p931
Vpressure
p932
tp933
a(VLocation
p934
Vchemiluminescence_molybdenum
p935
Vrelative_humidity
p936
tp937
a(VLocation
p938
Vchemiluminescence_molybdenum
p939
Vtemperature
p940
tp941
a(VLocation
p942
Vchemiluminescence_photolytic
p943
Vpressure
p944
tp945
a(VLocation
p946
Vchemiluminescence_photolytic
p947
Vrelative_humidity
p948
tp949
a(VLocation
p950
Vchemiluminescence_photolytic
p951
Vtemperature
p952
tp953
a(VLocation
p954
Vcpc
p955
Vflow_rate
p956
tp957
a(VLocation
p958
Vcpc
p959
Vpressure
p960
tp961
a(VLocation
p962
Vcpc
p963
Vrelative_humidity
p964
tp965
a(VLocation
p966
Vcpc
p967
Vtemperature
p968
tp969
a(VLocation
p970
Vdmps
p971
Vflow_rate
p972
tp973
a(VLocation
p974
Vdmps
p975
Vpressure
p976
tp977
a(VLocation
p978
Vdmps
p979
Vrelative_humidity
p980
tp981
a(VLocation
p982
Vdmps
p983
Vtemperature
p984
tp985
a(VLocation
p986
Vfilter_absorption_photometer
p987
Vflow_rate
p988
tp989
a(VLocation
p990
Vfilter_absorption_photometer
p991
Vpressure
p992
tp993
a(VLocation
p994
Vfilter_absorption_photometer
p995
Vrelative_humidity
p996
tp997
a(VLocation
p998
Vfilter_absorption_photometer
p999
Vtemperature
p1000
tp1001
a(VLocation
p1002
Vhigh_vol_sampler
p1003
Vpressure
p1004
tp1005
a(VLocation
p1006
Vhigh_vol_sampler
p1007
Vtemperature
p1008
tp1009
a(VLocation
p1010
Vnephelometer
p1011
Vaerosol_light_backscattering_coefficient
p1012
tp1013
a(VLocation
p1014
Vnephelometer
p1015
Vaerosol_light_scattering_coefficient
p1016
tp1017
a(VLocation
p1018
Vnephelometer
p1019
Velectric_current
p1020
tp1021
a(VLocation
p1022
Vnephelometer
p1023
Velectric_tension
p1024
tp1025
a(VLocation
p1026
Vnephelometer
p1027
Vpressure
p1028
tp1029
a(VLocation
p1030
Vnephelometer
p1031
Vrelative_humidity
p1032
tp1033
a(VLocation
p1034
Vnephelometer
p1035
Vtemperature
p1036
tp1037
a(VLocation
p1038
Voptical_particle_counter
p1039
Vpressure
p1040
tp1041
a(VLocation
p1042
Voptical_particle_counter
p1043
Vrelative_humidity
p1044
tp1045
a(VLocation
p1046
Voptical_particle_counter
p1047
Vtemperature
p1048
tp1049
a(VLocation
p1050
Voptical_particle_size_spectrometer
p1051
Vpressure
p1052
tp1053
a(VLocation
p1054
Voptical_particle_size_spectrometer
p1055
Vrelative_humidity
p1056
tp1057
a(VLocation
p1058
Voptical_particle_size_spectrometer
p1059
Vtemperature
p1060
tp1061
a(VLocation
p1062
Vpollen_monitor
p1063
Vflow_rate
p1064
tp1065
a(VLocation
p1066
Vpollen_monitor
p1067
Vpressure
p1068
tp1069
a(VLocation
p1070
Vpollen_monitor
p1071
Vtemperature
p1072
tp1073
a(VLocation
p1074
Vsmps
p1075
Vflow_rate
p1076
tp1077
a(VLocation
p1078
Vsmps
p1079
Vpressure
p1080
tp1081
a(VLocation
p1082
Vsmps
p1083
Vrelative_humidity
p1084
tp1085
a(VLocation
p1086
Vsmps
p1087
Vtemperature
p1088
tp1089
a(VLocation
p1090
Vtdmps
p1091
Vflow_rate
p1092
tp1093
a(VLocation
p1094
Vtdmps
p1095
Vpressure
p1096
tp1097
a(VLocation
p1098
Vtdmps
p1099
Vrelative_humidity
p1100
tp1101
a(VLocation
p1102
Vtdmps
p1103
Vtemperature
p1104
tp1105
a(VLocation
p1106
Vtsmps
p1107
Vflow_rate
p1108
tp1109
a(VLocation
p1110
Vtsmps
p1111
Vpressure
p1112
tp1113
a(VLocation
p1114
Vtsmps
p1115
Vrelative_humidity
p1116
tp1117
a(VLocation
p1118
Vtsmps
p1119
Vtemperature
p1120
tp1121
a(VLocation
p1122
Vv-smps
p1123
Vflow_rate
p1124
tp1125
a(VLocation
p1126
Vv-smps
p1127
Vpressure
p1128
tp1129
a(VLocation
p1130
Vv-smps
p1131
Vrelative_humidity
p1132
tp1133
a(VLocation
p1134
Vv-smps
p1135
Vtemperature
p1136
tp1137
a(VLocation
p1138
Vv-tdmps
p1139
Vpressure
p1140
tp1141
a(VLocation
p1142
Vv-tdmps
p1143
Vrelative_humidity
p1144
tp1145
a(VLocation
p1146
Vv-tdmps
p1147
Vtemperature
p1148
tp1149
a(VOrifice diameter
p1150
Vaerosol_mass_spectrometer
p1151
Vpressure
p1152
tp1153
a(VProfile height
p1154
Vmaxdoas
p1155
Vaerosol_extinction_coefficient
p1156
tp1157
a(VRH
p1158
Vnephelometer
p1159
Vaerosol_light_backscattering_coefficient
p1160
tp1161
a(VRH
p1162
Vnephelometer
p1163
Vaerosol_light_scattering_coefficient
p1164
tp1165
a(VRH base
p1166
Vnephelometer
p1167
Vaerosol_light_backscattering_enhancement_factor
p1168
tp1169
a(VRH base
p1170
Vnephelometer
p1171
Vaerosol_light_scattering_enhancement_factor
p1172
tp1173
a(VRH base max
p1174
Vnephelometer
p1175
Vaerosol_light_backscattering_enhancement_factor
p1176
tp1177
a(VRH base max
p1178
Vnephelometer
p1179
Vaerosol_light_scattering_enhancement_factor
p1180
tp1181
a(VRH humidified
p1182
Vnephelometer
p1183
Vaerosol_light_backscattering_enhancement_factor
p1184
tp1185
a(VRH humidified
p1186
Vnephelometer
p1187
Vaerosol_light_scattering_enhancement_factor
p1188
tp1189
a(VReference component
p1190
Vaerosol_mass_spectrometer
p1191
Vrelative_ionization_efficiency
p1192
tp1193
a(VReference component
p1194
Vglass_flask
p1195
Vsample_count
p1196
tp1197
a(VSS
p1198
VCCNC
p1199
Vcloud_condensation_nuclei_number_concentration
p1200
tp1201
a(VSS
p1202
VDMPS-CCNC
p1203
Vcloud_condensation_nuclei_number_size_distribution
p1204
tp1205
a(VStatus type
p1206
Vdmps
p1207
Vstatus
p1208
tp1209
a(VStatus type
p1210
Vfilter_absorption_photometer
p1211
Vstatus
p1212
tp1213
a(VStatus type
p1214
Vnephelometer
p1215
Vstatus
p1216
tp1217
a(VStatus type
p1218
Vsmps
p1219
Vstatus
p1220
tp1221
a(VStatus type
p1222
Vtdmps
p1223
Vstatus
p1224
tp1225
a(VStatus type
p1226
Vtsmps
p1227
Vstatus
p1228
tp1229
a(VStatus type
p1230
Vv-smps
p1231
Vstatus
p1232
tp1233
a(VTower inlet height
p1234
Vaws
p1235
Vgust
p1236
tp1237
a(VTower inlet height
p1238
Vaws
p1239
Vpressure
p1240
tp1241
a(VTower inlet height
p1242
Vaws
p1243
Vrelative_humidity
p1244
tp1245
a(VTower inlet height
p1246
Vaws
p1247
Vtemperature
p1248
tp1249
a(VTower inlet height
p1250
Vaws
p1251
Vwind_direction
p1252
tp1253
a(VTower inlet height
p1254
Vaws
p1255
Vwind_speed
p1256
tp1257
a(VTower inlet height
p1258
Vonline_crds
p1259
Vcarbon_dioxide
p1260
tp1261
a(VTower inlet height
p1262
Vonline_crds
p1263
Vcarbon_monoxide
p1264
tp1265
a(VTower inlet height
p1266
Vonline_crds
p1267
Vmethane
p1268
tp1269
a(VTower inlet height
p1270
Vuv_abs
p1271
Vozone
p1272
tp1273
a(VWavelength
p1274
Vdmps
p1275
Vaerosol_light_backscattering_coefficient
p1276
tp1277
a(VWavelength
p1278
Vdmps
p1279
Vaerosol_light_scattering_coefficient
p1280
tp1281
a(VWavelength
p1282
Vfilter_absorption_photometer
p1283
Vaerosol_absorption_coefficient
p1284
tp1285
a(VWavelength
p1286
Vfilter_absorption_photometer
p1287
Vattenuation_coefficient
p1288
tp1289
a(VWavelength
p1290
Vfilter_absorption_photometer
p1291
Vbypass_fraction
p1292
tp1293
a(VWavelength
p1294
Vfilter_absorption_photometer
p1295
Vequivalent_black_carbon
p1296
tp1297
a(VWavelength
p1298
Vfilter_absorption_photometer
p1299
Vequivalent_black_carbon_mass
p1300
tp1301
a(VWavelength
p1302
Vfilter_absorption_photometer
p1303
Vreference_beam_signal
p1304
tp1305
a(VWavelength
p1306
Vfilter_absorption_photometer
p1307
Vreference_intensity
p1308
tp1309
a(VWavelength
p1310
Vfilter_absorption_photometer
p1311
Vreference_zero_signal
p1312
tp1313
a(VWavelength
p1314
Vfilter_absorption_photometer
p1315
Vsample_intensity
p1316
tp1317
a(VWavelength
p1318
Vfilter_absorption_photometer
p1319
Vsensing_beam_signal
p1320
tp1321
a(VWavelength
p1322
Vfilter_absorption_photometer
p1323
Vsensing_zero_signal
p1324
tp1325
a(VWavelength
p1326
Vfilter_absorption_photometer
p1327
Vtransmittance
p1328
tp1329
a(VWavelength
p1330
Vmaxdoas
p1331
Vaerosol_extinction_coefficient
p1332
tp1333
a(VWavelength
p1334
Vmaxdoas
p1335
Vaerosol_optical_depth
p1336
tp1337
a(VWavelength
p1338
Vmoon_tracking_filter_radiometer
p1339
Vaerosol_optical_depth
p1340
tp1341
a(VWavelength
p1342
Vmoon_tracking_filter_radiometer
p1343
Vsample_count
p1344
tp1345
a(VWavelength
p1346
Vnephelometer
p1347
Vaerosol_light_backscattering_coefficient
p1348
tp1349
a(VWavelength
p1350
Vnephelometer
p1351
Vaerosol_light_backscattering_coefficient_zero
p1352
tp1353
a(VWavelength
p1354
Vnephelometer
p1355
Vaerosol_light_backscattering_enhancement_factor
p1356
tp1357
a(VWavelength
p1358
Vnephelometer
p1359
Vaerosol_light_rayleighscattering_coefficient_zero
p1360
tp1361
a(VWavelength
p1362
Vnephelometer
p1363
Vaerosol_light_scattering_coefficient
p1364
tp1365
a(VWavelength
p1366
Vnephelometer
p1367
Vaerosol_light_scattering_coefficient_zero
p1368
tp1369
a(VWavelength
p1370
Vnephelometer
p1371
Vaerosol_light_scattering_enhancement_factor
p1372
tp1373
a(VWavelength
p1374
Vrotating_shadowband_spectral_radiometer
p1375
Vaerosol_optical_depth
p1376
tp1377
a(VWavelength
p1378
Vrotating_shadowband_spectral_radiometer
p1379
Vsample_count
p1380
tp1381
a(VWavelength
p1382
Vsmps
p1383
Vaerosol_light_backscattering_coefficient
p1384
tp1385
a(VWavelength
p1386
Vsmps
p1387
Vaerosol_light_scattering_coefficient
p1388
tp1389
a(VWavelength
p1390
Vsun_tracking_filter_radiometer
p1391
Vaerosol_optical_depth
p1392
tp1393
a(VWavelength
p1394
Vsun_tracking_filter_radiometer
p1395
Vsample_count
p1396
tp1397
a(VWavelength
p1398
Vtdmps
p1399
Vaerosol_light_backscattering_coefficient
p1400
tp1401
a(VWavelength
p1402
Vtdmps
p1403
Vaerosol_light_scattering_coefficient
p1404
tp1405
a(VWavelength
p1406
Vtsmps
p1407
Vaerosol_light_backscattering_coefficient
p1408
tp1409
a(VWavelength
p1410
Vtsmps
p1411
Vaerosol_light_scattering_coefficient
p1412
tp1413
a(VWavelength max
p1414
Vaws
p1415
VUVA_radiation
p1416
tp1417
a(VWavelength max
p1418
Vfilter_absorption_photometer
p1419
Vaerosol_absorption_coefficient
p1420
tp1421
a(VWavelength max
p1422
Vfilter_absorption_photometer
p1423
Vattenuation_coefficient
p1424
tp1425
a(VWavelength max
p1426
Vfilter_absorption_photometer
p1427
Vbypass_fraction
p1428
tp1429
a(VWavelength max
p1430
Vfilter_absorption_photometer
p1431
Vequivalent_black_carbon
p1432
tp1433
a(VWavelength max
p1434
Vfilter_absorption_photometer
p1435
Vequivalent_black_carbon_mass
p1436
tp1437
a(VWavelength max
p1438
Vfilter_absorption_photometer
p1439
Vreference_beam_signal
p1440
tp1441
a(VWavelength max
p1442
Vfilter_absorption_photometer
p1443
Vreference_intensity
p1444
tp1445
a(VWavelength max
p1446
Vfilter_absorption_photometer
p1447
Vreference_zero_signal
p1448
tp1449
a(VWavelength max
p1450
Vfilter_absorption_photometer
p1451
Vsample_intensity
p1452
tp1453
a(VWavelength max
p1454
Vfilter_absorption_photometer
p1455
Vsensing_beam_signal
p1456
tp1457
a(VWavelength max
p1458
Vfilter_absorption_photometer
p1459
Vsensing_zero_signal
p1460
tp1461
a(VWavelength max
p1462
Vfilter_absorption_photometer
p1463
Vtransmittance
p1464
tp1465
a(VWavelength min
p1466
Vaws
p1467
VUVA_radiation
p1468
tp1469
a(VWavelength min
p1470
Vfilter_absorption_photometer
p1471
Vaerosol_absorption_coefficient
p1472
tp1473
a(VWavelength min
p1474
Vfilter_absorption_photometer
p1475
Vattenuation_coefficient
p1476
tp1477
a(VWavelength min
p1478
Vfilter_absorption_photometer
p1479
Vbypass_fraction
p1480
tp1481
a(VWavelength min
p1482
Vfilter_absorption_photometer
p1483
Vequivalent_black_carbon
p1484
tp1485
a(VWavelength min
p1486
Vfilter_absorption_photometer
p1487
Vequivalent_black_carbon_mass
p1488
tp1489
a(VWavelength min
p1490
Vfilter_absorption_photometer
p1491
Vreference_beam_signal
p1492
tp1493
a(VWavelength min
p1494
Vfilter_absorption_photometer
p1495
Vreference_intensity
p1496
tp1497
a(VWavelength min
p1498
Vfilter_absorption_photometer
p1499
Vreference_zero_signal
p1500
tp1501
a(VWavelength min
p1502
Vfilter_absorption_photometer
p1503
Vsample_intensity
p1504
tp1505
a(VWavelength min
p1506
Vfilter_absorption_photometer
p1507
Vsensing_beam_signal
p1508
tp1509
a(VWavelength min
p1510
Vfilter_absorption_photometer
p1511
Vsensing_zero_signal
p1512
tp1513
a(VWavelength min
p1514
Vfilter_absorption_photometer
p1515
Vtransmittance
p1516
tp1517
a(VTower inlet height
p1518
Vonline_crds
p1519
Vwater_vapor
p1520
tp1521
a(VWavelength 1
p1522
Vfilter_absorption_photometer
p1523
Vaerosol_absorption_angstrom_exponent
p1524
tp1525
a(VWavelength 2
p1526
Vfilter_absorption_photometer
p1527
Vaerosol_absorption_angstrom_exponent
p1528
tp1529
a(VWavelength max
p1530
Vaws
p1531
Vdownward_solar_radiation_flux_density
p1532
tp1533
a(VWavelength min
p1534
Vaws
p1535
Vdownward_solar_radiation_flux_density
p1536
tp1537
a(VLocation
p1538
VPTR-MS
p1539
Vpressure
p1540
tp1541
a(VLocation
p1542
VPTR-MS
p1543
Vtemperature
p1544
tp1545
a(VLocation
p1546
Vcloud_light_scattering_photometer
p1547
Velectric_tension
p1548
tp1549
as.