(dp0
I0
ccopy_reg
_reconstructor
p1
(cnilutility.datatypes
DataObject
p2
c__builtin__
dict
p3
(dp4
S'FL_FLAG'
p5
I0
sS'FL_COMMENT'
p6
NsS'SYSTIME'
p7
g1
(cnilutility.datetime_helper
DatetimeInterval
p8
c__builtin__
list
p9
(lp10
cdatetime
datetime
p11
(S'\x07\xe9\x04\x08\x10\x00-\x08B\x0f'
p12
tp13
Rp14
aNatp15
Rp16
(dp17
S'bounds'
p18
S'[)'
p19
sbsS'FL_VALIDITY'
p20
VV
p21
sS'FL_DESC'
p22
VValid measurement
p23
stp24
Rp25
sI521
g1
(g2
g3
(dp26
S'FL_FLAG'
p27
I521
sS'FL_COMMENT'
p28
NsS'SYSTIME'
p29
g1
(g8
g9
(lp30
g11
(S'\x07\xde\x05\x01\x00\x00\x00\x00\x00\x00'
p31
tp32
Rp33
aNatp34
Rp35
(dp36
g18
S'[)'
p37
sbsS'FL_VALIDITY'
p38
VV
p39
sS'FL_DESC'
p40
VBactericide was added to sample for storage under warm climate. Considered valid
p41
stp42
Rp43
sI770
g1
(g2
g3
(dp44
S'FL_FLAG'
p45
I770
sS'FL_COMMENT'
p46
NsS'SYSTIME'
p47
g1
(g8
g9
(lp48
g11
(S'\x07\xde\x05\x01\x00\x00\x00\x00\x00\x00'
p49
tp50
Rp51
aNatp52
Rp53
(dp54
g18
S'[)'
p55
sbsS'FL_VALIDITY'
p56
VV
p57
sS'FL_DESC'
p58
VValue above range, data element contains estimated value
p59
stp60
Rp61
sI529
g1
(g2
g3
(dp62
S'FL_FLAG'
p63
I529
sS'FL_COMMENT'
p64
NsS'SYSTIME'
p65
g1
(g8
g9
(lp66
g11
(S'\x07\xe8\x0b\x19\t\x062\x0b\xc8z'
p67
tp68
Rp69
aNatp70
Rp71
(dp72
g18
S'[)'
p73
sbsS'FL_VALIDITY'
p74
VV
p75
sS'FL_DESC'
p76
VOC/EC split set in the He-mode
p77
stp78
Rp79
sI530
g1
(g2
g3
(dp80
S'FL_FLAG'
p81
I530
sS'FL_COMMENT'
p82
NsS'SYSTIME'
p83
g1
(g8
g9
(lp84
g11
(S'\x07\xde\x05\x01\x00\x00\x00\x00\x00\x00'
p85
tp86
Rp87
aNatp88
Rp89
(dp90
g18
S'[)'
p91
sbsS'FL_VALIDITY'
p92
VI
p93
sS'FL_DESC'
p94
VInvalid due to too low or too high recovery
p95
stp96
Rp97
sI531
g1
(g2
g3
(dp98
S'FL_FLAG'
p99
I531
sS'FL_COMMENT'
p100
NsS'SYSTIME'
p101
g1
(g8
g9
(lp102
g11
(S'\x07\xde\x05\x01\x00\x00\x00\x00\x00\x00'
p103
tp104
Rp105
aNatp106
Rp107
(dp108
g18
S'[)'
p109
sbsS'FL_VALIDITY'
p110
VV
p111
sS'FL_DESC'
p112
VRecovery anomaly, analysis inaccurate
p113
stp114
Rp115
sI532
g1
(g2
g3
(dp116
S'FL_FLAG'
p117
I532
sS'FL_COMMENT'
p118
NsS'SYSTIME'
p119
g1
(g8
g9
(lp120
g11
(S'\x07\xde\x05\x01\x00\x00\x00\x00\x00\x00'
p121
tp122
Rp123
aNatp124
Rp125
(dp126
g18
S'[)'
p127
sbsS'FL_VALIDITY'
p128
VV
p129
sS'FL_DESC'
p130
VData less accurate than normal due to high field blank value
p131
stp132
Rp133
sI533
g1
(g2
g3
(dp134
S'FL_FLAG'
p135
I533
sS'FL_COMMENT'
p136
NsS'SYSTIME'
p137
g1
(g8
g9
(lp138
g11
(S'\x07\xde\x05\x01\x00\x00\x00\x00\x00\x00'
p139
tp140
Rp141
aNatp142
Rp143
(dp144
g18
S'[)'
p145
sbsS'FL_VALIDITY'
p146
VI
p147
sS'FL_DESC'
p148
VFilters mixed up; incorrect analysis
p149
stp150
Rp151
sI534
g1
(g2
g3
(dp152
S'FL_FLAG'
p153
I534
sS'FL_COMMENT'
p154
NsS'SYSTIME'
p155
g1
(g8
g9
(lp156
g11
(S'\x07\xde\x05\x01\x00\x00\x00\x00\x00\x00'
p157
tp158
Rp159
aNatp160
Rp161
(dp162
g18
S'[)'
p163
sbsS'FL_VALIDITY'
p164
VI
p165
sS'FL_DESC'
p166
VWrong coated denuder used
p167
stp168
Rp169
sI540
g1
(g2
g3
(dp170
S'FL_FLAG'
p171
I540
sS'FL_COMMENT'
p172
NsS'SYSTIME'
p173
g1
(g8
g9
(lp174
g11
(S'\x07\xde\x05\x01\x00\x00\x00\x00\x00\x00'
p175
tp176
Rp177
aNatp178
Rp179
(dp180
g18
S'[)'
p181
sbsS'FL_VALIDITY'
p182
VI
p183
sS'FL_DESC'
p184
VSpectral interference in laboratory analysis
p185
stp186
Rp187
sI541
g1
(g2
g3
(dp188
S'FL_FLAG'
p189
I541
sS'FL_COMMENT'
p190
NsS'SYSTIME'
p191
g1
(g8
g9
(lp192
g11
(S'\x07\xde\x05\x01\x00\x00\x00\x00\x00\x00'
p193
tp194
Rp195
aNatp196
Rp197
(dp198
g18
S'[)'
p199
sbsS'FL_VALIDITY'
p200
VI
p201
sS'FL_DESC'
p202
VGold trap passiviated by unknown compound
p203
stp204
Rp205
sI549
g1
(g2
g3
(dp206
S'FL_FLAG'
p207
I549
sS'FL_COMMENT'
p208
NsS'SYSTIME'
p209
g1
(g8
g9
(lp210
g11
(S'\x07\xde\x05\x01\x00\x00\x00\x00\x00\x00'
p211
tp212
Rp213
aNatp214
Rp215
(dp216
g18
S'[)'
p217
sbsS'FL_VALIDITY'
p218
VI
p219
sS'FL_DESC'
p220
VImpure chemicals
p221
stp222
Rp223
sI555
g1
(g2
g3
(dp224
S'FL_FLAG'
p225
I555
sS'FL_COMMENT'
p226
NsS'SYSTIME'
p227
g1
(g8
g9
(lp228
g11
(S'\x07\xde\x05\x01\x00\x00\x00\x00\x00\x00'
p229
tp230
Rp231
aNatp232
Rp233
(dp234
g18
S'[)'
p235
sbsS'FL_VALIDITY'
p236
VV
p237
sS'FL_DESC'
p238
VPollen and/or leaf contamination, but considered valid
p239
stp240
Rp241
sI556
g1
(g2
g3
(dp242
S'FL_FLAG'
p243
I556
sS'FL_COMMENT'
p244
NsS'SYSTIME'
p245
g1
(g8
g9
(lp246
g11
(S'\x07\xde\x05\x01\x00\x00\x00\x00\x00\x00'
p247
tp248
Rp249
aNatp250
Rp251
(dp252
g18
S'[)'
p253
sbsS'FL_VALIDITY'
p254
VV
p255
sS'FL_DESC'
p256
VBird droppings, but considered valid
p257
stp258
Rp259
sI557
g1
(g2
g3
(dp260
S'FL_FLAG'
p261
I557
sS'FL_COMMENT'
p262
NsS'SYSTIME'
p263
g1
(g8
g9
(lp264
g11
(S'\x07\xde\x05\x01\x00\x00\x00\x00\x00\x00'
p265
tp266
Rp267
aNatp268
Rp269
(dp270
g18
S'[)'
p271
sbsS'FL_VALIDITY'
p272
VV
p273
sS'FL_DESC'
p274
VInsect contamination, but considered valid
p275
stp276
Rp277
sI558
g1
(g2
g3
(dp278
S'FL_FLAG'
p279
I558
sS'FL_COMMENT'
p280
NsS'SYSTIME'
p281
g1
(g8
g9
(lp282
g11
(S'\x07\xde\x05\x01\x00\x00\x00\x00\x00\x00'
p283
tp284
Rp285
aNatp286
Rp287
(dp288
g18
S'[)'
p289
sbsS'FL_VALIDITY'
p290
VV
p291
sS'FL_DESC'
p292
VDust contamination, but considered valid
p293
stp294
Rp295
sI559
g1
(g2
g3
(dp296
S'FL_FLAG'
p297
I559
sS'FL_COMMENT'
p298
NsS'SYSTIME'
p299
g1
(g8
g9
(lp300
g11
(S'\x07\xde\x05\x01\x00\x00\x00\x00\x00\x00'
p301
tp302
Rp303
aNatp304
Rp305
(dp306
g18
S'[)'
p307
sbsS'FL_VALIDITY'
p308
VV
p309
sS'FL_DESC'
p310
VUnspecified contamination or local influence, but considered valid
p311
stp312
Rp313
sI565
g1
(g2
g3
(dp314
S'FL_FLAG'
p315
I565
sS'FL_COMMENT'
p316
NsS'SYSTIME'
p317
g1
(g8
g9
(lp318
g11
(S'\x07\xde\x05\x01\x00\x00\x00\x00\x00\x00'
p319
tp320
Rp321
aNatp322
Rp323
(dp324
g18
S'[)'
p325
sbsS'FL_VALIDITY'
p326
VI
p327
sS'FL_DESC'
p328
VPollen and/or leaf contamination, considered invalid
p329
stp330
Rp331
sI566
g1
(g2
g3
(dp332
S'FL_FLAG'
p333
I566
sS'FL_COMMENT'
p334
NsS'SYSTIME'
p335
g1
(g8
g9
(lp336
g11
(S'\x07\xde\x05\x01\x00\x00\x00\x00\x00\x00'
p337
tp338
Rp339
aNatp340
Rp341
(dp342
g18
S'[)'
p343
sbsS'FL_VALIDITY'
p344
VI
p345
sS'FL_DESC'
p346
VBird droppings, considered invalid
p347
stp348
Rp349
sI567
g1
(g2
g3
(dp350
S'FL_FLAG'
p351
I567
sS'FL_COMMENT'
p352
NsS'SYSTIME'
p353
g1
(g8
g9
(lp354
g11
(S'\x07\xde\x05\x01\x00\x00\x00\x00\x00\x00'
p355
tp356
Rp357
aNatp358
Rp359
(dp360
g18
S'[)'
p361
sbsS'FL_VALIDITY'
p362
VI
p363
sS'FL_DESC'
p364
VInsect contamination, considered invalid
p365
stp366
Rp367
sI568
g1
(g2
g3
(dp368
S'FL_FLAG'
p369
I568
sS'FL_COMMENT'
p370
NsS'SYSTIME'
p371
g1
(g8
g9
(lp372
g11
(S'\x07\xde\x05\x01\x00\x00\x00\x00\x00\x00'
p373
tp374
Rp375
aNatp376
Rp377
(dp378
g18
S'[)'
p379
sbsS'FL_VALIDITY'
p380
VI
p381
sS'FL_DESC'
p382
VDust contamination, considered invalid
p383
stp384
Rp385
sI701
g1
(g2
g3
(dp386
S'FL_FLAG'
p387
I701
sS'FL_COMMENT'
p388
NsS'SYSTIME'
p389
g1
(g8
g9
(lp390
g11
(S'\x07\xde\x05\x01\x00\x00\x00\x00\x00\x00'
p391
tp392
Rp393
aNatp394
Rp395
(dp396
g18
S'[)'
p397
sbsS'FL_VALIDITY'
p398
VI
p399
sS'FL_DESC'
p400
VLess accurate than usual, unspecified reason. (Used only with old data, for new data see groups 6 and 5)
p401
stp402
Rp403
sI578
g1
(g2
g3
(dp404
S'FL_FLAG'
p405
I578
sS'FL_COMMENT'
p406
NsS'SYSTIME'
p407
g1
(g8
g9
(lp408
g11
(S'\x07\xde\x05\x01\x00\x00\x00\x00\x00\x00'
p409
tp410
Rp411
aNatp412
Rp413
(dp414
g18
S'[)'
p415
sbsS'FL_VALIDITY'
p416
VI
p417
sS'FL_DESC'
p418
VLarge sea salt contribution (ratio between marine and excess sulphate is larger than 2.0). Used for old data only. For newer data use 451/450.
p419
stp420
Rp421
sI591
g1
(g2
g3
(dp422
S'FL_FLAG'
p423
I591
sS'FL_COMMENT'
p424
NsS'SYSTIME'
p425
g1
(g8
g9
(lp426
g11
(S'\x07\xde\x05\x01\x00\x00\x00\x00\x00\x00'
p427
tp428
Rp429
aNatp430
Rp431
(dp432
g18
S'[)'
p433
sbsS'FL_VALIDITY'
p434
VI
p435
sS'FL_DESC'
p436
VAgricultural contamination, considered invalid
p437
stp438
Rp439
sI593
g1
(g2
g3
(dp440
S'FL_FLAG'
p441
I593
sS'FL_COMMENT'
p442
NsS'SYSTIME'
p443
g1
(g8
g9
(lp444
g11
(S'\x07\xde\x05\x01\x00\x00\x00\x00\x00\x00'
p445
tp446
Rp447
aNatp448
Rp449
(dp450
g18
S'[)'
p451
sbsS'FL_VALIDITY'
p452
VI
p453
sS'FL_DESC'
p454
VIndustrial contamination, considered invalid
p455
stp456
Rp457
sI599
g1
(g2
g3
(dp458
S'FL_FLAG'
p459
I599
sS'FL_COMMENT'
p460
NsS'SYSTIME'
p461
g1
(g8
g9
(lp462
g11
(S'\x07\xde\x05\x01\x00\x00\x00\x00\x00\x00'
p463
tp464
Rp465
aNatp466
Rp467
(dp468
g18
S'[)'
p469
sbsS'FL_VALIDITY'
p470
VI
p471
sS'FL_DESC'
p472
VUnspecified contamination or local influence
p473
stp474
Rp475
sI771
g1
(g2
g3
(dp476
S'FL_FLAG'
p477
I771
sS'FL_COMMENT'
p478
NsS'SYSTIME'
p479
g1
(g8
g9
(lp480
g11
(S'\x07\xde\x05\x01\x00\x00\x00\x00\x00\x00'
p481
tp482
Rp483
aNatp484
Rp485
(dp486
g18
S'[)'
p487
sbsS'FL_VALIDITY'
p488
VV
p489
sS'FL_DESC'
p490
VValue above range, data element contains upper range limit
p491
stp492
Rp493
sI698
g1
(g2
g3
(dp494
S'FL_FLAG'
p495
I698
sS'FL_COMMENT'
p496
NsS'SYSTIME'
p497
g1
(g8
g9
(lp498
g11
(S'\x07\xe9\x06\x18\r\x1a\x0e\x00\xbd\x89'
p499
tp500
Rp501
aNatp502
Rp503
(dp504
g18
S'[)'
p505
sbsS'FL_VALIDITY'
p506
VV
p507
sS'FL_DESC'
p508
VMechanical problem, unspecified reason
p509
stp510
Rp511
sI699
g1
(g2
g3
(dp512
S'FL_FLAG'
p513
I699
sS'FL_COMMENT'
p514
NsS'SYSTIME'
p515
g1
(g8
g9
(lp516
g11
(S'\x07\xde\x05\x01\x00\x00\x00\x00\x00\x00'
p517
tp518
Rp519
aNatp520
Rp521
(dp522
g18
S'[)'
p523
sbsS'FL_VALIDITY'
p524
VI
p525
sS'FL_DESC'
p526
VMechanical problem, unspecified reason
p527
stp528
Rp529
sI100
g1
(g2
g3
(dp530
S'FL_FLAG'
p531
I100
sS'FL_COMMENT'
p532
NsS'SYSTIME'
p533
g1
(g8
g9
(lp534
g11
(S'\x07\xde\x05\x01\x00\x00\x00\x00\x00\x00'
p535
tp536
Rp537
aNatp538
Rp539
(dp540
g18
S'[)'
p541
sbsS'FL_VALIDITY'
p542
VV
p543
sS'FL_DESC'
p544
VChecked by data originator. Valid measurement, overrides any invalid flags
p545
stp546
Rp547
sI101
g1
(g2
g3
(dp548
S'FL_FLAG'
p549
I101
sS'FL_COMMENT'
p550
NsS'SYSTIME'
p551
g1
(g8
g9
(lp552
g11
(S'\x07\xde\x05\x01\x00\x00\x00\x00\x00\x00'
p553
tp554
Rp555
aNatp556
Rp557
(dp558
g18
S'[)'
p559
sbsS'FL_VALIDITY'
p560
VV
p561
sS'FL_DESC'
p562
VDenuder capture efficiency < 75%. Valid measurement
p563
stp564
Rp565
sI102
g1
(g2
g3
(dp566
S'FL_FLAG'
p567
I102
sS'FL_COMMENT'
p568
NsS'SYSTIME'
p569
g1
(g8
g9
(lp570
g11
(S'\x07\xde\x05\x01\x00\x00\x00\x00\x00\x00'
p571
tp572
Rp573
aNatp574
Rp575
(dp576
g18
S'[)'
p577
sbsS'FL_VALIDITY'
p578
VV
p579
sS'FL_DESC'
p580
VCV of replicate diffusion tubes > 30 %. Valid measurement
p581
stp582
Rp583
sI103
g1
(g2
g3
(dp584
S'FL_FLAG'
p585
I103
sS'FL_COMMENT'
p586
NsS'SYSTIME'
p587
g1
(g8
g9
(lp588
g11
(S'\x07\xde\x05\x01\x00\x00\x00\x00\x00\x00'
p589
tp590
Rp591
aNatp592
Rp593
(dp594
g18
S'[)'
p595
sbsS'FL_VALIDITY'
p596
VV
p597
sS'FL_DESC'
p598
VCV of replicate ALPHA samplers > 15 %. Valid measurement
p599
stp600
Rp601
sI620
g1
(g2
g3
(dp602
S'FL_FLAG'
p603
I620
sS'FL_COMMENT'
p604
NsS'SYSTIME'
p605
g1
(g8
g9
(lp606
g11
(S'\x07\xde\x05\x01\x00\x00\x00\x00\x00\x00'
p607
tp608
Rp609
aNatp610
Rp611
(dp612
g18
S'[)'
p613
sbsS'FL_VALIDITY'
p614
VI
p615
sS'FL_DESC'
p616
VToo high filter breakthrough, considered invalid
p617
stp618
Rp619
sI110
g1
(g2
g3
(dp620
S'FL_FLAG'
p621
I110
sS'FL_COMMENT'
p622
NsS'SYSTIME'
p623
g1
(g8
g9
(lp624
g11
(S'\x07\xde\x05\x01\x00\x00\x00\x00\x00\x00'
p625
tp626
Rp627
aNatp628
Rp629
(dp630
g18
S'[)'
p631
sbsS'FL_VALIDITY'
p632
VV
p633
sS'FL_DESC'
p634
VEpisode data checked and accepted by data originator. Valid measurement
p635
stp636
Rp637
sI111
g1
(g2
g3
(dp638
S'FL_FLAG'
p639
I111
sS'FL_COMMENT'
p640
NsS'SYSTIME'
p641
g1
(g8
g9
(lp642
g11
(S'\x07\xde\x05\x01\x00\x00\x00\x00\x00\x00'
p643
tp644
Rp645
aNatp646
Rp647
(dp648
g18
S'[)'
p649
sbsS'FL_VALIDITY'
p650
VV
p651
sS'FL_DESC'
p652
VIrregular data checked and accepted by data originator. Valid measurement
p653
stp654
Rp655
sI630
g1
(g2
g3
(dp656
S'FL_FLAG'
p657
I630
sS'FL_COMMENT'
p658
NsS'SYSTIME'
p659
g1
(g8
g9
(lp660
g11
(S'\x07\xde\x05\x01\x00\x00\x00\x00\x00\x00'
p661
tp662
Rp663
aNatp664
Rp665
(dp666
g18
S'[)'
p667
sbsS'FL_VALIDITY'
p668
VV
p669
sS'FL_DESC'
p670
VConcentration of gas phase only (aerosol + gas sampler)
p671
stp672
Rp673
sI631
g1
(g2
g3
(dp674
S'FL_FLAG'
p675
I631
sS'FL_COMMENT'
p676
NsS'SYSTIME'
p677
g1
(g8
g9
(lp678
g11
(S'\x07\xde\x05\x01\x00\x00\x00\x00\x00\x00'
p679
tp680
Rp681
aNatp682
Rp683
(dp684
g18
S'[)'
p685
sbsS'FL_VALIDITY'
p686
VV
p687
sS'FL_DESC'
p688
VConcentration of aerosol phase only (aerosol + gas sampler)
p689
stp690
Rp691
sI120
g1
(g2
g3
(dp692
S'FL_FLAG'
p693
I120
sS'FL_COMMENT'
p694
NsS'SYSTIME'
p695
g1
(g8
g9
(lp696
g11
(S'\x07\xde\x05\x01\x00\x00\x00\x00\x00\x00'
p697
tp698
Rp699
aNatp700
Rp701
(dp702
g18
S'[)'
p703
sbsS'FL_VALIDITY'
p704
VV
p705
sS'FL_DESC'
p706
VSample reanalysed with similar results. Valid measurement
p707
stp708
Rp709
sI635
g1
(g2
g3
(dp710
S'FL_FLAG'
p711
I635
sS'FL_COMMENT'
p712
NsS'SYSTIME'
p713
g1
(g8
g9
(lp714
g11
(S'\x07\xde\x05\x01\x00\x00\x00\x00\x00\x00'
p715
tp716
Rp717
aNatp718
Rp719
(dp720
g18
S'[)'
p721
sbsS'FL_VALIDITY'
p722
VI
p723
sS'FL_DESC'
p724
V Internal temperatures too far off target value, considered invalid
p725
stp726
Rp727
sI640
g1
(g2
g3
(dp728
S'FL_FLAG'
p729
I640
sS'FL_COMMENT'
p730
NsS'SYSTIME'
p731
g1
(g8
g9
(lp732
g11
(S'\x07\xde\x05\x01\x00\x00\x00\x00\x00\x00'
p733
tp734
Rp735
aNatp736
Rp737
(dp738
g18
S'[)'
p739
sbsS'FL_VALIDITY'
p740
VV
p741
sS'FL_DESC'
p742
VInstrument internal relative humidity above 40%
p743
stp744
Rp745
sI641
g1
(g2
g3
(dp746
S'FL_FLAG'
p747
I641
sS'FL_COMMENT'
p748
NsS'SYSTIME'
p749
g1
(g8
g9
(lp750
g11
(S'\x07\xde\x05\x01\x00\x00\x00\x00\x00\x00'
p751
tp752
Rp753
aNatp754
Rp755
(dp756
g18
S'[)'
p757
sbsS'FL_VALIDITY'
p758
VI
p759
sS'FL_DESC'
p760
VAerosol filters installed incorrectly
p761
stp762
Rp763
sI644
g1
(g2
g3
(dp764
S'FL_FLAG'
p765
I644
sS'FL_COMMENT'
p766
NsS'SYSTIME'
p767
g1
(g8
g9
(lp768
g11
(S'\x07\xde\x05\x01\x00\x00\x00\x00\x00\x00'
p769
tp770
Rp771
aNatp772
Rp773
(dp774
g18
S'[)'
p775
sbsS'FL_VALIDITY'
p776
VV
p777
sS'FL_DESC'
p778
VLow instrument precision and/or calibration issues
p779
stp780
Rp781
sI645
g1
(g2
g3
(dp782
S'FL_FLAG'
p783
I645
sS'FL_COMMENT'
p784
NsS'SYSTIME'
p785
g1
(g8
g9
(lp786
g11
(S'\x07\xde\x05\x01\x00\x00\x00\x00\x00\x00'
p787
tp788
Rp789
aNatp790
Rp791
(dp792
g18
S'[)'
p793
sbsS'FL_VALIDITY'
p794
VV
p795
sS'FL_DESC'
p796
VExceptional traffic nearby
p797
stp798
Rp799
sI646
g1
(g2
g3
(dp800
S'FL_FLAG'
p801
I646
sS'FL_COMMENT'
p802
NsS'SYSTIME'
p803
g1
(g8
g9
(lp804
g11
(S'\x07\xde\x05\x01\x00\x00\x00\x00\x00\x00'
p805
tp806
Rp807
aNatp808
Rp809
(dp810
g18
S'[)'
p811
sbsS'FL_VALIDITY'
p812
VI
p813
sS'FL_DESC'
p814
VExceptional traffic nearby
p815
stp816
Rp817
sI647
g1
(g2
g3
(dp818
S'FL_FLAG'
p819
I647
sS'FL_COMMENT'
p820
NsS'SYSTIME'
p821
g1
(g8
g9
(lp822
g11
(S'\x07\xde\x05\x01\x00\x00\x00\x00\x00\x00'
p823
tp824
Rp825
aNatp826
Rp827
(dp828
g18
S'[)'
p829
sbsS'FL_VALIDITY'
p830
VV
p831
sS'FL_DESC'
p832
VFire/wood burning nearby
p833
stp834
Rp835
sI648
g1
(g2
g3
(dp836
S'FL_FLAG'
p837
I648
sS'FL_COMMENT'
p838
NsS'SYSTIME'
p839
g1
(g8
g9
(lp840
g11
(S'\x07\xde\x05\x01\x00\x00\x00\x00\x00\x00'
p841
tp842
Rp843
aNatp844
Rp845
(dp846
g18
S'[)'
p847
sbsS'FL_VALIDITY'
p848
VV
p849
sS'FL_DESC'
p850
VSnow sampler
p851
stp852
Rp853
sI649
g1
(g2
g3
(dp854
S'FL_FLAG'
p855
I649
sS'FL_COMMENT'
p856
NsS'SYSTIME'
p857
g1
(g8
g9
(lp858
g11
(S'\x07\xde\x05\x01\x00\x00\x00\x00\x00\x00'
p859
tp860
Rp861
aNatp862
Rp863
(dp864
g18
S'[)'
p865
sbsS'FL_VALIDITY'
p866
VV
p867
sS'FL_DESC'
p868
VTemporary power fail has affected sampler operation
p869
stp870
Rp871
sI650
g1
(g2
g3
(dp872
S'FL_FLAG'
p873
I650
sS'FL_COMMENT'
p874
NsS'SYSTIME'
p875
g1
(g8
g9
(lp876
g11
(S'\x07\xde\x05\x01\x00\x00\x00\x00\x00\x00'
p877
tp878
Rp879
aNatp880
Rp881
(dp882
g18
S'[)'
p883
sbsS'FL_VALIDITY'
p884
VV
p885
sS'FL_DESC'
p886
VPrecipitation collector failure
p887
stp888
Rp889
sI651
g1
(g2
g3
(dp890
S'FL_FLAG'
p891
I651
sS'FL_COMMENT'
p892
NsS'SYSTIME'
p893
g1
(g8
g9
(lp894
g11
(S'\x07\xde\x05\x01\x00\x00\x00\x00\x00\x00'
p895
tp896
Rp897
aNatp898
Rp899
(dp900
g18
S'[)'
p901
sbsS'FL_VALIDITY'
p902
VV
p903
sS'FL_DESC'
p904
VAgricultural activity nearby
p905
stp906
Rp907
sI652
g1
(g2
g3
(dp908
S'FL_FLAG'
p909
I652
sS'FL_COMMENT'
p910
NsS'SYSTIME'
p911
g1
(g8
g9
(lp912
g11
(S'\x07\xde\x05\x01\x00\x00\x00\x00\x00\x00'
p913
tp914
Rp915
aNatp916
Rp917
(dp918
g18
S'[)'
p919
sbsS'FL_VALIDITY'
p920
VV
p921
sS'FL_DESC'
p922
VConstruction/acitivity nearby
p923
stp924
Rp925
sI653
g1
(g2
g3
(dp926
S'FL_FLAG'
p927
I653
sS'FL_COMMENT'
p928
NsS'SYSTIME'
p929
g1
(g8
g9
(lp930
g11
(S'\x07\xde\x05\x01\x00\x00\x00\x00\x00\x00'
p931
tp932
Rp933
aNatp934
Rp935
(dp936
g18
S'[)'
p937
sbsS'FL_VALIDITY'
p938
VV
p939
sS'FL_DESC'
p940
VSampling period shorter than normal, considered representative. Observed values reported
p941
stp942
Rp943
sI654
g1
(g2
g3
(dp944
S'FL_FLAG'
p945
I654
sS'FL_COMMENT'
p946
NsS'SYSTIME'
p947
g1
(g8
g9
(lp948
g11
(S'\x07\xde\x05\x01\x00\x00\x00\x00\x00\x00'
p949
tp950
Rp951
aNatp952
Rp953
(dp954
g18
S'[)'
p955
sbsS'FL_VALIDITY'
p956
VV
p957
sS'FL_DESC'
p958
VSampling period longer than normal, considered representative. Observed values reported
p959
stp960
Rp961
sI655
g1
(g2
g3
(dp962
S'FL_FLAG'
p963
I655
sS'FL_COMMENT'
p964
NsS'SYSTIME'
p965
g1
(g8
g9
(lp966
g11
(S'\x07\xde\x05\x01\x00\x00\x00\x00\x00\x00'
p967
tp968
Rp969
aNatp970
Rp971
(dp972
g18
S'[)'
p973
sbsS'FL_VALIDITY'
p974
VV
p975
sS'FL_DESC'
p976
VEstimated value created by averaging or spliting samples
p977
stp978
Rp979
sI656
g1
(g2
g3
(dp980
S'FL_FLAG'
p981
I656
sS'FL_COMMENT'
p982
NsS'SYSTIME'
p983
g1
(g8
g9
(lp984
g11
(S'\x07\xde\x05\x01\x00\x00\x00\x00\x00\x00'
p985
tp986
Rp987
aNatp988
Rp989
(dp990
g18
S'[)'
p991
sbsS'FL_VALIDITY'
p992
VV
p993
sS'FL_DESC'
p994
VWet-only collector failure, operated as bulk collector
p995
stp996
Rp997
sI657
g1
(g2
g3
(dp998
S'FL_FLAG'
p999
I657
sS'FL_COMMENT'
p1000
NsS'SYSTIME'
p1001
g1
(g8
g9
(lp1002
g11
(S'\x07\xde\x05\x01\x00\x00\x00\x00\x00\x00'
p1003
tp1004
Rp1005
aNatp1006
Rp1007
(dp1008
g18
S'[)'
p1009
sbsS'FL_VALIDITY'
p1010
VV
p1011
sS'FL_DESC'
p1012
VPrecipitation collector overflow. Heavy snowfall/rain shower (squall)
p1013
stp1014
Rp1015
sI658
g1
(g2
g3
(dp1016
S'FL_FLAG'
p1017
I658
sS'FL_COMMENT'
p1018
NsS'SYSTIME'
p1019
g1
(g8
g9
(lp1020
g11
(S'\x07\xde\x05\x01\x00\x00\x00\x00\x00\x00'
p1021
tp1022
Rp1023
aNatp1024
Rp1025
(dp1026
g18
S'[)'
p1027
sbsS'FL_VALIDITY'
p1028
VI
p1029
sS'FL_DESC'
p1030
VToo small air volume
p1031
stp1032
Rp1033
sI147
g1
(g2
g3
(dp1034
S'FL_FLAG'
p1035
I147
sS'FL_COMMENT'
p1036
NsS'SYSTIME'
p1037
g1
(g8
g9
(lp1038
g11
(S'\x07\xde\x05\x01\x00\x00\x00\x00\x00\x00'
p1039
tp1040
Rp1041
aNatp1042
Rp1043
(dp1044
g18
S'[)'
p1045
sbsS'FL_VALIDITY'
p1046
VV
p1047
sS'FL_DESC'
p1048
VBelow theoretical detection limit or formal Q/A limit, but a value has been measured and reported and is considered valid
p1049
stp1050
Rp1051
sI660
g1
(g2
g3
(dp1052
S'FL_FLAG'
p1053
I660
sS'FL_COMMENT'
p1054
NsS'SYSTIME'
p1055
g1
(g8
g9
(lp1056
g11
(S'\x07\xde\x05\x01\x00\x00\x00\x00\x00\x00'
p1057
tp1058
Rp1059
aNatp1060
Rp1061
(dp1062
g18
S'[)'
p1063
sbsS'FL_VALIDITY'
p1064
VV
p1065
sS'FL_DESC'
p1066
VUnspecified sampling anomaly, considered valid
p1067
stp1068
Rp1069
sI662
g1
(g2
g3
(dp1070
S'FL_FLAG'
p1071
I662
sS'FL_COMMENT'
p1072
NsS'SYSTIME'
p1073
g1
(g8
g9
(lp1074
g11
(S'\x07\xde\x05\x01\x00\x00\x00\x00\x00\x00'
p1075
tp1076
Rp1077
aNatp1078
Rp1079
(dp1080
g18
S'[)'
p1081
sbsS'FL_VALIDITY'
p1082
VV
p1083
sS'FL_DESC'
p1084
VToo high sampling flow, data considered valid
p1085
stp1086
Rp1087
sI663
g1
(g2
g3
(dp1088
S'FL_FLAG'
p1089
I663
sS'FL_COMMENT'
p1090
NsS'SYSTIME'
p1091
g1
(g8
g9
(lp1092
g11
(S'\x07\xde\x05\x01\x00\x00\x00\x00\x00\x00'
p1093
tp1094
Rp1095
aNatp1096
Rp1097
(dp1098
g18
S'[)'
p1099
sbsS'FL_VALIDITY'
p1100
VI
p1101
sS'FL_DESC'
p1102
VToo high sampling flow, data considered invalid
p1103
stp1104
Rp1105
sI664
g1
(g2
g3
(dp1106
S'FL_FLAG'
p1107
I664
sS'FL_COMMENT'
p1108
NsS'SYSTIME'
p1109
g1
(g8
g9
(lp1110
g11
(S'\x07\xde\x05\x01\x00\x00\x00\x00\x00\x00'
p1111
tp1112
Rp1113
aNatp1114
Rp1115
(dp1116
g18
S'[)'
p1117
sbsS'FL_VALIDITY'
p1118
VI
p1119
sS'FL_DESC'
p1120
VInstrument flow(s) too far off target value, considered invalid
p1121
stp1122
Rp1123
sI665
g1
(g2
g3
(dp1124
S'FL_FLAG'
p1125
I665
sS'FL_COMMENT'
p1126
NsS'SYSTIME'
p1127
g1
(g8
g9
(lp1128
g11
(S'\x07\xde\x05\x01\x00\x00\x00\x00\x00\x00'
p1129
tp1130
Rp1131
aNatp1132
Rp1133
(dp1134
g18
S'[)'
p1135
sbsS'FL_VALIDITY'
p1136
VV
p1137
sS'FL_DESC'
p1138
VFilter damaged, valid
p1139
stp1140
Rp1141
sI666
g1
(g2
g3
(dp1142
S'FL_FLAG'
p1143
I666
sS'FL_COMMENT'
p1144
NsS'SYSTIME'
p1145
g1
(g8
g9
(lp1146
g11
(S'\x07\xde\x05\x01\x00\x00\x00\x00\x00\x00'
p1147
tp1148
Rp1149
aNatp1150
Rp1151
(dp1152
g18
S'[)'
p1153
sbsS'FL_VALIDITY'
p1154
VI
p1155
sS'FL_DESC'
p1156
VFilter damaged, invalid
p1157
stp1158
Rp1159
sI668
g1
(g2
g3
(dp1160
S'FL_FLAG'
p1161
I668
sS'FL_COMMENT'
p1162
NsS'SYSTIME'
p1163
g1
(g8
g9
(lp1164
g11
(S'\x07\xde\x05\x01\x00\x00\x00\x00\x00\x00'
p1165
tp1166
Rp1167
aNatp1168
Rp1169
(dp1170
g18
S'[)'
p1171
sbsS'FL_VALIDITY'
p1172
VV
p1173
sS'FL_DESC'
p1174
VMoist or wet filter, valid
p1175
stp1176
Rp1177
sI669
g1
(g2
g3
(dp1178
S'FL_FLAG'
p1179
I669
sS'FL_COMMENT'
p1180
NsS'SYSTIME'
p1181
g1
(g8
g9
(lp1182
g11
(S'\x07\xde\x05\x01\x00\x00\x00\x00\x00\x00'
p1183
tp1184
Rp1185
aNatp1186
Rp1187
(dp1188
g18
S'[)'
p1189
sbsS'FL_VALIDITY'
p1190
VI
p1191
sS'FL_DESC'
p1192
VMoist or wet filter, invalid
p1193
stp1194
Rp1195
sI670
g1
(g2
g3
(dp1196
S'FL_FLAG'
p1197
I670
sS'FL_COMMENT'
p1198
NsS'SYSTIME'
p1199
g1
(g8
g9
(lp1200
g11
(S'\x07\xde\x05\x01\x00\x00\x00\x00\x00\x00'
p1201
tp1202
Rp1203
aNatp1204
Rp1205
(dp1206
g18
S'[)'
p1207
sbsS'FL_VALIDITY'
p1208
VI
p1209
sS'FL_DESC'
p1210
VIncomplete data acquisition for multi-component data sets
p1211
stp1212
Rp1213
sI672
g1
(g2
g3
(dp1214
S'FL_FLAG'
p1215
I672
sS'FL_COMMENT'
p1216
NsS'SYSTIME'
p1217
g1
(g8
g9
(lp1218
g11
(S'\x07\xe9\x06\x18\r\x1a\x0e\x00\xbd\x89'
p1219
tp1220
Rp1221
aNatp1222
Rp1223
(dp1224
g18
S'[)'
p1225
sbsS'FL_VALIDITY'
p1226
VI
p1227
sS'FL_DESC'
p1228
VSupersaturation not reached
p1229
stp1230
Rp1231
sI674
g1
(g2
g3
(dp1232
S'FL_FLAG'
p1233
I674
sS'FL_COMMENT'
p1234
NsS'SYSTIME'
p1235
g1
(g8
g9
(lp1236
g11
(S'\x07\xde\x05\x01\x00\x00\x00\x00\x00\x00'
p1237
tp1238
Rp1239
aNatp1240
Rp1241
(dp1242
g18
S'[)'
p1243
sbsS'FL_VALIDITY'
p1244
VV
p1245
sS'FL_DESC'
p1246
VIcing or hoar frost in the intake, considered valid
p1247
stp1248
Rp1249
sI675
g1
(g2
g3
(dp1250
S'FL_FLAG'
p1251
I675
sS'FL_COMMENT'
p1252
NsS'SYSTIME'
p1253
g1
(g8
g9
(lp1254
g11
(S'\x07\xde\x05\x01\x00\x00\x00\x00\x00\x00'
p1255
tp1256
Rp1257
aNatp1258
Rp1259
(dp1260
g18
S'[)'
p1261
sbsS'FL_VALIDITY'
p1262
VV
p1263
sS'FL_DESC'
p1264
Vno visibility data available
p1265
stp1266
Rp1267
sI676
g1
(g2
g3
(dp1268
S'FL_FLAG'
p1269
I676
sS'FL_COMMENT'
p1270
NsS'SYSTIME'
p1271
g1
(g8
g9
(lp1272
g11
(S'\x07\xde\x05\x01\x00\x00\x00\x00\x00\x00'
p1273
tp1274
Rp1275
aNatp1276
Rp1277
(dp1278
g18
S'[)'
p1279
sbsS'FL_VALIDITY'
p1280
VV
p1281
sS'FL_DESC'
p1282
Vstation inside cloud (visibility < 1000 m)
p1283
stp1284
Rp1285
sI677
g1
(g2
g3
(dp1286
S'FL_FLAG'
p1287
I677
sS'FL_COMMENT'
p1288
NsS'SYSTIME'
p1289
g1
(g8
g9
(lp1290
g11
(S'\x07\xde\x05\x01\x00\x00\x00\x00\x00\x00'
p1291
tp1292
Rp1293
aNatp1294
Rp1295
(dp1296
g18
S'[)'
p1297
sbsS'FL_VALIDITY'
p1298
VI
p1299
sS'FL_DESC'
p1300
VIcing or hoar frost in the intake
p1301
stp1302
Rp1303
sI678
g1
(g2
g3
(dp1304
S'FL_FLAG'
p1305
I678
sS'FL_COMMENT'
p1306
NsS'SYSTIME'
p1307
g1
(g8
g9
(lp1308
g11
(S'\x07\xde\x05\x01\x00\x00\x00\x00\x00\x00'
p1309
tp1310
Rp1311
aNatp1312
Rp1313
(dp1314
g18
S'[)'
p1315
sbsS'FL_VALIDITY'
p1316
VV
p1317
sS'FL_DESC'
p1318
VHurricane
p1319
stp1320
Rp1321
sI679
g1
(g2
g3
(dp1322
S'FL_FLAG'
p1323
I679
sS'FL_COMMENT'
p1324
NsS'SYSTIME'
p1325
g1
(g8
g9
(lp1326
g11
(S'\x07\xde\x05\x01\x00\x00\x00\x00\x00\x00'
p1327
tp1328
Rp1329
aNatp1330
Rp1331
(dp1332
g18
S'[)'
p1333
sbsS'FL_VALIDITY'
p1334
VV
p1335
sS'FL_DESC'
p1336
VUnspecified meteorological condition
p1337
stp1338
Rp1339
sI680
g1
(g2
g3
(dp1340
S'FL_FLAG'
p1341
I680
sS'FL_COMMENT'
p1342
NsS'SYSTIME'
p1343
g1
(g8
g9
(lp1344
g11
(S'\x07\xde\x05\x01\x00\x00\x00\x00\x00\x00'
p1345
tp1346
Rp1347
aNatp1348
Rp1349
(dp1350
g18
S'[)'
p1351
sbsS'FL_VALIDITY'
p1352
VV
p1353
sS'FL_DESC'
p1354
VUndefined wind direction
p1355
stp1356
Rp1357
sI681
g1
(g2
g3
(dp1358
S'FL_FLAG'
p1359
I681
sS'FL_COMMENT'
p1360
NsS'SYSTIME'
p1361
g1
(g8
g9
(lp1362
g11
(S'\x07\xde\x05\x01\x00\x00\x00\x00\x00\x00'
p1363
tp1364
Rp1365
aNatp1366
Rp1367
(dp1368
g18
S'[)'
p1369
sbsS'FL_VALIDITY'
p1370
VI
p1371
sS'FL_DESC'
p1372
VLow data capture
p1373
stp1374
Rp1375
sI682
g1
(g2
g3
(dp1376
S'FL_FLAG'
p1377
I682
sS'FL_COMMENT'
p1378
NsS'SYSTIME'
p1379
g1
(g8
g9
(lp1380
g11
(S'\x07\xde\x05\x01\x00\x00\x00\x00\x00\x00'
p1381
tp1382
Rp1383
aNatp1384
Rp1385
(dp1386
g18
S'[)'
p1387
sbsS'FL_VALIDITY'
p1388
VI
p1389
sS'FL_DESC'
p1390
VInvalid due to calibration or zero/span check. Used for Level 0.
p1391
stp1392
Rp1393
sI683
g1
(g2
g3
(dp1394
S'FL_FLAG'
p1395
I683
sS'FL_COMMENT'
p1396
NsS'SYSTIME'
p1397
g1
(g8
g9
(lp1398
g11
(S'\x07\xde\x05\x01\x00\x00\x00\x00\x00\x00'
p1399
tp1400
Rp1401
aNatp1402
Rp1403
(dp1404
g18
S'[)'
p1405
sbsS'FL_VALIDITY'
p1406
VI
p1407
sS'FL_DESC'
p1408
VInvalid due to calibration. Used for Level 0.
p1409
stp1410
Rp1411
sI684
g1
(g2
g3
(dp1412
S'FL_FLAG'
p1413
I684
sS'FL_COMMENT'
p1414
NsS'SYSTIME'
p1415
g1
(g8
g9
(lp1416
g11
(S'\x07\xde\x05\x01\x00\x00\x00\x00\x00\x00'
p1417
tp1418
Rp1419
aNatp1420
Rp1421
(dp1422
g18
S'[)'
p1423
sbsS'FL_VALIDITY'
p1424
VI
p1425
sS'FL_DESC'
p1426
VInvalid due to zero/span check. Used for Level 0.
p1427
stp1428
Rp1429
sI685
g1
(g2
g3
(dp1430
S'FL_FLAG'
p1431
I685
sS'FL_COMMENT'
p1432
NsS'SYSTIME'
p1433
g1
(g8
g9
(lp1434
g11
(S'\x07\xde\x05\x01\x00\x00\x00\x00\x00\x00'
p1435
tp1436
Rp1437
aNatp1438
Rp1439
(dp1440
g18
S'[)'
p1441
sbsS'FL_VALIDITY'
p1442
VI
p1443
sS'FL_DESC'
p1444
VInvalid due to secondary standard gas measurement. Used for Level 0.
p1445
stp1446
Rp1447
sI686
g1
(g2
g3
(dp1448
S'FL_FLAG'
p1449
I686
sS'FL_COMMENT'
p1450
NsS'SYSTIME'
p1451
g1
(g8
g9
(lp1452
g11
(S'\x07\xde\x05\x01\x00\x00\x00\x00\x00\x00'
p1453
tp1454
Rp1455
aNatp1456
Rp1457
(dp1458
g18
S'[)'
p1459
sbsS'FL_VALIDITY'
p1460
VI
p1461
sS'FL_DESC'
p1462
VInvalid due to zero check. Used for Level 0.
p1463
stp1464
Rp1465
sI687
g1
(g2
g3
(dp1466
S'FL_FLAG'
p1467
I687
sS'FL_COMMENT'
p1468
NsS'SYSTIME'
p1469
g1
(g8
g9
(lp1470
g11
(S'\x07\xde\x05\x01\x00\x00\x00\x00\x00\x00'
p1471
tp1472
Rp1473
aNatp1474
Rp1475
(dp1476
g18
S'[)'
p1477
sbsS'FL_VALIDITY'
p1478
VI
p1479
sS'FL_DESC'
p1480
VInvalid due to span check. Used for Level 0.
p1481
stp1482
Rp1483
sI688
g1
(g2
g3
(dp1484
S'FL_FLAG'
p1485
I688
sS'FL_COMMENT'
p1486
V2025-12 used for VOC lev0
p1487
sS'SYSTIME'
p1488
g1
(g8
g9
(lp1489
g11
(S'\x07\xe9\x0c\x12\x0f\x07\x0f\x07\x02\xcd'
p1490
tp1491
Rp1492
aNatp1493
Rp1494
(dp1495
g18
S'[)'
p1496
sbsS'FL_VALIDITY'
p1497
VI
p1498
sS'FL_DESC'
p1499
VInvalid due to calibration using a laboratory standard. Used for Level 0.
p1500
stp1501
Rp1502
sI689
g1
(g2
g3
(dp1503
S'FL_FLAG'
p1504
I689
sS'FL_COMMENT'
p1505
V2025-12 used for VOC lev0
p1506
sS'SYSTIME'
p1507
g1
(g8
g9
(lp1508
g11
(S'\x07\xe9\x0c\x12\x0f\x07\x0f\x07\x02\xcd'
p1509
tp1510
Rp1511
aNatp1512
Rp1513
(dp1514
g18
S'[)'
p1515
sbsS'FL_VALIDITY'
p1516
VI
p1517
sS'FL_DESC'
p1518
VInvalid due to calibration using a working standard. Used for Level 0.
p1519
stp1520
Rp1521
sI690
g1
(g2
g3
(dp1522
S'FL_FLAG'
p1523
I690
sS'FL_COMMENT'
p1524
V2025-12 used for VOC lev0
p1525
sS'SYSTIME'
p1526
g1
(g8
g9
(lp1527
g11
(S'\x07\xe9\x0c\x12\x0f\x07\x0f\x07\x02\xcd'
p1528
tp1529
Rp1530
aNatp1531
Rp1532
(dp1533
g18
S'[)'
p1534
sbsS'FL_VALIDITY'
p1535
VI
p1536
sS'FL_DESC'
p1537
VInvalid due to target standard measurement. Used for Level 0.
p1538
stp1539
Rp1540
sI695
g1
(g2
g3
(dp1541
S'FL_FLAG'
p1542
I695
sS'FL_COMMENT'
p1543
NsS'SYSTIME'
p1544
g1
(g8
g9
(lp1545
g11
(S'\x07\xe9\x06\x18\r\x1a\x0e\x00\xbd\x89'
p1546
tp1547
Rp1548
aNatp1549
Rp1550
(dp1551
g18
S'[)'
p1552
sbsS'FL_VALIDITY'
p1553
VV
p1554
sS'FL_DESC'
p1555
VMeasurement out of range, considered valid
p1556
stp1557
Rp1558
sI696
g1
(g2
g3
(dp1559
S'FL_FLAG'
p1560
I696
sS'FL_COMMENT'
p1561
NsS'SYSTIME'
p1562
g1
(g8
g9
(lp1563
g11
(S'\x07\xe9\x06\x18\r\x1a\x0e\x00\xbd\x89'
p1564
tp1565
Rp1566
aNatp1567
Rp1568
(dp1569
g18
S'[)'
p1570
sbsS'FL_VALIDITY'
p1571
VI
p1572
sS'FL_DESC'
p1573
VMeasurement out of range, considered invalid
p1574
stp1575
Rp1576
sI185
g1
(g2
g3
(dp1577
S'FL_FLAG'
p1578
I185
sS'FL_COMMENT'
p1579
NsS'SYSTIME'
p1580
g1
(g8
g9
(lp1581
g11
(S'\x07\xde\x05\x01\x00\x00\x00\x00\x00\x00'
p1582
tp1583
Rp1584
aNatp1585
Rp1586
(dp1587
g18
S'[)'
p1588
sbsS'FL_VALIDITY'
p1589
VV
p1590
sS'FL_DESC'
p1591
VPossible local contamination indicated by wind direction or velocity
p1592
stp1593
Rp1594
sI186
g1
(g2
g3
(dp1595
S'FL_FLAG'
p1596
I186
sS'FL_COMMENT'
p1597
NsS'SYSTIME'
p1598
g1
(g8
g9
(lp1599
g11
(S'\x07\xde\x05\x01\x00\x00\x00\x00\x00\x00'
p1600
tp1601
Rp1602
aNatp1603
Rp1604
(dp1605
g18
S'[)'
p1606
sbsS'FL_VALIDITY'
p1607
VV
p1608
sS'FL_DESC'
p1609
VPossible local contamination indicated by single scattering albedo (auto)
p1610
stp1611
Rp1612
sI187
g1
(g2
g3
(dp1613
S'FL_FLAG'
p1614
I187
sS'FL_COMMENT'
p1615
NsS'SYSTIME'
p1616
g1
(g8
g9
(lp1617
g11
(S'\x07\xde\x05\x01\x00\x00\x00\x00\x00\x00'
p1618
tp1619
Rp1620
aNatp1621
Rp1622
(dp1623
g18
S'[)'
p1624
sbsS'FL_VALIDITY'
p1625
VV
p1626
sS'FL_DESC'
p1627
VPossible local contamination indicated by occurrence of new particles (auto)
p1628
stp1629
Rp1630
sI188
g1
(g2
g3
(dp1631
S'FL_FLAG'
p1632
I188
sS'FL_COMMENT'
p1633
NsS'SYSTIME'
p1634
g1
(g8
g9
(lp1635
g11
(S'\x07\xde\x05\x01\x00\x00\x00\x00\x00\x00'
p1636
tp1637
Rp1638
aNatp1639
Rp1640
(dp1641
g18
S'[)'
p1642
sbsS'FL_VALIDITY'
p1643
VV
p1644
sS'FL_DESC'
p1645
VPossible local contamination indicated by low wind speed (auto)
p1646
stp1647
Rp1648
sI189
g1
(g2
g3
(dp1649
S'FL_FLAG'
p1650
I189
sS'FL_COMMENT'
p1651
NsS'SYSTIME'
p1652
g1
(g8
g9
(lp1653
g11
(S'\x07\xde\x05\x01\x00\x00\x00\x00\x00\x00'
p1654
tp1655
Rp1656
aNatp1657
Rp1658
(dp1659
g18
S'[)'
p1660
sbsS'FL_VALIDITY'
p1661
VV
p1662
sS'FL_DESC'
p1663
VPossible local contamination indicated by wind from contaminated sector (auto)
p1664
stp1665
Rp1666
sI190
g1
(g2
g3
(dp1667
S'FL_FLAG'
p1668
I190
sS'FL_COMMENT'
p1669
NsS'SYSTIME'
p1670
g1
(g8
g9
(lp1671
g11
(S'\x07\xde\x05\x01\x00\x00\x00\x00\x00\x00'
p1672
tp1673
Rp1674
aNatp1675
Rp1676
(dp1677
g18
S'[)'
p1678
sbsS'FL_VALIDITY'
p1679
VV
p1680
sS'FL_DESC'
p1681
VNot corrected for cross-sensitivity to particle scattering
p1682
stp1683
Rp1684
sI191
g1
(g2
g3
(dp1685
S'FL_FLAG'
p1686
I191
sS'FL_COMMENT'
p1687
NsS'SYSTIME'
p1688
g1
(g8
g9
(lp1689
g11
(S'\x07\xde\x05\x01\x00\x00\x00\x00\x00\x00'
p1690
tp1691
Rp1692
aNatp1693
Rp1694
(dp1695
g18
S'[)'
p1696
sbsS'FL_VALIDITY'
p1697
VV
p1698
sS'FL_DESC'
p1699
VData not truncation corrected - Valid measurement
p1700
stp1701
Rp1702
sI632
g1
(g2
g3
(dp1703
S'FL_FLAG'
p1704
I632
sS'FL_COMMENT'
p1705
NsS'SYSTIME'
p1706
g1
(g8
g9
(lp1707
g11
(S'\x07\xde\x05\x01\x00\x00\x00\x00\x00\x00'
p1708
tp1709
Rp1710
aNatp1711
Rp1712
(dp1713
g18
S'[)'
p1714
sbsS'FL_VALIDITY'
p1715
VV
p1716
sS'FL_DESC'
p1717
VLid of polyurethane foam (PUF) sampler not closed
p1718
stp1719
Rp1720
sI210
g1
(g2
g3
(dp1721
S'FL_FLAG'
p1722
I210
sS'FL_COMMENT'
p1723
NsS'SYSTIME'
p1724
g1
(g8
g9
(lp1725
g11
(S'\x07\xde\x05\x01\x00\x00\x00\x00\x00\x00'
p1726
tp1727
Rp1728
aNatp1729
Rp1730
(dp1731
g18
S'[)'
p1732
sbsS'FL_VALIDITY'
p1733
VV
p1734
sS'FL_DESC'
p1735
VEpisode data checked and accepted by database co-ordinator. Valid measurement
p1736
stp1737
Rp1738
sI211
g1
(g2
g3
(dp1739
S'FL_FLAG'
p1740
I211
sS'FL_COMMENT'
p1741
NsS'SYSTIME'
p1742
g1
(g8
g9
(lp1743
g11
(S'\x07\xde\x05\x01\x00\x00\x00\x00\x00\x00'
p1744
tp1745
Rp1746
aNatp1747
Rp1748
(dp1749
g18
S'[)'
p1750
sbsS'FL_VALIDITY'
p1751
VV
p1752
sS'FL_DESC'
p1753
VIrregular data checked and accepted by database co-ordinator. Valid measurement
p1754
stp1755
Rp1756
sI220
g1
(g2
g3
(dp1757
S'FL_FLAG'
p1758
I220
sS'FL_COMMENT'
p1759
NsS'SYSTIME'
p1760
g1
(g8
g9
(lp1761
g11
(S'\x07\xde\x05\x01\x00\x00\x00\x00\x00\x00'
p1762
tp1763
Rp1764
aNatp1765
Rp1766
(dp1767
g18
S'[)'
p1768
sbsS'FL_VALIDITY'
p1769
VV
p1770
sS'FL_DESC'
p1771
VPreliminary data
p1772
stp1773
Rp1774
sI740
g1
(g2
g3
(dp1775
S'FL_FLAG'
p1776
I740
sS'FL_COMMENT'
p1777
NsS'SYSTIME'
p1778
g1
(g8
g9
(lp1779
g11
(S'\x07\xde\x05\x01\x00\x00\x00\x00\x00\x00'
p1780
tp1781
Rp1782
aNatp1783
Rp1784
(dp1785
g18
S'[)'
p1786
sbsS'FL_VALIDITY'
p1787
VV
p1788
sS'FL_DESC'
p1789
VProbably biased gas/particle ratio
p1790
stp1791
Rp1792
sI741
g1
(g2
g3
(dp1793
S'FL_FLAG'
p1794
I741
sS'FL_COMMENT'
p1795
NsS'SYSTIME'
p1796
g1
(g8
g9
(lp1797
g11
(S'\x07\xde\x05\x01\x00\x00\x00\x00\x00\x00'
p1798
tp1799
Rp1800
aNatp1801
Rp1802
(dp1803
g18
S'[)'
p1804
sbsS'FL_VALIDITY'
p1805
VV
p1806
sS'FL_DESC'
p1807
VNon refractory AMS concentrations. Dont include compounds that volatalises above 600 deg C
p1808
stp1809
Rp1810
sI750
g1
(g2
g3
(dp1811
S'FL_FLAG'
p1812
I750
sS'FL_COMMENT'
p1813
NsS'SYSTIME'
p1814
g1
(g8
g9
(lp1815
g11
(S'\x07\xde\x05\x01\x00\x00\x00\x00\x00\x00'
p1816
tp1817
Rp1818
aNatp1819
Rp1820
(dp1821
g18
S'[)'
p1822
sbsS'FL_VALIDITY'
p1823
VM
p1824
sS'FL_DESC'
p1825
VH+ not measured in alkaline sample
p1826
stp1827
Rp1828
sI247
g1
(g2
g3
(dp1829
S'FL_FLAG'
p1830
I247
sS'FL_COMMENT'
p1831
NsS'SYSTIME'
p1832
g1
(g8
g9
(lp1833
g11
(S'\x07\xde\x05\x01\x00\x00\x00\x00\x00\x00'
p1834
tp1835
Rp1836
aNatp1837
Rp1838
(dp1839
g18
S'[)'
p1840
sbsS'FL_VALIDITY'
p1841
VV
p1842
sS'FL_DESC'
p1843
VOverlapping sample interval was corrected by the database co-ordinator. Possible wrong sample time (used for historic data only).
p1844
stp1845
Rp1846
sI248
g1
(g2
g3
(dp1847
S'FL_FLAG'
p1848
I248
sS'FL_COMMENT'
p1849
NsS'SYSTIME'
p1850
g1
(g8
g9
(lp1851
g11
(S'\x07\xde\x05\x01\x00\x00\x00\x00\x00\x00'
p1852
tp1853
Rp1854
aNatp1855
Rp1856
(dp1857
g18
S'[)'
p1858
sbsS'FL_VALIDITY'
p1859
VV
p1860
sS'FL_DESC'
p1861
VIllegal flag was removed by the database co-ordinator. Lost flag information. (used for historic data only)
p1862
stp1863
Rp1864
sI249
g1
(g2
g3
(dp1865
S'FL_FLAG'
p1866
I249
sS'FL_COMMENT'
p1867
NsS'SYSTIME'
p1868
g1
(g8
g9
(lp1869
g11
(S'\x07\xde\x05\x01\x00\x00\x00\x00\x00\x00'
p1870
tp1871
Rp1872
aNatp1873
Rp1874
(dp1875
g18
S'[)'
p1876
sbsS'FL_VALIDITY'
p1877
VV
p1878
sS'FL_DESC'
p1879
VApparent typing error corrected. Valid measurement
p1880
stp1881
Rp1882
sI250
g1
(g2
g3
(dp1883
S'FL_FLAG'
p1884
I250
sS'FL_COMMENT'
p1885
NsS'SYSTIME'
p1886
g1
(g8
g9
(lp1887
g11
(S'\x07\xde\x05\x01\x00\x00\x00\x00\x00\x00'
p1888
tp1889
Rp1890
aNatp1891
Rp1892
(dp1893
g18
S'[)'
p1894
sbsS'FL_VALIDITY'
p1895
VV
p1896
sS'FL_DESC'
p1897
VConsiderable sea salt contribution, but considered valid
p1898
stp1899
Rp1900
sI251
g1
(g2
g3
(dp1901
S'FL_FLAG'
p1902
I251
sS'FL_COMMENT'
p1903
NsS'SYSTIME'
p1904
g1
(g8
g9
(lp1905
g11
(S'\x07\xde\x05\x01\x00\x00\x00\x00\x00\x00'
p1906
tp1907
Rp1908
aNatp1909
Rp1910
(dp1911
g18
S'[)'
p1912
sbsS'FL_VALIDITY'
p1913
VI
p1914
sS'FL_DESC'
p1915
VInvalid due to large sea salt contribution
p1916
stp1917
Rp1918
sI256
g1
(g2
g3
(dp1919
S'FL_FLAG'
p1920
I256
sS'FL_COMMENT'
p1921
NsS'SYSTIME'
p1922
g1
(g8
g9
(lp1923
g11
(S'\x07\xde\x05\x01\x00\x00\x00\x00\x00\x00'
p1924
tp1925
Rp1926
aNatp1927
Rp1928
(dp1929
g18
S'[)'
p1930
sbsS'FL_VALIDITY'
p1931
VI
p1932
sS'FL_DESC'
p1933
VInvalidated by database co-ordinator
p1934
stp1935
Rp1936
sI257
g1
(g2
g3
(dp1937
S'FL_FLAG'
p1938
I257
sS'FL_COMMENT'
p1939
NsS'SYSTIME'
p1940
g1
(g8
g9
(lp1941
g11
(S'\x07\xde\x05\x01\x00\x00\x00\x00\x00\x00'
p1942
tp1943
Rp1944
aNatp1945
Rp1946
(dp1947
g18
S'[)'
p1948
sbsS'FL_VALIDITY'
p1949
VV
p1950
sS'FL_DESC'
p1951
VExtremely low value, outside four times standard deviation in a log-normal distribution
p1952
stp1953
Rp1954
sI258
g1
(g2
g3
(dp1955
S'FL_FLAG'
p1956
I258
sS'FL_COMMENT'
p1957
NsS'SYSTIME'
p1958
g1
(g8
g9
(lp1959
g11
(S'\x07\xde\x05\x01\x00\x00\x00\x00\x00\x00'
p1960
tp1961
Rp1962
aNatp1963
Rp1964
(dp1965
g18
S'[)'
p1966
sbsS'FL_VALIDITY'
p1967
VV
p1968
sS'FL_DESC'
p1969
VExtremely high value, outside four times standard deviation in a log-normal distribution
p1970
stp1971
Rp1972
sI259
g1
(g2
g3
(dp1973
S'FL_FLAG'
p1974
I259
sS'FL_COMMENT'
p1975
NsS'SYSTIME'
p1976
g1
(g8
g9
(lp1977
g11
(S'\x07\xde\x05\x01\x00\x00\x00\x00\x00\x00'
p1978
tp1979
Rp1980
aNatp1981
Rp1982
(dp1983
g18
S'[)'
p1984
sbsS'FL_VALIDITY'
p1985
VI
p1986
sS'FL_DESC'
p1987
VUnspecified error expected
p1988
stp1989
Rp1990
sI260
g1
(g2
g3
(dp1991
S'FL_FLAG'
p1992
I260
sS'FL_COMMENT'
p1993
NsS'SYSTIME'
p1994
g1
(g8
g9
(lp1995
g11
(S'\x07\xde\x05\x01\x00\x00\x00\x00\x00\x00'
p1996
tp1997
Rp1998
aNatp1999
Rp2000
(dp2001
g18
S'[)'
p2002
sbsS'FL_VALIDITY'
p2003
VI
p2004
sS'FL_DESC'
p2005
VContamination suspected
p2006
stp2007
Rp2008
sI780
g1
(g2
g3
(dp2009
S'FL_FLAG'
p2010
I780
sS'FL_COMMENT'
p2011
NsS'SYSTIME'
p2012
g1
(g8
g9
(lp2013
g11
(S'\x07\xde\x05\x01\x00\x00\x00\x00\x00\x00'
p2014
tp2015
Rp2016
aNatp2017
Rp2018
(dp2019
g18
S'[)'
p2020
sbsS'FL_VALIDITY'
p2021
VV
p2022
sS'FL_DESC'
p2023
VValue below detection or quantification limit, data element contains estimated or measured value. Use of flag 147 is encouraged.
p2024
stp2025
Rp2026
sI781
g1
(g2
g3
(dp2027
S'FL_FLAG'
p2028
I781
sS'FL_COMMENT'
p2029
NsS'SYSTIME'
p2030
g1
(g8
g9
(lp2031
g11
(S'\x07\xde\x05\x01\x00\x00\x00\x00\x00\x00'
p2032
tp2033
Rp2034
aNatp2035
Rp2036
(dp2037
g18
S'[)'
p2038
sbsS'FL_VALIDITY'
p2039
VV
p2040
sS'FL_DESC'
p2041
VValue below detection limit, data element contains detection limit
p2042
stp2043
Rp2044
sI782
g1
(g2
g3
(dp2045
S'FL_FLAG'
p2046
I782
sS'FL_COMMENT'
p2047
NsS'SYSTIME'
p2048
g1
(g8
g9
(lp2049
g11
(S'\x07\xde\x05\x01\x00\x00\x00\x00\x00\x00'
p2050
tp2051
Rp2052
aNatp2053
Rp2054
(dp2055
g18
S'[)'
p2056
sbsS'FL_VALIDITY'
p2057
VV
p2058
sS'FL_DESC'
p2059
VLow precipitation, concentration estimated
p2060
stp2061
Rp2062
sI783
g1
(g2
g3
(dp2063
S'FL_FLAG'
p2064
I783
sS'FL_COMMENT'
p2065
NsS'SYSTIME'
p2066
g1
(g8
g9
(lp2067
g11
(S'\x07\xde\x05\x01\x00\x00\x00\x00\x00\x00'
p2068
tp2069
Rp2070
aNatp2071
Rp2072
(dp2073
g18
S'[)'
p2074
sbsS'FL_VALIDITY'
p2075
VM
p2076
sS'FL_DESC'
p2077
VLow precipitation, concentration unknown
p2078
stp2079
Rp2080
sI784
g1
(g2
g3
(dp2081
S'FL_FLAG'
p2082
I784
sS'FL_COMMENT'
p2083
NsS'SYSTIME'
p2084
g1
(g8
g9
(lp2085
g11
(S'\x07\xde\x05\x01\x00\x00\x00\x00\x00\x00'
p2086
tp2087
Rp2088
aNatp2089
Rp2090
(dp2091
g18
S'[)'
p2092
sbsS'FL_VALIDITY'
p2093
VI
p2094
sS'FL_DESC'
p2095
VLow precipitation, concentration estimated
p2096
stp2097
Rp2098
sI275
g1
(g2
g3
(dp2099
S'FL_FLAG'
p2100
I275
sS'FL_COMMENT'
p2101
NsS'SYSTIME'
p2102
g1
(g8
g9
(lp2103
g11
(S'\x07\xde\x05\x01\x00\x00\x00\x00\x00\x00'
p2104
tp2105
Rp2106
aNatp2107
Rp2108
(dp2109
g18
S'[)'
p2110
sbsS'FL_VALIDITY'
p2111
VV
p2112
sS'FL_DESC'
p2113
VInconsistency between measured and estimated conductivity, but considered valid
p2114
stp2115
Rp2116
sI276
g1
(g2
g3
(dp2117
S'FL_FLAG'
p2118
I276
sS'FL_COMMENT'
p2119
NsS'SYSTIME'
p2120
g1
(g8
g9
(lp2121
g11
(S'\x07\xde\x05\x01\x00\x00\x00\x00\x00\x00'
p2122
tp2123
Rp2124
aNatp2125
Rp2126
(dp2127
g18
S'[)'
p2128
sbsS'FL_VALIDITY'
p2129
VV
p2130
sS'FL_DESC'
p2131
VInconsistency discovered through ion balance calculations, but considered valid
p2132
stp2133
Rp2134
sI277
g1
(g2
g3
(dp2135
S'FL_FLAG'
p2136
I277
sS'FL_COMMENT'
p2137
NsS'SYSTIME'
p2138
g1
(g8
g9
(lp2139
g11
(S'\x07\xde\x05\x01\x00\x00\x00\x00\x00\x00'
p2140
tp2141
Rp2142
aNatp2143
Rp2144
(dp2145
g18
S'[)'
p2146
sbsS'FL_VALIDITY'
p2147
VI
p2148
sS'FL_DESC'
p2149
VInvalid due to inconsistency between measured and estimated conductivity
p2150
stp2151
Rp2152
sI278
g1
(g2
g3
(dp2153
S'FL_FLAG'
p2154
I278
sS'FL_COMMENT'
p2155
NsS'SYSTIME'
p2156
g1
(g8
g9
(lp2157
g11
(S'\x07\xde\x05\x01\x00\x00\x00\x00\x00\x00'
p2158
tp2159
Rp2160
aNatp2161
Rp2162
(dp2163
g18
S'[)'
p2164
sbsS'FL_VALIDITY'
p2165
VI
p2166
sS'FL_DESC'
p2167
VInvalid due to inconsistency discovered through ion balance calculations
p2168
stp2169
Rp2170
sI900
g1
(g2
g3
(dp2171
S'FL_FLAG'
p2172
I900
sS'FL_COMMENT'
p2173
NsS'SYSTIME'
p2174
g1
(g8
g9
(lp2175
g11
(S'\x07\xde\x05\x01\x00\x00\x00\x00\x00\x00'
p2176
tp2177
Rp2178
aNatp2179
Rp2180
(dp2181
g18
S'[)'
p2182
sbsS'FL_VALIDITY'
p2183
VH
p2184
sS'FL_DESC'
p2185
VHidden and invalidated by data originator
p2186
stp2187
Rp2188
sI797
g1
(g2
g3
(dp2189
S'FL_FLAG'
p2190
I797
sS'FL_COMMENT'
p2191
NsS'SYSTIME'
p2192
g1
(g8
g9
(lp2193
g11
(S'\x07\xde\x05\x01\x00\x00\x00\x00\x00\x00'
p2194
tp2195
Rp2196
aNatp2197
Rp2198
(dp2199
g18
S'[)'
p2200
sbsS'FL_VALIDITY'
p2201
VV
p2202
sS'FL_DESC'
p2203
VData element taken from co-located instrument
p2204
stp2205
Rp2206
sI798
g1
(g2
g3
(dp2207
S'FL_FLAG'
p2208
I798
sS'FL_COMMENT'
p2209
NsS'SYSTIME'
p2210
g1
(g8
g9
(lp2211
g11
(S'\x07\xde\x05\x01\x00\x00\x00\x00\x00\x00'
p2212
tp2213
Rp2214
aNatp2215
Rp2216
(dp2217
g18
S'[)'
p2218
sbsS'FL_VALIDITY'
p2219
VV
p2220
sS'FL_DESC'
p2221
VMeasurement missing (unspecified reason), data element contains estimated value. Considered valid.
p2222
stp2223
Rp2224
sI799
g1
(g2
g3
(dp2225
S'FL_FLAG'
p2226
I799
sS'FL_COMMENT'
p2227
NsS'SYSTIME'
p2228
g1
(g8
g9
(lp2229
g11
(S'\x07\xde\x05\x01\x00\x00\x00\x00\x00\x00'
p2230
tp2231
Rp2232
aNatp2233
Rp2234
(dp2235
g18
S'[)'
p2236
sbsS'FL_VALIDITY'
p2237
VI
p2238
sS'FL_DESC'
p2239
VMeasurement missing (unspecified reason), data element contains estimated value
p2240
stp2241
Rp2242
sI298
g1
(g2
g3
(dp2243
S'FL_FLAG'
p2244
I298
sS'FL_COMMENT'
p2245
NsS'SYSTIME'
p2246
g1
(g8
g9
(lp2247
g11
(S'\x07\xde\x05\x01\x00\x00\x00\x00\x00\x00'
p2248
tp2249
Rp2250
aNatp2251
Rp2252
(dp2253
g18
S'[)'
p2254
sbsS'FL_VALIDITY'
p2255
VV
p2256
sS'FL_DESC'
p2257
VGold trap inconsistency in mercury monitor
p2258
stp2259
Rp2260
sI299
g1
(g2
g3
(dp2261
S'FL_FLAG'
p2262
I299
sS'FL_COMMENT'
p2263
NsS'SYSTIME'
p2264
g1
(g8
g9
(lp2265
g11
(S'\x07\xde\x05\x01\x00\x00\x00\x00\x00\x00'
p2266
tp2267
Rp2268
aNatp2269
Rp2270
(dp2271
g18
S'[)'
p2272
sbsS'FL_VALIDITY'
p2273
VV
p2274
sS'FL_DESC'
p2275
VInconsistent with another unspecified measurement
p2276
stp2277
Rp2278
sI990
g1
(g2
g3
(dp2279
S'FL_FLAG'
p2280
I990
sS'FL_COMMENT'
p2281
NsS'SYSTIME'
p2282
g1
(g8
g9
(lp2283
g11
(S'\x07\xde\x05\x01\x00\x00\x00\x00\x00\x00'
p2284
tp2285
Rp2286
aNatp2287
Rp2288
(dp2289
g18
S'[)'
p2290
sbsS'FL_VALIDITY'
p2291
VM
p2292
sS'FL_DESC'
p2293
VPrecipitation not measured due to snow-fall. Needed for historic data, should not be needed for new data
p2294
stp2295
Rp2296
sI360
g1
(g2
g3
(dp2297
S'FL_FLAG'
p2298
I360
sS'FL_COMMENT'
p2299
NsS'SYSTIME'
p2300
g1
(g8
g9
(lp2301
g11
(S'\x07\xde\x05\x01\x00\x00\x00\x00\x00\x00'
p2302
tp2303
Rp2304
aNatp2305
Rp2306
(dp2307
g18
S'[)'
p2308
sbsS'FL_VALIDITY'
p2309
VV
p2310
sS'FL_DESC'
p2311
VSampling interval is one of several sampling intervals averaged
p2312
stp2313
Rp2314
sI370
g1
(g2
g3
(dp2315
S'FL_FLAG'
p2316
I370
sS'FL_COMMENT'
p2317
NsS'SYSTIME'
p2318
g1
(g8
g9
(lp2319
g11
(S'\x07\xde\x05\x01\x00\x00\x00\x00\x00\x00'
p2320
tp2321
Rp2322
aNatp2323
Rp2324
(dp2325
g18
S'[)'
p2326
sbsS'FL_VALIDITY'
p2327
VV
p2328
sS'FL_DESC'
p2329
VFor monthly values using samples partly in two month, the number of days are used for weighing the sample
p2330
stp2331
Rp2332
sI659
g1
(g2
g3
(dp2333
S'FL_FLAG'
p2334
I659
sS'FL_COMMENT'
p2335
NsS'SYSTIME'
p2336
g1
(g8
g9
(lp2337
g11
(S'\x07\xde\x05\x01\x00\x00\x00\x00\x00\x00'
p2338
tp2339
Rp2340
aNatp2341
Rp2342
(dp2343
g18
S'[)'
p2344
sbsS'FL_VALIDITY'
p2345
VI
p2346
sS'FL_DESC'
p2347
VUnspecified sampling anomaly
p2348
stp2349
Rp2350
sI890
g1
(g2
g3
(dp2351
S'FL_FLAG'
p2352
I890
sS'FL_COMMENT'
p2353
NsS'SYSTIME'
p2354
g1
(g8
g9
(lp2355
g11
(S'\x07\xde\x05\x01\x00\x00\x00\x00\x00\x00'
p2356
tp2357
Rp2358
aNatp2359
Rp2360
(dp2361
g18
S'[)'
p2362
sbsS'FL_VALIDITY'
p2363
VM
p2364
sS'FL_DESC'
p2365
VConcentration in precipitation undefined, no precipitation
p2366
stp2367
Rp2368
sI891
g1
(g2
g3
(dp2369
S'FL_FLAG'
p2370
I891
sS'FL_COMMENT'
p2371
NsS'SYSTIME'
p2372
g1
(g8
g9
(lp2373
g11
(S'\x07\xe9\x06\x18\r\x1a\x0e\x00\xbd\x89'
p2374
tp2375
Rp2376
aNatp2377
Rp2378
(dp2379
g18
S'[)'
p2380
sbsS'FL_VALIDITY'
p2381
VM
p2382
sS'FL_DESC'
p2383
VCloud measurements undefined, no cloud
p2384
stp2385
Rp2386
sI380
g1
(g2
g3
(dp2387
S'FL_FLAG'
p2388
I380
sS'FL_COMMENT'
p2389
NsS'SYSTIME'
p2390
g1
(g8
g9
(lp2391
g11
(S'\x07\xde\x05\x01\x00\x00\x00\x00\x00\x00'
p2392
tp2393
Rp2394
aNatp2395
Rp2396
(dp2397
g18
S'[)'
p2398
sbsS'FL_VALIDITY'
p2399
VV
p2400
sS'FL_DESC'
p2401
VMore than 50% of the measurements are below detection limit
p2402
stp2403
Rp2404
sI382
g1
(g2
g3
(dp2405
S'FL_FLAG'
p2406
I382
sS'FL_COMMENT'
p2407
NsS'SYSTIME'
p2408
g1
(g8
g9
(lp2409
g11
(S'\x07\xde\x05\x01\x00\x00\x00\x00\x00\x00'
p2410
tp2411
Rp2412
aNatp2413
Rp2414
(dp2415
g18
S'[)'
p2416
sbsS'FL_VALIDITY'
p2417
VV
p2418
sS'FL_DESC'
p2419
VMore than 75% of the measurements are below detection limit
p2420
stp2421
Rp2422
sI899
g1
(g2
g3
(dp2423
S'FL_FLAG'
p2424
I899
sS'FL_COMMENT'
p2425
NsS'SYSTIME'
p2426
g1
(g8
g9
(lp2427
g11
(S'\x07\xde\x05\x01\x00\x00\x00\x00\x00\x00'
p2428
tp2429
Rp2430
aNatp2431
Rp2432
(dp2433
g18
S'[)'
p2434
sbsS'FL_VALIDITY'
p2435
VM
p2436
sS'FL_DESC'
p2437
VMeasurement undefined, unspecified reason
p2438
stp2439
Rp2440
sI388
g1
(g2
g3
(dp2441
S'FL_FLAG'
p2442
I388
sS'FL_COMMENT'
p2443
NsS'SYSTIME'
p2444
g1
(g8
g9
(lp2445
g11
(S'\x07\xde\x05\x01\x00\x00\x00\x00\x00\x00'
p2446
tp2447
Rp2448
aNatp2449
Rp2450
(dp2451
g18
S'[)'
p2452
sbsS'FL_VALIDITY'
p2453
VV
p2454
sS'FL_DESC'
p2455
VData completeness less than 66%
p2456
stp2457
Rp2458
sI389
g1
(g2
g3
(dp2459
S'FL_FLAG'
p2460
I389
sS'FL_COMMENT'
p2461
NsS'SYSTIME'
p2462
g1
(g8
g9
(lp2463
g11
(S'\x07\xde\x05\x01\x00\x00\x00\x00\x00\x00'
p2464
tp2465
Rp2466
aNatp2467
Rp2468
(dp2469
g18
S'[)'
p2470
sbsS'FL_VALIDITY'
p2471
VI
p2472
sS'FL_DESC'
p2473
VData completeness less than 66%
p2474
stp2475
Rp2476
sI390
g1
(g2
g3
(dp2477
S'FL_FLAG'
p2478
I390
sS'FL_COMMENT'
p2479
NsS'SYSTIME'
p2480
g1
(g8
g9
(lp2481
g11
(S'\x07\xde\x05\x01\x00\x00\x00\x00\x00\x00'
p2482
tp2483
Rp2484
aNatp2485
Rp2486
(dp2487
g18
S'[)'
p2488
sbsS'FL_VALIDITY'
p2489
VV
p2490
sS'FL_DESC'
p2491
VData completeness less than 50%
p2492
stp2493
Rp2494
sI391
g1
(g2
g3
(dp2495
S'FL_FLAG'
p2496
I391
sS'FL_COMMENT'
p2497
NsS'SYSTIME'
p2498
g1
(g8
g9
(lp2499
g11
(S'\x07\xde\x05\x01\x00\x00\x00\x00\x00\x00'
p2500
tp2501
Rp2502
aNatp2503
Rp2504
(dp2505
g18
S'[)'
p2506
sbsS'FL_VALIDITY'
p2507
VI
p2508
sS'FL_DESC'
p2509
VData completeness less than 50%, data considered invalid
p2510
stp2511
Rp2512
sI392
g1
(g2
g3
(dp2513
S'FL_FLAG'
p2514
I392
sS'FL_COMMENT'
p2515
NsS'SYSTIME'
p2516
g1
(g8
g9
(lp2517
g11
(S'\x07\xde\x05\x01\x00\x00\x00\x00\x00\x00'
p2518
tp2519
Rp2520
aNatp2521
Rp2522
(dp2523
g18
S'[)'
p2524
sbsS'FL_VALIDITY'
p2525
VV
p2526
sS'FL_DESC'
p2527
VData completeness less than 75%
p2528
stp2529
Rp2530
sI393
g1
(g2
g3
(dp2531
S'FL_FLAG'
p2532
I393
sS'FL_COMMENT'
p2533
NsS'SYSTIME'
p2534
g1
(g8
g9
(lp2535
g11
(S'\x07\xde\x05\x01\x00\x00\x00\x00\x00\x00'
p2536
tp2537
Rp2538
aNatp2539
Rp2540
(dp2541
g18
S'[)'
p2542
sbsS'FL_VALIDITY'
p2543
VI
p2544
sS'FL_DESC'
p2545
VData completeness less than 75%, data considered invalid
p2546
stp2547
Rp2548
sI394
g1
(g2
g3
(dp2549
S'FL_FLAG'
p2550
I394
sS'FL_COMMENT'
p2551
NsS'SYSTIME'
p2552
g1
(g8
g9
(lp2553
g11
(S'\x07\xde\x05\x01\x00\x00\x00\x00\x00\x00'
p2554
tp2555
Rp2556
aNatp2557
Rp2558
(dp2559
g18
S'[)'
p2560
sbsS'FL_VALIDITY'
p2561
VV
p2562
sS'FL_DESC'
p2563
VData completeness less than 90%
p2564
stp2565
Rp2566
sI395
g1
(g2
g3
(dp2567
S'FL_FLAG'
p2568
I395
sS'FL_COMMENT'
p2569
NsS'SYSTIME'
p2570
g1
(g8
g9
(lp2571
g11
(S'\x07\xde\x05\x01\x00\x00\x00\x00\x00\x00'
p2572
tp2573
Rp2574
aNatp2575
Rp2576
(dp2577
g18
S'[)'
p2578
sbsS'FL_VALIDITY'
p2579
VI
p2580
sS'FL_DESC'
p2581
VData completeness less than 90%, data considered invalid
p2582
stp2583
Rp2584
sI410
g1
(g2
g3
(dp2585
S'FL_FLAG'
p2586
I410
sS'FL_COMMENT'
p2587
NsS'SYSTIME'
p2588
g1
(g8
g9
(lp2589
g11
(S'\x07\xde\x05\x01\x00\x00\x00\x00\x00\x00'
p2590
tp2591
Rp2592
aNatp2593
Rp2594
(dp2595
g18
S'[)'
p2596
sbsS'FL_VALIDITY'
p2597
VV
p2598
sS'FL_DESC'
p2599
VSahara dust event
p2600
stp2601
Rp2602
sI411
g1
(g2
g3
(dp2603
S'FL_FLAG'
p2604
I411
sS'FL_COMMENT'
p2605
NsS'SYSTIME'
p2606
g1
(g8
g9
(lp2607
g11
(S'\x07\xde\x05\x01\x00\x00\x00\x00\x00\x00'
p2608
tp2609
Rp2610
aNatp2611
Rp2612
(dp2613
g18
S'[)'
p2614
sbsS'FL_VALIDITY'
p2615
VV
p2616
sS'FL_DESC'
p2617
VAeolian dust event
p2618
stp2619
Rp2620
sI420
g1
(g2
g3
(dp2621
S'FL_FLAG'
p2622
I420
sS'FL_COMMENT'
p2623
NsS'SYSTIME'
p2624
g1
(g8
g9
(lp2625
g11
(S'\x07\xde\x05\x01\x00\x00\x00\x00\x00\x00'
p2626
tp2627
Rp2628
aNatp2629
Rp2630
(dp2631
g18
S'[)'
p2632
sbsS'FL_VALIDITY'
p2633
VV
p2634
sS'FL_DESC'
p2635
VPreliminary data
p2636
stp2637
Rp2638
sI440
g1
(g2
g3
(dp2639
S'FL_FLAG'
p2640
I440
sS'FL_COMMENT'
p2641
NsS'SYSTIME'
p2642
g1
(g8
g9
(lp2643
g11
(S'\x07\xde\x05\x01\x00\x00\x00\x00\x00\x00'
p2644
tp2645
Rp2646
aNatp2647
Rp2648
(dp2649
g18
S'[)'
p2650
sbsS'FL_VALIDITY'
p2651
VV
p2652
sS'FL_DESC'
p2653
VReconstructed or recalculated data
p2654
stp2655
Rp2656
sI450
g1
(g2
g3
(dp2657
S'FL_FLAG'
p2658
I450
sS'FL_COMMENT'
p2659
NsS'SYSTIME'
p2660
g1
(g8
g9
(lp2661
g11
(S'\x07\xde\x05\x01\x00\x00\x00\x00\x00\x00'
p2662
tp2663
Rp2664
aNatp2665
Rp2666
(dp2667
g18
S'[)'
p2668
sbsS'FL_VALIDITY'
p2669
VV
p2670
sS'FL_DESC'
p2671
VConsiderable sea salt contribution, but considered valid
p2672
stp2673
Rp2674
sI451
g1
(g2
g3
(dp2675
S'FL_FLAG'
p2676
I451
sS'FL_COMMENT'
p2677
NsS'SYSTIME'
p2678
g1
(g8
g9
(lp2679
g11
(S'\x07\xde\x05\x01\x00\x00\x00\x00\x00\x00'
p2680
tp2681
Rp2682
aNatp2683
Rp2684
(dp2685
g18
S'[)'
p2686
sbsS'FL_VALIDITY'
p2687
VI
p2688
sS'FL_DESC'
p2689
VInvalid due to large sea salt contribution
p2690
stp2691
Rp2692
sI452
g1
(g2
g3
(dp2693
S'FL_FLAG'
p2694
I452
sS'FL_COMMENT'
p2695
NsS'SYSTIME'
p2696
g1
(g8
g9
(lp2697
g11
(S'\x07\xde\x05\x01\x00\x00\x00\x00\x00\x00'
p2698
tp2699
Rp2700
aNatp2701
Rp2702
(dp2703
g18
S'[)'
p2704
sbsS'FL_VALIDITY'
p2705
VI
p2706
sS'FL_DESC'
p2707
VInvalid due to large uncertainty
p2708
stp2709
Rp2710
sI456
g1
(g2
g3
(dp2711
S'FL_FLAG'
p2712
I456
sS'FL_COMMENT'
p2713
NsS'SYSTIME'
p2714
g1
(g8
g9
(lp2715
g11
(S'\x07\xde\x05\x01\x00\x00\x00\x00\x00\x00'
p2716
tp2717
Rp2718
aNatp2719
Rp2720
(dp2721
g18
S'[)'
p2722
sbsS'FL_VALIDITY'
p2723
VI
p2724
sS'FL_DESC'
p2725
VInvalidated by data originator
p2726
stp2727
Rp2728
sI457
g1
(g2
g3
(dp2729
S'FL_FLAG'
p2730
I457
sS'FL_COMMENT'
p2731
NsS'SYSTIME'
p2732
g1
(g8
g9
(lp2733
g11
(S'\x07\xde\x05\x01\x00\x00\x00\x00\x00\x00'
p2734
tp2735
Rp2736
aNatp2737
Rp2738
(dp2739
g18
S'[)'
p2740
sbsS'FL_VALIDITY'
p2741
VV
p2742
sS'FL_DESC'
p2743
VExtremely low value, outside four times standard deviation in a lognormal distribution
p2744
stp2745
Rp2746
sI458
g1
(g2
g3
(dp2747
S'FL_FLAG'
p2748
I458
sS'FL_COMMENT'
p2749
NsS'SYSTIME'
p2750
g1
(g8
g9
(lp2751
g11
(S'\x07\xde\x05\x01\x00\x00\x00\x00\x00\x00'
p2752
tp2753
Rp2754
aNatp2755
Rp2756
(dp2757
g18
S'[)'
p2758
sbsS'FL_VALIDITY'
p2759
VV
p2760
sS'FL_DESC'
p2761
VExtremely high value, outside four times standard deviation in a lognormal distribution
p2762
stp2763
Rp2764
sI459
g1
(g2
g3
(dp2765
S'FL_FLAG'
p2766
I459
sS'FL_COMMENT'
p2767
NsS'SYSTIME'
p2768
g1
(g8
g9
(lp2769
g11
(S'\x07\xde\x05\x01\x00\x00\x00\x00\x00\x00'
p2770
tp2771
Rp2772
aNatp2773
Rp2774
(dp2775
g18
S'[)'
p2776
sbsS'FL_VALIDITY'
p2777
VI
p2778
sS'FL_DESC'
p2779
VExtreme value, unspecified error
p2780
stp2781
Rp2782
sI460
g1
(g2
g3
(dp2783
S'FL_FLAG'
p2784
I460
sS'FL_COMMENT'
p2785
NsS'SYSTIME'
p2786
g1
(g8
g9
(lp2787
g11
(S'\x07\xde\x05\x01\x00\x00\x00\x00\x00\x00'
p2788
tp2789
Rp2790
aNatp2791
Rp2792
(dp2793
g18
S'[)'
p2794
sbsS'FL_VALIDITY'
p2795
VI
p2796
sS'FL_DESC'
p2797
VContamination suspected
p2798
stp2799
Rp2800
sI760
g1
(g2
g3
(dp2801
S'FL_FLAG'
p2802
I760
sS'FL_COMMENT'
p2803
NsS'SYSTIME'
p2804
g1
(g8
g9
(lp2805
g11
(S'\x07\xde\x05\x01\x00\x00\x00\x00\x00\x00'
p2806
tp2807
Rp2808
aNatp2809
Rp2810
(dp2811
g18
S'[)'
p2812
sbsS'FL_VALIDITY'
p2813
VV
p2814
sS'FL_DESC'
p2815
VValue estimated by summing up the constituents measured
p2816
stp2817
Rp2818
sI980
g1
(g2
g3
(dp2819
S'FL_FLAG'
p2820
I980
sS'FL_COMMENT'
p2821
NsS'SYSTIME'
p2822
g1
(g8
g9
(lp2823
g11
(S'\x07\xde\x05\x01\x00\x00\x00\x00\x00\x00'
p2824
tp2825
Rp2826
aNatp2827
Rp2828
(dp2829
g18
S'[)'
p2830
sbsS'FL_VALIDITY'
p2831
VM
p2832
sS'FL_DESC'
p2833
VMissing due to calibration or zero/span check
p2834
stp2835
Rp2836
sI470
g1
(g2
g3
(dp2837
S'FL_FLAG'
p2838
I470
sS'FL_COMMENT'
p2839
NsS'SYSTIME'
p2840
g1
(g8
g9
(lp2841
g11
(S'\x07\xde\x05\x01\x00\x00\x00\x00\x00\x00'
p2842
tp2843
Rp2844
aNatp2845
Rp2846
(dp2847
g18
S'[)'
p2848
sbsS'FL_VALIDITY'
p2849
VV
p2850
sS'FL_DESC'
p2851
VParticulate mass concentration higher than parallell mass concentration measurement with higher cut off i.e PM1_mass > PM25_mass and PM25_mass > PM10_mass
p2852
stp2853
Rp2854
sI471
g1
(g2
g3
(dp2855
S'FL_FLAG'
p2856
I471
sS'FL_COMMENT'
p2857
NsS'SYSTIME'
p2858
g1
(g8
g9
(lp2859
g11
(S'\x07\xde\x05\x01\x00\x00\x00\x00\x00\x00'
p2860
tp2861
Rp2862
aNatp2863
Rp2864
(dp2865
g18
S'[)'
p2866
sbsS'FL_VALIDITY'
p2867
VI
p2868
sS'FL_DESC'
p2869
VParticulate mass concentration higher than parallell mass concentration measurement with higher cut off i.e PM1_mass > PM25_mass and PM25_mass > PM10_mass. Considered invalid
p2870
stp2871
Rp2872
sI472
g1
(g2
g3
(dp2873
S'FL_FLAG'
p2874
I472
sS'FL_COMMENT'
p2875
NsS'SYSTIME'
p2876
g1
(g8
g9
(lp2877
g11
(S'\x07\xde\x05\x01\x00\x00\x00\x00\x00\x00'
p2878
tp2879
Rp2880
aNatp2881
Rp2882
(dp2883
g18
S'[)'
p2884
sbsS'FL_VALIDITY'
p2885
VV
p2886
sS'FL_DESC'
p2887
VLess accurate than normal due to high concentration(s)
p2888
stp2889
Rp2890
sI475
g1
(g2
g3
(dp2891
S'FL_FLAG'
p2892
I475
sS'FL_COMMENT'
p2893
NsS'SYSTIME'
p2894
g1
(g8
g9
(lp2895
g11
(S'\x07\xde\x05\x01\x00\x00\x00\x00\x00\x00'
p2896
tp2897
Rp2898
aNatp2899
Rp2900
(dp2901
g18
S'[)'
p2902
sbsS'FL_VALIDITY'
p2903
VV
p2904
sS'FL_DESC'
p2905
VInconsistency between measured and estimated conductivity, but considerd valid
p2906
stp2907
Rp2908
sI476
g1
(g2
g3
(dp2909
S'FL_FLAG'
p2910
I476
sS'FL_COMMENT'
p2911
NsS'SYSTIME'
p2912
g1
(g8
g9
(lp2913
g11
(S'\x07\xde\x05\x01\x00\x00\x00\x00\x00\x00'
p2914
tp2915
Rp2916
aNatp2917
Rp2918
(dp2919
g18
S'[)'
p2920
sbsS'FL_VALIDITY'
p2921
VV
p2922
sS'FL_DESC'
p2923
VInconsistency discovered through ion balance calculations, but considerd valid
p2924
stp2925
Rp2926
sI477
g1
(g2
g3
(dp2927
S'FL_FLAG'
p2928
I477
sS'FL_COMMENT'
p2929
NsS'SYSTIME'
p2930
g1
(g8
g9
(lp2931
g11
(S'\x07\xde\x05\x01\x00\x00\x00\x00\x00\x00'
p2932
tp2933
Rp2934
aNatp2935
Rp2936
(dp2937
g18
S'[)'
p2938
sbsS'FL_VALIDITY'
p2939
VI
p2940
sS'FL_DESC'
p2941
VInvalid due to inconsistency between measured and estimated conductivity
p2942
stp2943
Rp2944
sI478
g1
(g2
g3
(dp2945
S'FL_FLAG'
p2946
I478
sS'FL_COMMENT'
p2947
NsS'SYSTIME'
p2948
g1
(g8
g9
(lp2949
g11
(S'\x07\xde\x05\x01\x00\x00\x00\x00\x00\x00'
p2950
tp2951
Rp2952
aNatp2953
Rp2954
(dp2955
g18
S'[)'
p2956
sbsS'FL_VALIDITY'
p2957
VI
p2958
sS'FL_DESC'
p2959
VInvalid due to inconsistency discovered through ion balance calculations
p2960
stp2961
Rp2962
sI999
g1
(g2
g3
(dp2963
S'FL_FLAG'
p2964
I999
sS'FL_COMMENT'
p2965
NsS'SYSTIME'
p2966
g1
(g8
g9
(lp2967
g11
(S'\x07\xde\x05\x01\x00\x00\x00\x00\x00\x00'
p2968
tp2969
Rp2970
aNatp2971
Rp2972
(dp2973
g18
S'[)'
p2974
sbsS'FL_VALIDITY'
p2975
VM
p2976
sS'FL_DESC'
p2977
VMissing measurement, unspecified reason
p2978
stp2979
Rp2980
sI498
g1
(g2
g3
(dp2981
S'FL_FLAG'
p2982
I498
sS'FL_COMMENT'
p2983
NsS'SYSTIME'
p2984
g1
(g8
g9
(lp2985
g11
(S'\x07\xde\x05\x01\x00\x00\x00\x00\x00\x00'
p2986
tp2987
Rp2988
aNatp2989
Rp2990
(dp2991
g18
S'[)'
p2992
sbsS'FL_VALIDITY'
p2993
VV
p2994
sS'FL_DESC'
p2995
VGold trap inconsistency in mercury monitor
p2996
stp2997
Rp2998
sI499
g1
(g2
g3
(dp2999
S'FL_FLAG'
p3000
I499
sS'FL_COMMENT'
p3001
NsS'SYSTIME'
p3002
g1
(g8
g9
(lp3003
g11
(S'\x07\xde\x05\x01\x00\x00\x00\x00\x00\x00'
p3004
tp3005
Rp3006
aNatp3007
Rp3008
(dp3009
g18
S'[)'
p3010
sbsS'FL_VALIDITY'
p3011
VV
p3012
sS'FL_DESC'
p3013
VInconsistent with another unspecified measurement
p3014
stp3015
Rp3016
s.