(dp0
VDiffusion dryer
p1
ccopy_reg
_reconstructor
p2
(cnilutility.datatypes
DataObject
p3
c__builtin__
dict
p4
(dp5
S'HT_HUMIDITY_TEMP_CTRL'
p6
g1
sS'HT_DESC'
p7
NsS'HT_COMMENT'
p8
NsS'SYSTIME'
p9
g2
(cnilutility.datetime_helper
DatetimeInterval
p10
c__builtin__
list
p11
(lp12
cdatetime
datetime
p13
(S'\x07\xde\x05\x01\x00\x00\x00\x00\x00\x00'
p14
tp15
Rp16
aNatp17
Rp18
(dp19
S'bounds'
p20
S'[)'
p21
sbstp22
Rp23
sVHeating to 40% RH, limit 40 deg. C
p24
g2
(g3
g4
(dp25
S'HT_HUMIDITY_TEMP_CTRL'
p26
g24
sS'HT_DESC'
p27
NsS'HT_COMMENT'
p28
NsS'SYSTIME'
p29
g2
(g10
g11
(lp30
g13
(S'\x07\xde\x05\x01\x00\x00\x00\x00\x00\x00'
p31
tp32
Rp33
aNatp34
Rp35
(dp36
g20
S'[)'
p37
sbstp38
Rp39
sVNone
p40
g2
(g3
g4
(dp41
S'HT_HUMIDITY_TEMP_CTRL'
p42
g40
sS'HT_DESC'
p43
NsS'HT_COMMENT'
p44
NsS'SYSTIME'
p45
g2
(g10
g11
(lp46
g13
(S'\x07\xde\x05\x01\x00\x00\x00\x00\x00\x00'
p47
tp48
Rp49
aNatp50
Rp51
(dp52
g20
S'[)'
p53
sbstp54
Rp55
sVTemperature conditioning at 25 deg. C
p56
g2
(g3
g4
(dp57
S'HT_HUMIDITY_TEMP_CTRL'
p58
g56
sS'HT_DESC'
p59
NsS'HT_COMMENT'
p60
NsS'SYSTIME'
p61
g2
(g10
g11
(lp62
g13
(S'\x07\xde\x05\x01\x00\x00\x00\x00\x00\x00'
p63
tp64
Rp65
aNatp66
Rp67
(dp68
g20
S'[)'
p69
sbstp70
Rp71
sVTemperature conditioning at 50 deg. C
p72
g2
(g3
g4
(dp73
S'HT_HUMIDITY_TEMP_CTRL'
p74
g72
sS'HT_DESC'
p75
NsS'HT_COMMENT'
p76
NsS'SYSTIME'
p77
g2
(g10
g11
(lp78
g13
(S'\x07\xde\x05\x01\x00\x00\x00\x00\x00\x00'
p79
tp80
Rp81
aNatp82
Rp83
(dp84
g20
S'[)'
p85
sbstp86
Rp87
sVHumidification with temperature condition at ambient
p88
g2
(g3
g4
(dp89
S'HT_HUMIDITY_TEMP_CTRL'
p90
g88
sS'HT_DESC'
p91
NsS'HT_COMMENT'
p92
NsS'SYSTIME'
p93
g2
(g10
g11
(lp94
g13
(S'\x07\xde\x05\x01\x00\x00\x00\x00\x00\x00'
p95
tp96
Rp97
aNatp98
Rp99
(dp100
g20
S'[)'
p101
sbstp102
Rp103
sVAbsorption dryer
p104
g2
(g3
g4
(dp105
S'HT_HUMIDITY_TEMP_CTRL'
p106
g104
sS'HT_DESC'
p107
VE.g. Drierite, Silica, etc
p108
sS'HT_COMMENT'
p109
NsS'SYSTIME'
p110
g2
(g10
g11
(lp111
g13
(S'\x07\xe7\x04\x15\r$\x16\x062T'
p112
tp113
Rp114
aNatp115
Rp116
(dp117
g20
S'[)'
p118
sbstp119
Rp120
sVTemperature conditioning at 30 deg. C
p121
g2
(g3
g4
(dp122
S'HT_HUMIDITY_TEMP_CTRL'
p123
g121
sS'HT_DESC'
p124
NsS'HT_COMMENT'
p125
NsS'SYSTIME'
p126
g2
(g10
g11
(lp127
g13
(S'\x07\xde\x05\x01\x00\x00\x00\x00\x00\x00'
p128
tp129
Rp130
aNatp131
Rp132
(dp133
g20
S'[)'
p134
sbstp135
Rp136
sVTemperature controlled
p137
g2
(g3
g4
(dp138
S'HT_HUMIDITY_TEMP_CTRL'
p139
g137
sS'HT_DESC'
p140
NsS'HT_COMMENT'
p141
NsS'SYSTIME'
p142
g2
(g10
g11
(lp143
g13
(S'\x07\xde\x05\x01\x00\x00\x00\x00\x00\x00'
p144
tp145
Rp146
aNatp147
Rp148
(dp149
g20
S'[)'
p150
sbstp151
Rp152
sVOther (see metadata)
p153
g2
(g3
g4
(dp154
S'HT_HUMIDITY_TEMP_CTRL'
p155
g153
sS'HT_DESC'
p156
NsS'HT_COMMENT'
p157
NsS'SYSTIME'
p158
g2
(g10
g11
(lp159
g13
(S'\x07\xde\x05\x01\x00\x00\x00\x00\x00\x00'
p160
tp161
Rp162
aNatp163
Rp164
(dp165
g20
S'[)'
p166
sbstp167
Rp168
sVNafion dryer with temperature conditioning at 30 deg. C
p169
g2
(g3
g4
(dp170
S'HT_HUMIDITY_TEMP_CTRL'
p171
g169
sS'HT_DESC'
p172
NsS'HT_COMMENT'
p173
NsS'SYSTIME'
p174
g2
(g10
g11
(lp175
g13
(S'\x07\xde\x05\x01\x00\x00\x00\x00\x00\x00'
p176
tp177
Rp178
aNatp179
Rp180
(dp181
g20
S'[)'
p182
sbstp183
Rp184
sVTemperature conditioning at 40 deg. C
p185
g2
(g3
g4
(dp186
S'HT_HUMIDITY_TEMP_CTRL'
p187
g185
sS'HT_DESC'
p188
NsS'HT_COMMENT'
p189
NsS'SYSTIME'
p190
g2
(g10
g11
(lp191
g13
(S'\x07\xde\x05\x01\x00\x00\x00\x00\x00\x00'
p192
tp193
Rp194
aNatp195
Rp196
(dp197
g20
S'[)'
p198
sbstp199
Rp200
sVTemperature conditioning at ambient
p201
g2
(g3
g4
(dp202
S'HT_HUMIDITY_TEMP_CTRL'
p203
g201
sS'HT_DESC'
p204
NsS'HT_COMMENT'
p205
NsS'SYSTIME'
p206
g2
(g10
g11
(lp207
g13
(S'\x07\xde\x05\x01\x00\x00\x00\x00\x00\x00'
p208
tp209
Rp210
aNatp211
Rp212
(dp213
g20
S'[)'
p214
sbstp215
Rp216
sVDilution drying
p217
g2
(g3
g4
(dp218
S'HT_HUMIDITY_TEMP_CTRL'
p219
g217
sS'HT_DESC'
p220
NsS'HT_COMMENT'
p221
NsS'SYSTIME'
p222
g2
(g10
g11
(lp223
g13
(S'\x07\xde\x05\x01\x00\x00\x00\x00\x00\x00'
p224
tp225
Rp226
aNatp227
Rp228
(dp229
g20
S'[)'
p230
sbstp231
Rp232
sVHumidification
p233
g2
(g3
g4
(dp234
S'HT_HUMIDITY_TEMP_CTRL'
p235
g233
sS'HT_DESC'
p236
NsS'HT_COMMENT'
p237
NsS'SYSTIME'
p238
g2
(g10
g11
(lp239
g13
(S'\x07\xde\x05\x01\x00\x00\x00\x00\x00\x00'
p240
tp241
Rp242
aNatp243
Rp244
(dp245
g20
S'[)'
p246
sbstp247
Rp248
sVManual control (see metadata)
p249
g2
(g3
g4
(dp250
S'HT_HUMIDITY_TEMP_CTRL'
p251
g249
sS'HT_DESC'
p252
NsS'HT_COMMENT'
p253
NsS'SYSTIME'
p254
g2
(g10
g11
(lp255
g13
(S'\x07\xde\x05\x01\x00\x00\x00\x00\x00\x00'
p256
tp257
Rp258
aNatp259
Rp260
(dp261
g20
S'[)'
p262
sbstp263
Rp264
sVTemperature conditioning at 20 deg. C
p265
g2
(g3
g4
(dp266
S'HT_HUMIDITY_TEMP_CTRL'
p267
g265
sS'HT_DESC'
p268
NsS'HT_COMMENT'
p269
NsS'SYSTIME'
p270
g2
(g10
g11
(lp271
g13
(S'\x07\xde\x05\x01\x00\x00\x00\x00\x00\x00'
p272
tp273
Rp274
aNatp275
Rp276
(dp277
g20
S'[)'
p278
sbstp279
Rp280
sVNafion dryer
p281
g2
(g3
g4
(dp282
S'HT_HUMIDITY_TEMP_CTRL'
p283
g281
sS'HT_DESC'
p284
NsS'HT_COMMENT'
p285
NsS'SYSTIME'
p286
g2
(g10
g11
(lp287
g13
(S'\x07\xde\x05\x01\x00\x00\x00\x00\x00\x00'
p288
tp289
Rp290
aNatp291
Rp292
(dp293
g20
S'[)'
p294
sbstp295
Rp296
sVHumidification with temperature conditioning at 50 deg. C
p297
g2
(g3
g4
(dp298
S'HT_HUMIDITY_TEMP_CTRL'
p299
g297
sS'HT_DESC'
p300
NsS'HT_COMMENT'
p301
NsS'SYSTIME'
p302
g2
(g10
g11
(lp303
g13
(S'\x07\xde\x05\x01\x00\x00\x00\x00\x00\x00'
p304
tp305
Rp306
aNatp307
Rp308
(dp309
g20
S'[)'
p310
sbstp311
Rp312
s.