(dp0
(Vfilter_3pack
p1
VPUF (Polyurethane foam)
p2
tp3
ccopy_reg
_reconstructor
p4
(cnilutility.datatypes
DataObject
p5
c__builtin__
dict
p6
(dp7
S'FT_TYPE'
p8
g1
sS'SYSTIME'
p9
g4
(cnilutility.datetime_helper
DatetimeInterval
p10
c__builtin__
list
p11
(lp12
cdatetime
datetime
p13
(S'\x07\xde\x05\x01\x00\x00\x00\x00\x00\x00'
p14
tp15
Rp16
aNatp17
Rp18
(dp19
S'bounds'
p20
S'[)'
p21
sbsS'MD_MEDIUM'
p22
g2
sS'MD_DESC'
p23
NsS'MD_COMMENT'
p24
Nstp25
Rp26
s(Vfilter_3pack
p27
VNylon
p28
tp29
g4
(g5
g6
(dp30
S'FT_TYPE'
p31
g27
sS'SYSTIME'
p32
g4
(g10
g11
(lp33
g13
(S'\x07\xde\x05\x01\x00\x00\x00\x00\x00\x00'
p34
tp35
Rp36
aNatp37
Rp38
(dp39
g20
S'[)'
p40
sbsS'MD_MEDIUM'
p41
g28
sS'MD_DESC'
p42
NsS'MD_COMMENT'
p43
Nstp44
Rp45
s(Vhigh_vol_sampler
p46
VGlass fiber
p47
tp48
g4
(g5
g6
(dp49
S'FT_TYPE'
p50
g46
sS'SYSTIME'
p51
g4
(g10
g11
(lp52
g13
(S'\x07\xde\x05\x01\x00\x00\x00\x00\x00\x00'
p53
tp54
Rp55
aNatp56
Rp57
(dp58
g20
S'[)'
p59
sbsS'MD_MEDIUM'
p60
g47
sS'MD_DESC'
p61
NsS'MD_COMMENT'
p62
Nstp63
Rp64
s(Vfilter_2pack
p65
VTeflon+cellulose
p66
tp67
g4
(g5
g6
(dp68
S'FT_TYPE'
p69
g65
sS'SYSTIME'
p70
g4
(g10
g11
(lp71
g13
(S'\x07\xde\x05\x01\x00\x00\x00\x00\x00\x00'
p72
tp73
Rp74
aNatp75
Rp76
(dp77
g20
S'[)'
p78
sbsS'MD_MEDIUM'
p79
g66
sS'MD_DESC'
p80
NsS'MD_COMMENT'
p81
Nstp82
Rp83
s(Vfilter_3pack
p84
VTeflon+cellulose
p85
tp86
g4
(g5
g6
(dp87
S'FT_TYPE'
p88
g84
sS'SYSTIME'
p89
g4
(g10
g11
(lp90
g13
(S'\x07\xde\x05\x01\x00\x00\x00\x00\x00\x00'
p91
tp92
Rp93
aNatp94
Rp95
(dp96
g20
S'[)'
p97
sbsS'MD_MEDIUM'
p98
g85
sS'MD_DESC'
p99
NsS'MD_COMMENT'
p100
Nstp101
Rp102
s(Vfilter_3pack
p103
VFilter+PUF (Polyurethane foam)
p104
tp105
g4
(g5
g6
(dp106
S'FT_TYPE'
p107
g103
sS'SYSTIME'
p108
g4
(g10
g11
(lp109
g13
(S'\x07\xde\x05\x01\x00\x00\x00\x00\x00\x00'
p110
tp111
Rp112
aNatp113
Rp114
(dp115
g20
S'[)'
p116
sbsS'MD_MEDIUM'
p117
g104
sS'MD_DESC'
p118
NsS'MD_COMMENT'
p119
Nstp120
Rp121
s(Vfilter_2pack
p122
VTeflon+nylon
p123
tp124
g4
(g5
g6
(dp125
S'FT_TYPE'
p126
g122
sS'SYSTIME'
p127
g4
(g10
g11
(lp128
g13
(S'\x07\xde\x05\x01\x00\x00\x00\x00\x00\x00'
p129
tp130
Rp131
aNatp132
Rp133
(dp134
g20
S'[)'
p135
sbsS'MD_MEDIUM'
p136
g123
sS'MD_DESC'
p137
NsS'MD_COMMENT'
p138
Nstp139
Rp140
s(Vfilter_4pack
p141
VCellulose+nylon
p142
tp143
g4
(g5
g6
(dp144
S'FT_TYPE'
p145
g141
sS'SYSTIME'
p146
g4
(g10
g11
(lp147
g13
(S'\x07\xde\x05\x01\x00\x00\x00\x00\x00\x00'
p148
tp149
Rp150
aNatp151
Rp152
(dp153
g20
S'[)'
p154
sbsS'MD_MEDIUM'
p155
g142
sS'MD_DESC'
p156
NsS'MD_COMMENT'
p157
Nstp158
Rp159
s(Vlow_vol_sampler
p160
VTeflon+PUF
p161
tp162
g4
(g5
g6
(dp163
S'FT_TYPE'
p164
g160
sS'SYSTIME'
p165
g4
(g10
g11
(lp166
g13
(S'\x07\xde\x05\x01\x00\x00\x00\x00\x00\x00'
p167
tp168
Rp169
aNatp170
Rp171
(dp172
g20
S'[)'
p173
sbsS'MD_MEDIUM'
p174
g161
sS'MD_DESC'
p175
NsS'MD_COMMENT'
p176
Nstp177
Rp178
s(Vfilter_4pack
p179
VCellulose
p180
tp181
g4
(g5
g6
(dp182
S'FT_TYPE'
p183
g179
sS'SYSTIME'
p184
g4
(g10
g11
(lp185
g13
(S'\x07\xde\x05\x01\x00\x00\x00\x00\x00\x00'
p186
tp187
Rp188
aNatp189
Rp190
(dp191
g20
S'[)'
p192
sbsS'MD_MEDIUM'
p193
g180
sS'MD_DESC'
p194
NsS'MD_COMMENT'
p195
Nstp196
Rp197
s(Vpassive_sampler
p198
VQuartz
p199
tp200
g4
(g5
g6
(dp201
S'FT_TYPE'
p202
g198
sS'SYSTIME'
p203
g4
(g10
g11
(lp204
g13
(S'\x07\xde\x05\x01\x00\x00\x00\x00\x00\x00'
p205
tp206
Rp207
aNatp208
Rp209
(dp210
g20
S'[)'
p211
sbsS'MD_MEDIUM'
p212
g199
sS'MD_DESC'
p213
NsS'MD_COMMENT'
p214
Nstp215
Rp216
s(Vhigh_vol_sampler
p217
VTeflon+PUF+XAD+PUF
p218
tp219
g4
(g5
g6
(dp220
S'FT_TYPE'
p221
g217
sS'SYSTIME'
p222
g4
(g10
g11
(lp223
g13
(S'\x07\xde\x05\x01\x00\x00\x00\x00\x00\x00'
p224
tp225
Rp226
aNatp227
Rp228
(dp229
g20
S'[)'
p230
sbsS'MD_MEDIUM'
p231
g218
sS'MD_DESC'
p232
NsS'MD_COMMENT'
p233
Nstp234
Rp235
s(Vlow_vol_sampler
p236
VGlass fiber+PUF
p237
tp238
g4
(g5
g6
(dp239
S'FT_TYPE'
p240
g236
sS'SYSTIME'
p241
g4
(g10
g11
(lp242
g13
(S'\x07\xde\x05\x01\x00\x00\x00\x00\x00\x00'
p243
tp244
Rp245
aNatp246
Rp247
(dp248
g20
S'[)'
p249
sbsS'MD_MEDIUM'
p250
g237
sS'MD_DESC'
p251
NsS'MD_COMMENT'
p252
Nstp253
Rp254
s(Vfilter_4pack
p255
VTeflon+cellulose
p256
tp257
g4
(g5
g6
(dp258
S'FT_TYPE'
p259
g255
sS'SYSTIME'
p260
g4
(g10
g11
(lp261
g13
(S'\x07\xde\x05\x01\x00\x00\x00\x00\x00\x00'
p262
tp263
Rp264
aNatp265
Rp266
(dp267
g20
S'[)'
p268
sbsS'MD_MEDIUM'
p269
g256
sS'MD_DESC'
p270
NsS'MD_COMMENT'
p271
Nstp272
Rp273
s(Vhigh_vol_sampler
p274
VNylon
p275
tp276
g4
(g5
g6
(dp277
S'FT_TYPE'
p278
g274
sS'SYSTIME'
p279
g4
(g10
g11
(lp280
g13
(S'\x07\xde\x05\x01\x00\x00\x00\x00\x00\x00'
p281
tp282
Rp283
aNatp284
Rp285
(dp286
g20
S'[)'
p287
sbsS'MD_MEDIUM'
p288
g275
sS'MD_DESC'
p289
NsS'MD_COMMENT'
p290
Nstp291
Rp292
s(Vfilter_3pack
p293
VTeflon-coated glass
p294
tp295
g4
(g5
g6
(dp296
S'FT_TYPE'
p297
g293
sS'SYSTIME'
p298
g4
(g10
g11
(lp299
g13
(S'\x07\xde\x05\x01\x00\x00\x00\x00\x00\x00'
p300
tp301
Rp302
aNatp303
Rp304
(dp305
g20
S'[)'
p306
sbsS'MD_MEDIUM'
p307
g294
sS'MD_DESC'
p308
NsS'MD_COMMENT'
p309
Nstp310
Rp311
s(Vlow_vol_sampler
p312
VTeflon
p313
tp314
g4
(g5
g6
(dp315
S'FT_TYPE'
p316
g312
sS'SYSTIME'
p317
g4
(g10
g11
(lp318
g13
(S'\x07\xde\x05\x01\x00\x00\x00\x00\x00\x00'
p319
tp320
Rp321
aNatp322
Rp323
(dp324
g20
S'[)'
p325
sbsS'MD_MEDIUM'
p326
g313
sS'MD_DESC'
p327
NsS'MD_COMMENT'
p328
Nstp329
Rp330
s(Vlow_vol_sampler
p331
VCellulose
p332
tp333
g4
(g5
g6
(dp334
S'FT_TYPE'
p335
g331
sS'SYSTIME'
p336
g4
(g10
g11
(lp337
g13
(S'\x07\xde\x05\x01\x00\x00\x00\x00\x00\x00'
p338
tp339
Rp340
aNatp341
Rp342
(dp343
g20
S'[)'
p344
sbsS'MD_MEDIUM'
p345
g332
sS'MD_DESC'
p346
NsS'MD_COMMENT'
p347
Nstp348
Rp349
s(Vfilter_1pack
p350
VCellulose+nylon
p351
tp352
g4
(g5
g6
(dp353
S'FT_TYPE'
p354
g350
sS'SYSTIME'
p355
g4
(g10
g11
(lp356
g13
(S'\x07\xde\x05\x01\x00\x00\x00\x00\x00\x00'
p357
tp358
Rp359
aNatp360
Rp361
(dp362
g20
S'[)'
p363
sbsS'MD_MEDIUM'
p364
g351
sS'MD_DESC'
p365
NsS'MD_COMMENT'
p366
Nstp367
Rp368
s(Vfilter_3pack
p369
VFilter--other
p370
tp371
g4
(g5
g6
(dp372
S'FT_TYPE'
p373
g369
sS'SYSTIME'
p374
g4
(g10
g11
(lp375
g13
(S'\x07\xde\x05\x01\x00\x00\x00\x00\x00\x00'
p376
tp377
Rp378
aNatp379
Rp380
(dp381
g20
S'[)'
p382
sbsS'MD_MEDIUM'
p383
g370
sS'MD_DESC'
p384
NsS'MD_COMMENT'
p385
Nstp386
Rp387
s(Vfilter_3pack
p388
VCoating or absorbing solution
p389
tp390
g4
(g5
g6
(dp391
S'FT_TYPE'
p392
g388
sS'SYSTIME'
p393
g4
(g10
g11
(lp394
g13
(S'\x07\xde\x05\x01\x00\x00\x00\x00\x00\x00'
p395
tp396
Rp397
aNatp398
Rp399
(dp400
g20
S'[)'
p401
sbsS'MD_MEDIUM'
p402
g389
sS'MD_DESC'
p403
NsS'MD_COMMENT'
p404
Nstp405
Rp406
s(Vfilter_3pack
p407
VTeflon+nylon
p408
tp409
g4
(g5
g6
(dp410
S'FT_TYPE'
p411
g407
sS'SYSTIME'
p412
g4
(g10
g11
(lp413
g13
(S'\x07\xde\x05\x01\x00\x00\x00\x00\x00\x00'
p414
tp415
Rp416
aNatp417
Rp418
(dp419
g20
S'[)'
p420
sbsS'MD_MEDIUM'
p421
g408
sS'MD_DESC'
p422
NsS'MD_COMMENT'
p423
Nstp424
Rp425
s(Vlow_vol_sampler
p426
VCellulose+nylon
p427
tp428
g4
(g5
g6
(dp429
S'FT_TYPE'
p430
g426
sS'SYSTIME'
p431
g4
(g10
g11
(lp432
g13
(S'\x07\xde\x05\x01\x00\x00\x00\x00\x00\x00'
p433
tp434
Rp435
aNatp436
Rp437
(dp438
g20
S'[)'
p439
sbsS'MD_MEDIUM'
p440
g427
sS'MD_DESC'
p441
NsS'MD_COMMENT'
p442
Nstp443
Rp444
s(Vglass_sinter
p445
VSintered glass
p446
tp447
g4
(g5
g6
(dp448
S'FT_TYPE'
p449
g445
sS'SYSTIME'
p450
g4
(g10
g11
(lp451
g13
(S'\x07\xde\x05\x01\x00\x00\x00\x00\x00\x00'
p452
tp453
Rp454
aNatp455
Rp456
(dp457
g20
S'[)'
p458
sbsS'MD_MEDIUM'
p459
g446
sS'MD_DESC'
p460
NsS'MD_COMMENT'
p461
Nstp462
Rp463
s(Vlow_vol_sampler
p464
VTeflon+cellulose
p465
tp466
g4
(g5
g6
(dp467
S'FT_TYPE'
p468
g464
sS'SYSTIME'
p469
g4
(g10
g11
(lp470
g13
(S'\x07\xde\x05\x01\x00\x00\x00\x00\x00\x00'
p471
tp472
Rp473
aNatp474
Rp475
(dp476
g20
S'[)'
p477
sbsS'MD_MEDIUM'
p478
g465
sS'MD_DESC'
p479
NsS'MD_COMMENT'
p480
Nstp481
Rp482
s(Vfilter_1pack
p483
VQuartz
p484
tp485
g4
(g5
g6
(dp486
S'FT_TYPE'
p487
g483
sS'SYSTIME'
p488
g4
(g10
g11
(lp489
g13
(S'\x07\xde\x05\x01\x00\x00\x00\x00\x00\x00'
p490
tp491
Rp492
aNatp493
Rp494
(dp495
g20
S'[)'
p496
sbsS'MD_MEDIUM'
p497
g484
sS'MD_DESC'
p498
NsS'MD_COMMENT'
p499
Nstp500
Rp501
s(Vpassive_sampler
p502
VTeflon
p503
tp504
g4
(g5
g6
(dp505
S'FT_TYPE'
p506
g502
sS'SYSTIME'
p507
g4
(g10
g11
(lp508
g13
(S'\x07\xde\x05\x01\x00\x00\x00\x00\x00\x00'
p509
tp510
Rp511
aNatp512
Rp513
(dp514
g20
S'[)'
p515
sbsS'MD_MEDIUM'
p516
g503
sS'MD_DESC'
p517
NsS'MD_COMMENT'
p518
Nstp519
Rp520
s(Vlow_vol_sampler
p521
VGlass fiber
p522
tp523
g4
(g5
g6
(dp524
S'FT_TYPE'
p525
g521
sS'SYSTIME'
p526
g4
(g10
g11
(lp527
g13
(S'\x07\xde\x05\x01\x00\x00\x00\x00\x00\x00'
p528
tp529
Rp530
aNatp531
Rp532
(dp533
g20
S'[)'
p534
sbsS'MD_MEDIUM'
p535
g522
sS'MD_DESC'
p536
NsS'MD_COMMENT'
p537
Nstp538
Rp539
s(Vfilter_3pack
p540
VSilica
p541
tp542
g4
(g5
g6
(dp543
S'FT_TYPE'
p544
g540
sS'SYSTIME'
p545
g4
(g10
g11
(lp546
g13
(S'\x07\xde\x05\x01\x00\x00\x00\x00\x00\x00'
p547
tp548
Rp549
aNatp550
Rp551
(dp552
g20
S'[)'
p553
sbsS'MD_MEDIUM'
p554
g541
sS'MD_DESC'
p555
NsS'MD_COMMENT'
p556
Nstp557
Rp558
s(Vhigh_vol_sampler
p559
VMixed cellulose ester
p560
tp561
g4
(g5
g6
(dp562
S'FT_TYPE'
p563
g559
sS'SYSTIME'
p564
g4
(g10
g11
(lp565
g13
(S'\x07\xde\x05\x01\x00\x00\x00\x00\x00\x00'
p566
tp567
Rp568
aNatp569
Rp570
(dp571
g20
S'[)'
p572
sbsS'MD_MEDIUM'
p573
g560
sS'MD_DESC'
p574
NsS'MD_COMMENT'
p575
Nstp576
Rp577
s(Vfilter_3pack
p578
VImpaction surface
p579
tp580
g4
(g5
g6
(dp581
S'FT_TYPE'
p582
g578
sS'SYSTIME'
p583
g4
(g10
g11
(lp584
g13
(S'\x07\xde\x05\x01\x00\x00\x00\x00\x00\x00'
p585
tp586
Rp587
aNatp588
Rp589
(dp590
g20
S'[)'
p591
sbsS'MD_MEDIUM'
p592
g579
sS'MD_DESC'
p593
NsS'MD_COMMENT'
p594
Nstp595
Rp596
s(Vhigh_vol_sampler
p597
VTeflon+cellulose
p598
tp599
g4
(g5
g6
(dp600
S'FT_TYPE'
p601
g597
sS'SYSTIME'
p602
g4
(g10
g11
(lp603
g13
(S'\x07\xde\x05\x01\x00\x00\x00\x00\x00\x00'
p604
tp605
Rp606
aNatp607
Rp608
(dp609
g20
S'[)'
p610
sbsS'MD_MEDIUM'
p611
g598
sS'MD_DESC'
p612
NsS'MD_COMMENT'
p613
Nstp614
Rp615
s(Vpassive_sampler
p616
VXAD
p617
tp618
g4
(g5
g6
(dp619
S'FT_TYPE'
p620
g616
sS'SYSTIME'
p621
g4
(g10
g11
(lp622
g13
(S'\x07\xde\x05\x01\x00\x00\x00\x00\x00\x00'
p623
tp624
Rp625
aNatp626
Rp627
(dp628
g20
S'[)'
p629
sbsS'MD_MEDIUM'
p630
g617
sS'MD_DESC'
p631
NsS'MD_COMMENT'
p632
Nstp633
Rp634
s(Vhigh_vol_sampler
p635
VPUF+XAD+PUF
p636
tp637
g4
(g5
g6
(dp638
S'FT_TYPE'
p639
g635
sS'SYSTIME'
p640
g4
(g10
g11
(lp641
g13
(S'\x07\xe9\x0b\x1a\r*\x07\x0b[\xd6'
p642
tp643
Rp644
aNatp645
Rp646
(dp647
g20
S'[)'
p648
sbsS'MD_MEDIUM'
p649
g636
sS'MD_DESC'
p650
NsS'MD_COMMENT'
p651
Nstp652
Rp653
s(Vpassive_sampler
p654
VCellulose
p655
tp656
g4
(g5
g6
(dp657
S'FT_TYPE'
p658
g654
sS'SYSTIME'
p659
g4
(g10
g11
(lp660
g13
(S'\x07\xde\x05\x01\x00\x00\x00\x00\x00\x00'
p661
tp662
Rp663
aNatp664
Rp665
(dp666
g20
S'[)'
p667
sbsS'MD_MEDIUM'
p668
g655
sS'MD_DESC'
p669
NsS'MD_COMMENT'
p670
Nstp671
Rp672
s(Vfilter_3pack
p673
VGlass fiber
p674
tp675
g4
(g5
g6
(dp676
S'FT_TYPE'
p677
g673
sS'SYSTIME'
p678
g4
(g10
g11
(lp679
g13
(S'\x07\xde\x05\x01\x00\x00\x00\x00\x00\x00'
p680
tp681
Rp682
aNatp683
Rp684
(dp685
g20
S'[)'
p686
sbsS'MD_MEDIUM'
p687
g674
sS'MD_DESC'
p688
NsS'MD_COMMENT'
p689
Nstp690
Rp691
s(Vlow_vol_sampler
p692
VPUF+XAD+PUF
p693
tp694
g4
(g5
g6
(dp695
S'FT_TYPE'
p696
g692
sS'SYSTIME'
p697
g4
(g10
g11
(lp698
g13
(S'\x07\xe9\x0b\x1a\r*\x07\x0bv\x07'
p699
tp700
Rp701
aNatp702
Rp703
(dp704
g20
S'[)'
p705
sbsS'MD_MEDIUM'
p706
g693
sS'MD_DESC'
p707
NsS'MD_COMMENT'
p708
Nstp709
Rp710
s(Vlow_vol_sampler
p711
VMixed cellulose ester
p712
tp713
g4
(g5
g6
(dp714
S'FT_TYPE'
p715
g711
sS'SYSTIME'
p716
g4
(g10
g11
(lp717
g13
(S'\x07\xde\x05\x01\x00\x00\x00\x00\x00\x00'
p718
tp719
Rp720
aNatp721
Rp722
(dp723
g20
S'[)'
p724
sbsS'MD_MEDIUM'
p725
g712
sS'MD_DESC'
p726
NsS'MD_COMMENT'
p727
Nstp728
Rp729
s(Vfilter_3pack
p730
VCellulose+nylon
p731
tp732
g4
(g5
g6
(dp733
S'FT_TYPE'
p734
g730
sS'SYSTIME'
p735
g4
(g10
g11
(lp736
g13
(S'\x07\xde\x05\x01\x00\x00\x00\x00\x00\x00'
p737
tp738
Rp739
aNatp740
Rp741
(dp742
g20
S'[)'
p743
sbsS'MD_MEDIUM'
p744
g731
sS'MD_DESC'
p745
NsS'MD_COMMENT'
p746
Nstp747
Rp748
s(Vhigh_vol_sampler
p749
VCellulose
p750
tp751
g4
(g5
g6
(dp752
S'FT_TYPE'
p753
g749
sS'SYSTIME'
p754
g4
(g10
g11
(lp755
g13
(S'\x07\xde\x05\x01\x00\x00\x00\x00\x00\x00'
p756
tp757
Rp758
aNatp759
Rp760
(dp761
g20
S'[)'
p762
sbsS'MD_MEDIUM'
p763
g750
sS'MD_DESC'
p764
NsS'MD_COMMENT'
p765
Nstp766
Rp767
s(Vfilter_1pack
p768
VCellulose
p769
tp770
g4
(g5
g6
(dp771
S'FT_TYPE'
p772
g768
sS'SYSTIME'
p773
g4
(g10
g11
(lp774
g13
(S'\x07\xde\x05\x01\x00\x00\x00\x00\x00\x00'
p775
tp776
Rp777
aNatp778
Rp779
(dp780
g20
S'[)'
p781
sbsS'MD_MEDIUM'
p782
g769
sS'MD_DESC'
p783
NsS'MD_COMMENT'
p784
Nstp785
Rp786
s(Vhigh_vol_sampler
p787
VTeflon
p788
tp789
g4
(g5
g6
(dp790
S'FT_TYPE'
p791
g787
sS'SYSTIME'
p792
g4
(g10
g11
(lp793
g13
(S'\x07\xde\x05\x01\x00\x00\x00\x00\x00\x00'
p794
tp795
Rp796
aNatp797
Rp798
(dp799
g20
S'[)'
p800
sbsS'MD_MEDIUM'
p801
g788
sS'MD_DESC'
p802
NsS'MD_COMMENT'
p803
Nstp804
Rp805
s(Vpassive_sampler
p806
VNylon
p807
tp808
g4
(g5
g6
(dp809
S'FT_TYPE'
p810
g806
sS'SYSTIME'
p811
g4
(g10
g11
(lp812
g13
(S'\x07\xde\x05\x01\x00\x00\x00\x00\x00\x00'
p813
tp814
Rp815
aNatp816
Rp817
(dp818
g20
S'[)'
p819
sbsS'MD_MEDIUM'
p820
g807
sS'MD_DESC'
p821
NsS'MD_COMMENT'
p822
Nstp823
Rp824
s(Vfilter_absorption_photometer
p825
VQuartz
p826
tp827
g4
(g5
g6
(dp828
S'FT_TYPE'
p829
g825
sS'SYSTIME'
p830
g4
(g10
g11
(lp831
g13
(S'\x07\xde\x05\x01\x00\x00\x00\x00\x00\x00'
p832
tp833
Rp834
aNatp835
Rp836
(dp837
g20
S'[)'
p838
sbsS'MD_MEDIUM'
p839
g826
sS'MD_DESC'
p840
NsS'MD_COMMENT'
p841
Nstp842
Rp843
s(Vfilter_1pack
p844
VMixed cellulose ester
p845
tp846
g4
(g5
g6
(dp847
S'FT_TYPE'
p848
g844
sS'SYSTIME'
p849
g4
(g10
g11
(lp850
g13
(S'\x07\xde\x05\x01\x00\x00\x00\x00\x00\x00'
p851
tp852
Rp853
aNatp854
Rp855
(dp856
g20
S'[)'
p857
sbsS'MD_MEDIUM'
p858
g845
sS'MD_DESC'
p859
NsS'MD_COMMENT'
p860
Nstp861
Rp862
s(Vimpactor
p863
VTeflon
p864
tp865
g4
(g5
g6
(dp866
S'FT_TYPE'
p867
g863
sS'SYSTIME'
p868
g4
(g10
g11
(lp869
g13
(S'\x07\xde\x05\x01\x00\x00\x00\x00\x00\x00'
p870
tp871
Rp872
aNatp873
Rp874
(dp875
g20
S'[)'
p876
sbsS'MD_MEDIUM'
p877
g864
sS'MD_DESC'
p878
NsS'MD_COMMENT'
p879
Nstp880
Rp881
s(Vlow_vol_sampler
p882
VTeflon+PUF+XAD+PUF
p883
tp884
g4
(g5
g6
(dp885
S'FT_TYPE'
p886
g882
sS'SYSTIME'
p887
g4
(g10
g11
(lp888
g13
(S'\x07\xde\x05\x01\x00\x00\x00\x00\x00\x00'
p889
tp890
Rp891
aNatp892
Rp893
(dp894
g20
S'[)'
p895
sbsS'MD_MEDIUM'
p896
g883
sS'MD_DESC'
p897
NsS'MD_COMMENT'
p898
Nstp899
Rp900
s(Vhigh_vol_sampler
p901
VTeflon+PUF
p902
tp903
g4
(g5
g6
(dp904
S'FT_TYPE'
p905
g901
sS'SYSTIME'
p906
g4
(g10
g11
(lp907
g13
(S'\x07\xde\x05\x01\x00\x00\x00\x00\x00\x00'
p908
tp909
Rp910
aNatp911
Rp912
(dp913
g20
S'[)'
p914
sbsS'MD_MEDIUM'
p915
g902
sS'MD_DESC'
p916
NsS'MD_COMMENT'
p917
Nstp918
Rp919
s(Vfilter_1pack
p920
VTeflon+nylon
p921
tp922
g4
(g5
g6
(dp923
S'FT_TYPE'
p924
g920
sS'SYSTIME'
p925
g4
(g10
g11
(lp926
g13
(S'\x07\xde\x05\x01\x00\x00\x00\x00\x00\x00'
p927
tp928
Rp929
aNatp930
Rp931
(dp932
g20
S'[)'
p933
sbsS'MD_MEDIUM'
p934
g921
sS'MD_DESC'
p935
NsS'MD_COMMENT'
p936
Nstp937
Rp938
s(Vfilter_2pack
p939
VCellulose
p940
tp941
g4
(g5
g6
(dp942
S'FT_TYPE'
p943
g939
sS'SYSTIME'
p944
g4
(g10
g11
(lp945
g13
(S'\x07\xde\x05\x01\x00\x00\x00\x00\x00\x00'
p946
tp947
Rp948
aNatp949
Rp950
(dp951
g20
S'[)'
p952
sbsS'MD_MEDIUM'
p953
g940
sS'MD_DESC'
p954
NsS'MD_COMMENT'
p955
Nstp956
Rp957
s(Vfilter_3pack
p958
VTeflon
p959
tp960
g4
(g5
g6
(dp961
S'FT_TYPE'
p962
g958
sS'SYSTIME'
p963
g4
(g10
g11
(lp964
g13
(S'\x07\xde\x05\x01\x00\x00\x00\x00\x00\x00'
p965
tp966
Rp967
aNatp968
Rp969
(dp970
g20
S'[)'
p971
sbsS'MD_MEDIUM'
p972
g959
sS'MD_DESC'
p973
NsS'MD_COMMENT'
p974
Nstp975
Rp976
s(Vonline_thermal-optical_analysis
p977
VQuartz
p978
tp979
g4
(g5
g6
(dp980
S'FT_TYPE'
p981
g977
sS'SYSTIME'
p982
g4
(g10
g11
(lp983
g13
(S'\x07\xde\x05\x01\x00\x00\x00\x00\x00\x00'
p984
tp985
Rp986
aNatp987
Rp988
(dp989
g20
S'[)'
p990
sbsS'MD_MEDIUM'
p991
g978
sS'MD_DESC'
p992
NsS'MD_COMMENT'
p993
Nstp994
Rp995
s(Vhigh_vol_sampler
p996
VCellulose+nylon
p997
tp998
g4
(g5
g6
(dp999
S'FT_TYPE'
p1000
g996
sS'SYSTIME'
p1001
g4
(g10
g11
(lp1002
g13
(S'\x07\xde\x05\x01\x00\x00\x00\x00\x00\x00'
p1003
tp1004
Rp1005
aNatp1006
Rp1007
(dp1008
g20
S'[)'
p1009
sbsS'MD_MEDIUM'
p1010
g997
sS'MD_DESC'
p1011
NsS'MD_COMMENT'
p1012
Nstp1013
Rp1014
s(Vfilter_1pack
p1015
VTeflon+cellulose
p1016
tp1017
g4
(g5
g6
(dp1018
S'FT_TYPE'
p1019
g1015
sS'SYSTIME'
p1020
g4
(g10
g11
(lp1021
g13
(S'\x07\xde\x05\x01\x00\x00\x00\x00\x00\x00'
p1022
tp1023
Rp1024
aNatp1025
Rp1026
(dp1027
g20
S'[)'
p1028
sbsS'MD_MEDIUM'
p1029
g1016
sS'MD_DESC'
p1030
NsS'MD_COMMENT'
p1031
Nstp1032
Rp1033
s(Vpassive_sampler
p1034
VPUF (Polyurethane foam)
p1035
tp1036
g4
(g5
g6
(dp1037
S'FT_TYPE'
p1038
g1034
sS'SYSTIME'
p1039
g4
(g10
g11
(lp1040
g13
(S'\x07\xde\x05\x01\x00\x00\x00\x00\x00\x00'
p1041
tp1042
Rp1043
aNatp1044
Rp1045
(dp1046
g20
S'[)'
p1047
sbsS'MD_MEDIUM'
p1048
g1035
sS'MD_DESC'
p1049
NsS'MD_COMMENT'
p1050
Nstp1051
Rp1052
s(Vfilter_4pack
p1053
VNylon
p1054
tp1055
g4
(g5
g6
(dp1056
S'FT_TYPE'
p1057
g1053
sS'SYSTIME'
p1058
g4
(g10
g11
(lp1059
g13
(S'\x07\xde\x05\x01\x00\x00\x00\x00\x00\x00'
p1060
tp1061
Rp1062
aNatp1063
Rp1064
(dp1065
g20
S'[)'
p1066
sbsS'MD_MEDIUM'
p1067
g1054
sS'MD_DESC'
p1068
NsS'MD_COMMENT'
p1069
Nstp1070
Rp1071
s(Vlow_vol_sampler
p1072
VGlass fiber+PUF+PUF
p1073
tp1074
g4
(g5
g6
(dp1075
S'FT_TYPE'
p1076
g1072
sS'SYSTIME'
p1077
g4
(g10
g11
(lp1078
g13
(S'\x07\xde\x05\x01\x00\x00\x00\x00\x00\x00'
p1079
tp1080
Rp1081
aNatp1082
Rp1083
(dp1084
g20
S'[)'
p1085
sbsS'MD_MEDIUM'
p1086
g1073
sS'MD_DESC'
p1087
NsS'MD_COMMENT'
p1088
Nstp1089
Rp1090
s(Vgold_trap
p1091
VGold
p1092
tp1093
g4
(g5
g6
(dp1094
S'FT_TYPE'
p1095
g1091
sS'SYSTIME'
p1096
g4
(g10
g11
(lp1097
g13
(S'\x07\xde\x05\x01\x00\x00\x00\x00\x00\x00'
p1098
tp1099
Rp1100
aNatp1101
Rp1102
(dp1103
g20
S'[)'
p1104
sbsS'MD_MEDIUM'
p1105
g1092
sS'MD_DESC'
p1106
NsS'MD_COMMENT'
p1107
Nstp1108
Rp1109
s(Vfilter_3pack
p1110
VTeflon membrane
p1111
tp1112
g4
(g5
g6
(dp1113
S'FT_TYPE'
p1114
g1110
sS'SYSTIME'
p1115
g4
(g10
g11
(lp1116
g13
(S'\x07\xde\x05\x01\x00\x00\x00\x00\x00\x00'
p1117
tp1118
Rp1119
aNatp1120
Rp1121
(dp1122
g20
S'[)'
p1123
sbsS'MD_MEDIUM'
p1124
g1111
sS'MD_DESC'
p1125
NsS'MD_COMMENT'
p1126
Nstp1127
Rp1128
s(Vfilter_3pack
p1129
VGold
p1130
tp1131
g4
(g5
g6
(dp1132
S'FT_TYPE'
p1133
g1129
sS'SYSTIME'
p1134
g4
(g10
g11
(lp1135
g13
(S'\x07\xde\x05\x01\x00\x00\x00\x00\x00\x00'
p1136
tp1137
Rp1138
aNatp1139
Rp1140
(dp1141
g20
S'[)'
p1142
sbsS'MD_MEDIUM'
p1143
g1130
sS'MD_DESC'
p1144
NsS'MD_COMMENT'
p1145
Nstp1146
Rp1147
s(Vlow_vol_sampler
p1148
VFilter+PUF (Polyurethane foam)
p1149
tp1150
g4
(g5
g6
(dp1151
S'FT_TYPE'
p1152
g1148
sS'SYSTIME'
p1153
g4
(g10
g11
(lp1154
g13
(S'\x07\xde\x05\x01\x00\x00\x00\x00\x00\x00'
p1155
tp1156
Rp1157
aNatp1158
Rp1159
(dp1160
g20
S'[)'
p1161
sbsS'MD_MEDIUM'
p1162
g1149
sS'MD_DESC'
p1163
NsS'MD_COMMENT'
p1164
Nstp1165
Rp1166
s(Vfilter_2pack
p1167
VMixed cellulose ester
p1168
tp1169
g4
(g5
g6
(dp1170
S'FT_TYPE'
p1171
g1167
sS'SYSTIME'
p1172
g4
(g10
g11
(lp1173
g13
(S'\x07\xde\x05\x01\x00\x00\x00\x00\x00\x00'
p1174
tp1175
Rp1176
aNatp1177
Rp1178
(dp1179
g20
S'[)'
p1180
sbsS'MD_MEDIUM'
p1181
g1168
sS'MD_DESC'
p1182
NsS'MD_COMMENT'
p1183
Nstp1184
Rp1185
s(Vhigh_vol_sampler
p1186
VQuartz
p1187
tp1188
g4
(g5
g6
(dp1189
S'FT_TYPE'
p1190
g1186
sS'SYSTIME'
p1191
g4
(g10
g11
(lp1192
g13
(S'\x07\xde\x05\x01\x00\x00\x00\x00\x00\x00'
p1193
tp1194
Rp1195
aNatp1196
Rp1197
(dp1198
g20
S'[)'
p1199
sbsS'MD_MEDIUM'
p1200
g1187
sS'MD_DESC'
p1201
NsS'MD_COMMENT'
p1202
Nstp1203
Rp1204
s(Vlow_vol_sampler
p1205
VNylon
p1206
tp1207
g4
(g5
g6
(dp1208
S'FT_TYPE'
p1209
g1205
sS'SYSTIME'
p1210
g4
(g10
g11
(lp1211
g13
(S'\x07\xde\x05\x01\x00\x00\x00\x00\x00\x00'
p1212
tp1213
Rp1214
aNatp1215
Rp1216
(dp1217
g20
S'[)'
p1218
sbsS'MD_MEDIUM'
p1219
g1206
sS'MD_DESC'
p1220
NsS'MD_COMMENT'
p1221
Nstp1222
Rp1223
s(Vlow_vol_sampler
p1224
VQuartz+PUF+XAD+PUF
p1225
tp1226
g4
(g5
g6
(dp1227
S'FT_TYPE'
p1228
g1224
sS'SYSTIME'
p1229
g4
(g10
g11
(lp1230
g13
(S'\x07\xde\x05\x01\x00\x00\x00\x00\x00\x00'
p1231
tp1232
Rp1233
aNatp1234
Rp1235
(dp1236
g20
S'[)'
p1237
sbsS'MD_MEDIUM'
p1238
g1225
sS'MD_DESC'
p1239
NsS'MD_COMMENT'
p1240
Nstp1241
Rp1242
s(Vhigh_vol_sampler
p1243
VGlass fiber+PUF
p1244
tp1245
g4
(g5
g6
(dp1246
S'FT_TYPE'
p1247
g1243
sS'SYSTIME'
p1248
g4
(g10
g11
(lp1249
g13
(S'\x07\xde\x05\x01\x00\x00\x00\x00\x00\x00'
p1250
tp1251
Rp1252
aNatp1253
Rp1254
(dp1255
g20
S'[)'
p1256
sbsS'MD_MEDIUM'
p1257
g1244
sS'MD_DESC'
p1258
NsS'MD_COMMENT'
p1259
Nstp1260
Rp1261
s(Vfilter_3pack
p1262
VXAD
p1263
tp1264
g4
(g5
g6
(dp1265
S'FT_TYPE'
p1266
g1262
sS'SYSTIME'
p1267
g4
(g10
g11
(lp1268
g13
(S'\x07\xde\x05\x01\x00\x00\x00\x00\x00\x00'
p1269
tp1270
Rp1271
aNatp1272
Rp1273
(dp1274
g20
S'[)'
p1275
sbsS'MD_MEDIUM'
p1276
g1263
sS'MD_DESC'
p1277
NsS'MD_COMMENT'
p1278
Nstp1279
Rp1280
s(Vhigh_vol_sampler
p1281
VQuartz+PUF+PUF
p1282
tp1283
g4
(g5
g6
(dp1284
S'FT_TYPE'
p1285
g1281
sS'SYSTIME'
p1286
g4
(g10
g11
(lp1287
g13
(S'\x07\xde\x05\x01\x00\x00\x00\x00\x00\x00'
p1288
tp1289
Rp1290
aNatp1291
Rp1292
(dp1293
g20
S'[)'
p1294
sbsS'MD_MEDIUM'
p1295
g1282
sS'MD_DESC'
p1296
NsS'MD_COMMENT'
p1297
Nstp1298
Rp1299
s(Vb-attenuation
p1300
VTeflon
p1301
tp1302
g4
(g5
g6
(dp1303
S'FT_TYPE'
p1304
g1300
sS'SYSTIME'
p1305
g4
(g10
g11
(lp1306
g13
(S'\x07\xde\x05\x01\x00\x00\x00\x00\x00\x00'
p1307
tp1308
Rp1309
aNatp1310
Rp1311
(dp1312
g20
S'[)'
p1313
sbsS'MD_MEDIUM'
p1314
g1301
sS'MD_DESC'
p1315
NsS'MD_COMMENT'
p1316
Nstp1317
Rp1318
s(Vhigh_vol_sampler
p1319
VTeflon+PUF+PUF
p1320
tp1321
g4
(g5
g6
(dp1322
S'FT_TYPE'
p1323
g1319
sS'SYSTIME'
p1324
g4
(g10
g11
(lp1325
g13
(S'\x07\xde\x05\x01\x00\x00\x00\x00\x00\x00'
p1326
tp1327
Rp1328
aNatp1329
Rp1330
(dp1331
g20
S'[)'
p1332
sbsS'MD_MEDIUM'
p1333
g1320
sS'MD_DESC'
p1334
NsS'MD_COMMENT'
p1335
Nstp1336
Rp1337
s(Vfilter_2pack
p1338
VQuartz
p1339
tp1340
g4
(g5
g6
(dp1341
S'FT_TYPE'
p1342
g1338
sS'SYSTIME'
p1343
g4
(g10
g11
(lp1344
g13
(S'\x07\xde\x05\x01\x00\x00\x00\x00\x00\x00'
p1345
tp1346
Rp1347
aNatp1348
Rp1349
(dp1350
g20
S'[)'
p1351
sbsS'MD_MEDIUM'
p1352
g1339
sS'MD_DESC'
p1353
NsS'MD_COMMENT'
p1354
Nstp1355
Rp1356
s(Vfilter_3pack
p1357
VQuartz
p1358
tp1359
g4
(g5
g6
(dp1360
S'FT_TYPE'
p1361
g1357
sS'SYSTIME'
p1362
g4
(g10
g11
(lp1363
g13
(S'\x07\xde\x05\x01\x00\x00\x00\x00\x00\x00'
p1364
tp1365
Rp1366
aNatp1367
Rp1368
(dp1369
g20
S'[)'
p1370
sbsS'MD_MEDIUM'
p1371
g1358
sS'MD_DESC'
p1372
NsS'MD_COMMENT'
p1373
Nstp1374
Rp1375
s(Vfilter_1pack
p1376
VNylon
p1377
tp1378
g4
(g5
g6
(dp1379
S'FT_TYPE'
p1380
g1376
sS'SYSTIME'
p1381
g4
(g10
g11
(lp1382
g13
(S'\x07\xde\x05\x01\x00\x00\x00\x00\x00\x00'
p1383
tp1384
Rp1385
aNatp1386
Rp1387
(dp1388
g20
S'[)'
p1389
sbsS'MD_MEDIUM'
p1390
g1377
sS'MD_DESC'
p1391
NsS'MD_COMMENT'
p1392
Nstp1393
Rp1394
s(Vhigh_vol_sampler
p1395
VQuartz+PUF
p1396
tp1397
g4
(g5
g6
(dp1398
S'FT_TYPE'
p1399
g1395
sS'SYSTIME'
p1400
g4
(g10
g11
(lp1401
g13
(S'\x07\xde\x05\x01\x00\x00\x00\x00\x00\x00'
p1402
tp1403
Rp1404
aNatp1405
Rp1406
(dp1407
g20
S'[)'
p1408
sbsS'MD_MEDIUM'
p1409
g1396
sS'MD_DESC'
p1410
NsS'MD_COMMENT'
p1411
Nstp1412
Rp1413
s(Vfilter_4pack
p1414
VQuartz
p1415
tp1416
g4
(g5
g6
(dp1417
S'FT_TYPE'
p1418
g1414
sS'SYSTIME'
p1419
g4
(g10
g11
(lp1420
g13
(S'\x07\xde\x05\x01\x00\x00\x00\x00\x00\x00'
p1421
tp1422
Rp1423
aNatp1424
Rp1425
(dp1426
g20
S'[)'
p1427
sbsS'MD_MEDIUM'
p1428
g1415
sS'MD_DESC'
p1429
NsS'MD_COMMENT'
p1430
Nstp1431
Rp1432
s(Vpassive_sampler
p1433
VGlass fiber
p1434
tp1435
g4
(g5
g6
(dp1436
S'FT_TYPE'
p1437
g1433
sS'SYSTIME'
p1438
g4
(g10
g11
(lp1439
g13
(S'\x07\xde\x05\x01\x00\x00\x00\x00\x00\x00'
p1440
tp1441
Rp1442
aNatp1443
Rp1444
(dp1445
g20
S'[)'
p1446
sbsS'MD_MEDIUM'
p1447
g1434
sS'MD_DESC'
p1448
NsS'MD_COMMENT'
p1449
Nstp1450
Rp1451
s(Vfilter_4pack
p1452
VTeflon+nylon
p1453
tp1454
g4
(g5
g6
(dp1455
S'FT_TYPE'
p1456
g1452
sS'SYSTIME'
p1457
g4
(g10
g11
(lp1458
g13
(S'\x07\xde\x05\x01\x00\x00\x00\x00\x00\x00'
p1459
tp1460
Rp1461
aNatp1462
Rp1463
(dp1464
g20
S'[)'
p1465
sbsS'MD_MEDIUM'
p1466
g1453
sS'MD_DESC'
p1467
NsS'MD_COMMENT'
p1468
Nstp1469
Rp1470
s(Vfilter_3pack
p1471
VTenax
p1472
tp1473
g4
(g5
g6
(dp1474
S'FT_TYPE'
p1475
g1471
sS'SYSTIME'
p1476
g4
(g10
g11
(lp1477
g13
(S'\x07\xde\x05\x01\x00\x00\x00\x00\x00\x00'
p1478
tp1479
Rp1480
aNatp1481
Rp1482
(dp1483
g20
S'[)'
p1484
sbsS'MD_MEDIUM'
p1485
g1472
sS'MD_DESC'
p1486
NsS'MD_COMMENT'
p1487
Nstp1488
Rp1489
s(Vfilter_4pack
p1490
VMixed cellulose ester
p1491
tp1492
g4
(g5
g6
(dp1493
S'FT_TYPE'
p1494
g1490
sS'SYSTIME'
p1495
g4
(g10
g11
(lp1496
g13
(S'\x07\xde\x05\x01\x00\x00\x00\x00\x00\x00'
p1497
tp1498
Rp1499
aNatp1500
Rp1501
(dp1502
g20
S'[)'
p1503
sbsS'MD_MEDIUM'
p1504
g1491
sS'MD_DESC'
p1505
NsS'MD_COMMENT'
p1506
Nstp1507
Rp1508
s(Vfilter_2pack
p1509
VCellulose+nylon
p1510
tp1511
g4
(g5
g6
(dp1512
S'FT_TYPE'
p1513
g1509
sS'SYSTIME'
p1514
g4
(g10
g11
(lp1515
g13
(S'\x07\xde\x05\x01\x00\x00\x00\x00\x00\x00'
p1516
tp1517
Rp1518
aNatp1519
Rp1520
(dp1521
g20
S'[)'
p1522
sbsS'MD_MEDIUM'
p1523
g1510
sS'MD_DESC'
p1524
NsS'MD_COMMENT'
p1525
Nstp1526
Rp1527
s(Vhigh_vol_sampler
p1528
VGlass fiber+PUF+XAD+PUF
p1529
tp1530
g4
(g5
g6
(dp1531
S'FT_TYPE'
p1532
g1528
sS'SYSTIME'
p1533
g4
(g10
g11
(lp1534
g13
(S'\x07\xde\x05\x01\x00\x00\x00\x00\x00\x00'
p1535
tp1536
Rp1537
aNatp1538
Rp1539
(dp1540
g20
S'[)'
p1541
sbsS'MD_MEDIUM'
p1542
g1529
sS'MD_DESC'
p1543
NsS'MD_COMMENT'
p1544
Nstp1545
Rp1546
s(Vlow_vol_sampler
p1547
VQuartz+PUF
p1548
tp1549
g4
(g5
g6
(dp1550
S'FT_TYPE'
p1551
g1547
sS'SYSTIME'
p1552
g4
(g10
g11
(lp1553
g13
(S'\x07\xde\x05\x01\x00\x00\x00\x00\x00\x00'
p1554
tp1555
Rp1556
aNatp1557
Rp1558
(dp1559
g20
S'[)'
p1560
sbsS'MD_MEDIUM'
p1561
g1548
sS'MD_DESC'
p1562
NsS'MD_COMMENT'
p1563
Nstp1564
Rp1565
s(Vlow_vol_sampler
p1566
VTeflon+nylon
p1567
tp1568
g4
(g5
g6
(dp1569
S'FT_TYPE'
p1570
g1566
sS'SYSTIME'
p1571
g4
(g10
g11
(lp1572
g13
(S'\x07\xde\x05\x01\x00\x00\x00\x00\x00\x00'
p1573
tp1574
Rp1575
aNatp1576
Rp1577
(dp1578
g20
S'[)'
p1579
sbsS'MD_MEDIUM'
p1580
g1567
sS'MD_DESC'
p1581
NsS'MD_COMMENT'
p1582
Nstp1583
Rp1584
s(Vfilter_3pack
p1585
VCharcoal
p1586
tp1587
g4
(g5
g6
(dp1588
S'FT_TYPE'
p1589
g1585
sS'SYSTIME'
p1590
g4
(g10
g11
(lp1591
g13
(S'\x07\xde\x05\x01\x00\x00\x00\x00\x00\x00'
p1592
tp1593
Rp1594
aNatp1595
Rp1596
(dp1597
g20
S'[)'
p1598
sbsS'MD_MEDIUM'
p1599
g1586
sS'MD_DESC'
p1600
NsS'MD_COMMENT'
p1601
Nstp1602
Rp1603
s(Vfilter_2pack
p1604
VNylon
p1605
tp1606
g4
(g5
g6
(dp1607
S'FT_TYPE'
p1608
g1604
sS'SYSTIME'
p1609
g4
(g10
g11
(lp1610
g13
(S'\x07\xde\x05\x01\x00\x00\x00\x00\x00\x00'
p1611
tp1612
Rp1613
aNatp1614
Rp1615
(dp1616
g20
S'[)'
p1617
sbsS'MD_MEDIUM'
p1618
g1605
sS'MD_DESC'
p1619
NsS'MD_COMMENT'
p1620
Nstp1621
Rp1622
s(Vfilter_2pack
p1623
VGlass fiber
p1624
tp1625
g4
(g5
g6
(dp1626
S'FT_TYPE'
p1627
g1623
sS'SYSTIME'
p1628
g4
(g10
g11
(lp1629
g13
(S'\x07\xde\x05\x01\x00\x00\x00\x00\x00\x00'
p1630
tp1631
Rp1632
aNatp1633
Rp1634
(dp1635
g20
S'[)'
p1636
sbsS'MD_MEDIUM'
p1637
g1624
sS'MD_DESC'
p1638
NsS'MD_COMMENT'
p1639
Nstp1640
Rp1641
s(Vlow_vol_sampler
p1642
VTeflon+PUF+PUF
p1643
tp1644
g4
(g5
g6
(dp1645
S'FT_TYPE'
p1646
g1642
sS'SYSTIME'
p1647
g4
(g10
g11
(lp1648
g13
(S'\x07\xde\x05\x01\x00\x00\x00\x00\x00\x00'
p1649
tp1650
Rp1651
aNatp1652
Rp1653
(dp1654
g20
S'[)'
p1655
sbsS'MD_MEDIUM'
p1656
g1643
sS'MD_DESC'
p1657
NsS'MD_COMMENT'
p1658
Nstp1659
Rp1660
s(Vfilter_4pack
p1661
VGlass fiber
p1662
tp1663
g4
(g5
g6
(dp1664
S'FT_TYPE'
p1665
g1661
sS'SYSTIME'
p1666
g4
(g10
g11
(lp1667
g13
(S'\x07\xde\x05\x01\x00\x00\x00\x00\x00\x00'
p1668
tp1669
Rp1670
aNatp1671
Rp1672
(dp1673
g20
S'[)'
p1674
sbsS'MD_MEDIUM'
p1675
g1662
sS'MD_DESC'
p1676
NsS'MD_COMMENT'
p1677
Nstp1678
Rp1679
s(Vlow_vol_sampler
p1680
VQuartz+PUF+PUF
p1681
tp1682
g4
(g5
g6
(dp1683
S'FT_TYPE'
p1684
g1680
sS'SYSTIME'
p1685
g4
(g10
g11
(lp1686
g13
(S'\x07\xde\x05\x01\x00\x00\x00\x00\x00\x00'
p1687
tp1688
Rp1689
aNatp1690
Rp1691
(dp1692
g20
S'[)'
p1693
sbsS'MD_MEDIUM'
p1694
g1681
sS'MD_DESC'
p1695
NsS'MD_COMMENT'
p1696
Nstp1697
Rp1698
s(Vfilter_3pack
p1699
VQuartz+glass fiber
p1700
tp1701
g4
(g5
g6
(dp1702
S'FT_TYPE'
p1703
g1699
sS'SYSTIME'
p1704
g4
(g10
g11
(lp1705
g13
(S'\x07\xde\x05\x01\x00\x00\x00\x00\x00\x00'
p1706
tp1707
Rp1708
aNatp1709
Rp1710
(dp1711
g20
S'[)'
p1712
sbsS'MD_MEDIUM'
p1713
g1700
sS'MD_DESC'
p1714
NsS'MD_COMMENT'
p1715
Nstp1716
Rp1717
s(Vhigh_vol_sampler
p1718
VQuartz+PUF+XAD+PUF
p1719
tp1720
g4
(g5
g6
(dp1721
S'FT_TYPE'
p1722
g1718
sS'SYSTIME'
p1723
g4
(g10
g11
(lp1724
g13
(S'\x07\xde\x05\x01\x00\x00\x00\x00\x00\x00'
p1725
tp1726
Rp1727
aNatp1728
Rp1729
(dp1730
g20
S'[)'
p1731
sbsS'MD_MEDIUM'
p1732
g1719
sS'MD_DESC'
p1733
NsS'MD_COMMENT'
p1734
Nstp1735
Rp1736
s(Vhigh_vol_sampler
p1737
VTeflon+nylon
p1738
tp1739
g4
(g5
g6
(dp1740
S'FT_TYPE'
p1741
g1737
sS'SYSTIME'
p1742
g4
(g10
g11
(lp1743
g13
(S'\x07\xde\x05\x01\x00\x00\x00\x00\x00\x00'
p1744
tp1745
Rp1746
aNatp1747
Rp1748
(dp1749
g20
S'[)'
p1750
sbsS'MD_MEDIUM'
p1751
g1738
sS'MD_DESC'
p1752
NsS'MD_COMMENT'
p1753
Nstp1754
Rp1755
s(Vfilter_2pack
p1756
VTeflon
p1757
tp1758
g4
(g5
g6
(dp1759
S'FT_TYPE'
p1760
g1756
sS'SYSTIME'
p1761
g4
(g10
g11
(lp1762
g13
(S'\x07\xde\x05\x01\x00\x00\x00\x00\x00\x00'
p1763
tp1764
Rp1765
aNatp1766
Rp1767
(dp1768
g20
S'[)'
p1769
sbsS'MD_MEDIUM'
p1770
g1757
sS'MD_DESC'
p1771
NsS'MD_COMMENT'
p1772
Nstp1773
Rp1774
s(Vfilter_3pack
p1775
VTeflon-coated quartz
p1776
tp1777
g4
(g5
g6
(dp1778
S'FT_TYPE'
p1779
g1775
sS'SYSTIME'
p1780
g4
(g10
g11
(lp1781
g13
(S'\x07\xde\x05\x01\x00\x00\x00\x00\x00\x00'
p1782
tp1783
Rp1784
aNatp1785
Rp1786
(dp1787
g20
S'[)'
p1788
sbsS'MD_MEDIUM'
p1789
g1776
sS'MD_DESC'
p1790
NsS'MD_COMMENT'
p1791
Nstp1792
Rp1793
s(Vlow_vol_sampler
p1794
VQuartz
p1795
tp1796
g4
(g5
g6
(dp1797
S'FT_TYPE'
p1798
g1794
sS'SYSTIME'
p1799
g4
(g10
g11
(lp1800
g13
(S'\x07\xde\x05\x01\x00\x00\x00\x00\x00\x00'
p1801
tp1802
Rp1803
aNatp1804
Rp1805
(dp1806
g20
S'[)'
p1807
sbsS'MD_MEDIUM'
p1808
g1795
sS'MD_DESC'
p1809
NsS'MD_COMMENT'
p1810
Nstp1811
Rp1812
s(Vfilter_3pack
p1813
VCellulose
p1814
tp1815
g4
(g5
g6
(dp1816
S'FT_TYPE'
p1817
g1813
sS'SYSTIME'
p1818
g4
(g10
g11
(lp1819
g13
(S'\x07\xde\x05\x01\x00\x00\x00\x00\x00\x00'
p1820
tp1821
Rp1822
aNatp1823
Rp1824
(dp1825
g20
S'[)'
p1826
sbsS'MD_MEDIUM'
p1827
g1814
sS'MD_DESC'
p1828
NsS'MD_COMMENT'
p1829
Nstp1830
Rp1831
s(Vfilter_1pack
p1832
VTeflon
p1833
tp1834
g4
(g5
g6
(dp1835
S'FT_TYPE'
p1836
g1832
sS'SYSTIME'
p1837
g4
(g10
g11
(lp1838
g13
(S'\x07\xde\x05\x01\x00\x00\x00\x00\x00\x00'
p1839
tp1840
Rp1841
aNatp1842
Rp1843
(dp1844
g20
S'[)'
p1845
sbsS'MD_MEDIUM'
p1846
g1833
sS'MD_DESC'
p1847
NsS'MD_COMMENT'
p1848
Nstp1849
Rp1850
s(Vlow_vol_sampler
p1851
VGlass fiber+PUF+XAD+PUF
p1852
tp1853
g4
(g5
g6
(dp1854
S'FT_TYPE'
p1855
g1851
sS'SYSTIME'
p1856
g4
(g10
g11
(lp1857
g13
(S'\x07\xde\x05\x01\x00\x00\x00\x00\x00\x00'
p1858
tp1859
Rp1860
aNatp1861
Rp1862
(dp1863
g20
S'[)'
p1864
sbsS'MD_MEDIUM'
p1865
g1852
sS'MD_DESC'
p1866
NsS'MD_COMMENT'
p1867
Nstp1868
Rp1869
s(Vhigh_vol_sampler
p1870
VFilter+PUF (Polyurethane foam)
p1871
tp1872
g4
(g5
g6
(dp1873
S'FT_TYPE'
p1874
g1870
sS'SYSTIME'
p1875
g4
(g10
g11
(lp1876
g13
(S'\x07\xde\x05\x01\x00\x00\x00\x00\x00\x00'
p1877
tp1878
Rp1879
aNatp1880
Rp1881
(dp1882
g20
S'[)'
p1883
sbsS'MD_MEDIUM'
p1884
g1871
sS'MD_DESC'
p1885
NsS'MD_COMMENT'
p1886
Nstp1887
Rp1888
s(Vfilter_4pack
p1889
VTeflon
p1890
tp1891
g4
(g5
g6
(dp1892
S'FT_TYPE'
p1893
g1889
sS'SYSTIME'
p1894
g4
(g10
g11
(lp1895
g13
(S'\x07\xde\x05\x01\x00\x00\x00\x00\x00\x00'
p1896
tp1897
Rp1898
aNatp1899
Rp1900
(dp1901
g20
S'[)'
p1902
sbsS'MD_MEDIUM'
p1903
g1890
sS'MD_DESC'
p1904
NsS'MD_COMMENT'
p1905
Nstp1906
Rp1907
s(Vhigh_vol_sampler
p1908
VGlass fiber+PUF+PUF
p1909
tp1910
g4
(g5
g6
(dp1911
S'FT_TYPE'
p1912
g1908
sS'SYSTIME'
p1913
g4
(g10
g11
(lp1914
g13
(S'\x07\xde\x05\x01\x00\x00\x00\x00\x00\x00'
p1915
tp1916
Rp1917
aNatp1918
Rp1919
(dp1920
g20
S'[)'
p1921
sbsS'MD_MEDIUM'
p1922
g1909
sS'MD_DESC'
p1923
NsS'MD_COMMENT'
p1924
Nstp1925
Rp1926
s(Vfilter_1pack
p1927
VGlass fiber
p1928
tp1929
g4
(g5
g6
(dp1930
S'FT_TYPE'
p1931
g1927
sS'SYSTIME'
p1932
g4
(g10
g11
(lp1933
g13
(S'\x07\xde\x05\x01\x00\x00\x00\x00\x00\x00'
p1934
tp1935
Rp1936
aNatp1937
Rp1938
(dp1939
g20
S'[)'
p1940
sbsS'MD_MEDIUM'
p1941
g1928
sS'MD_DESC'
p1942
NsS'MD_COMMENT'
p1943
Nstp1944
Rp1945
s(Vfilter_3pack
p1946
VNylazorb
p1947
tp1948
g4
(g5
g6
(dp1949
S'FT_TYPE'
p1950
g1946
sS'SYSTIME'
p1951
g4
(g10
g11
(lp1952
g13
(S'\x07\xde\x05\x01\x00\x00\x00\x00\x00\x00'
p1953
tp1954
Rp1955
aNatp1956
Rp1957
(dp1958
g20
S'[)'
p1959
sbsS'MD_MEDIUM'
p1960
g1947
sS'MD_DESC'
p1961
NsS'MD_COMMENT'
p1962
Nstp1963
Rp1964
s.