(dp0
VWCCAP-AP-2019-4
p1
ccopy_reg
_reconstructor
p2
(cnilutility.datatypes
DataObject
p3
c__builtin__
dict
p4
(dp5
S'QM_COMMENT'
p6
NsS'QM_DOCUMENT_URL'
p7
NsS'QM_DOCUMENT_DATE'
p8
NsS'QM_DOCUMENT_TITLE'
p9
NsS'QT_TYPE'
p10
VOff-site intercomparison
p11
sS'OR_CODE'
p12
VDE43O
p13
sS'QM_START'
p14
cdatetime
datetime
p15
(S'\x07\xe3\n\x0e\x00\x00\x00\x00\x00\x00'
p16
tp17
Rp18
sS'QM_END'
p19
g15
(S'\x07\xe3\n\x12\x00\x00\x00\x00\x00\x00'
p20
tp21
Rp22
sS'QM_ID'
p23
g1
sS'SYSTIME'
p24
g2
(cnilutility.datetime_helper
DatetimeInterval
p25
c__builtin__
list
p26
(lp27
g15
(S'\x07\xde\x05\x01\x00\x00\x00\x00\x00\x00'
p28
tp29
Rp30
aNatp31
Rp32
(dp33
S'bounds'
p34
S'[)'
p35
sbsS'QM_DESC'
p36
VIntercomparison of Absorption Photometer
p37
stp38
Rp39
sVWCCAP-MPSS-2017-4
p40
g2
(g3
g4
(dp41
S'QM_COMMENT'
p42
NsS'QM_DOCUMENT_URL'
p43
NsS'QM_DOCUMENT_DATE'
p44
NsS'QM_DOCUMENT_TITLE'
p45
NsS'QT_TYPE'
p46
VOff-site intercomparison
p47
sS'OR_CODE'
p48
VDE43O
p49
sS'QM_START'
p50
g15
(S'\x07\xe1\t\x19\x00\x00\x00\x00\x00\x00'
p51
tp52
Rp53
sS'QM_END'
p54
g15
(S'\x07\xe1\t\x1d\x00\x00\x00\x00\x00\x00'
p55
tp56
Rp57
sS'QM_ID'
p58
g40
sS'SYSTIME'
p59
g2
(g25
g26
(lp60
g15
(S'\x07\xde\x05\x01\x00\x00\x00\x00\x00\x00'
p61
tp62
Rp63
aNatp64
Rp65
(dp66
g34
S'[)'
p67
sbsS'QM_DESC'
p68
VIntercomparison of Mobility Particle Size Spectrometer
p69
stp70
Rp71
sVCDPHE APCD Nitrogen Dioxide Analyzer Audit
p72
g2
(g3
g4
(dp73
S'QM_COMMENT'
p74
Vhttps://www.colorado.gov/airquality/tech_doc_repository.aspx?action=open&file=AppQA1_SOP_FieldAudits.pdf
p75
sS'QM_DOCUMENT_URL'
p76
NsS'QM_DOCUMENT_DATE'
p77
NsS'QM_DOCUMENT_TITLE'
p78
NsS'QT_TYPE'
p79
VOn site audit
p80
sS'OR_CODE'
p81
VUS18O
p82
sS'QM_START'
p83
g15
(S'\x07\xe4\x01\x01\x00\x00\x00\x00\x00\x00'
p84
tp85
Rp86
sS'QM_END'
p87
g15
(S'\x084\x01\x01\x00\x00\x00\x00\x00\x00'
p88
tp89
Rp90
sS'QM_ID'
p91
g72
sS'SYSTIME'
p92
g2
(g25
g26
(lp93
g15
(S'\x07\xe8\x06\x11\r:\x1f\x08w\xbb'
p94
tp95
Rp96
aNatp97
Rp98
(dp99
g34
S'[)'
p100
sbsS'QM_DESC'
p101
VColorado Department of Public Health and Environment, Air Pollution Control Division Nitrogen Dioxide Analyzer Audit
p102
stp103
Rp104
sVJP02L_reference_calibration_20180627
p105
g2
(g3
g4
(dp106
S'QM_COMMENT'
p107
NsS'QM_DOCUMENT_URL'
p108
NsS'QM_DOCUMENT_DATE'
p109
NsS'QM_DOCUMENT_TITLE'
p110
NsS'QT_TYPE'
p111
VOff-site intercomparison
p112
sS'OR_CODE'
p113
VJP02L
p114
sS'QM_START'
p115
g15
(S'\x07\xe2\x06\x1b\x00\x00\x00\x00\x00\x00'
p116
tp117
Rp118
sS'QM_END'
p119
NsS'QM_ID'
p120
g105
sS'SYSTIME'
p121
g2
(g25
g26
(lp122
g15
(S'\x07\xde\x05\x01\x00\x00\x00\x00\x00\x00'
p123
tp124
Rp125
aNatp126
Rp127
(dp128
g34
S'[)'
p129
sbsS'QM_DESC'
p130
Nstp131
Rp132
sVAT03L_reference_calibration_20040823
p133
g2
(g3
g4
(dp134
S'QM_COMMENT'
p135
NsS'QM_DOCUMENT_URL'
p136
NsS'QM_DOCUMENT_DATE'
p137
NsS'QM_DOCUMENT_TITLE'
p138
NsS'QT_TYPE'
p139
VOff-site intercomparison
p140
sS'OR_CODE'
p141
VAT03L
p142
sS'QM_START'
p143
g15
(S'\x07\xd4\x08\x17\x00\x00\x00\x00\x00\x00'
p144
tp145
Rp146
sS'QM_END'
p147
NsS'QM_ID'
p148
g133
sS'SYSTIME'
p149
g2
(g25
g26
(lp150
g15
(S'\x07\xde\x05\x01\x00\x00\x00\x00\x00\x00'
p151
tp152
Rp153
aNatp154
Rp155
(dp156
g34
S'[)'
p157
sbsS'QM_DESC'
p158
Nstp159
Rp160
sVWCCAP-AP-2019-3
p161
g2
(g3
g4
(dp162
S'QM_COMMENT'
p163
NsS'QM_DOCUMENT_URL'
p164
NsS'QM_DOCUMENT_DATE'
p165
NsS'QM_DOCUMENT_TITLE'
p166
NsS'QT_TYPE'
p167
VOff-site intercomparison
p168
sS'OR_CODE'
p169
VDE43O
p170
sS'QM_START'
p171
g15
(S'\x07\xe3\n\x07\x00\x00\x00\x00\x00\x00'
p172
tp173
Rp174
sS'QM_END'
p175
g15
(S'\x07\xe3\n\x0b\x00\x00\x00\x00\x00\x00'
p176
tp177
Rp178
sS'QM_ID'
p179
g161
sS'SYSTIME'
p180
g2
(g25
g26
(lp181
g15
(S'\x07\xde\x05\x01\x00\x00\x00\x00\x00\x00'
p182
tp183
Rp184
aNatp185
Rp186
(dp187
g34
S'[)'
p188
sbsS'QM_DESC'
p189
VIntercomparison of Absorption Photometer
p190
stp191
Rp192
sVWCCAP-AP-2019-2
p193
g2
(g3
g4
(dp194
S'QM_COMMENT'
p195
NsS'QM_DOCUMENT_URL'
p196
NsS'QM_DOCUMENT_DATE'
p197
NsS'QM_DOCUMENT_TITLE'
p198
NsS'QT_TYPE'
p199
VOff-site intercomparison
p200
sS'OR_CODE'
p201
VDE43O
p202
sS'QM_START'
p203
g15
(S'\x07\xe3\x06\x03\x00\x00\x00\x00\x00\x00'
p204
tp205
Rp206
sS'QM_END'
p207
g15
(S'\x07\xe3\x06\x07\x00\x00\x00\x00\x00\x00'
p208
tp209
Rp210
sS'QM_ID'
p211
g193
sS'SYSTIME'
p212
g2
(g25
g26
(lp213
g15
(S'\x07\xde\x05\x01\x00\x00\x00\x00\x00\x00'
p214
tp215
Rp216
aNatp217
Rp218
(dp219
g34
S'[)'
p220
sbsS'QM_DESC'
p221
VIntercomparison of Absorption Photometer
p222
stp223
Rp224
sVWCCAP-IN-2017-5
p225
g2
(g3
g4
(dp226
S'QM_COMMENT'
p227
NsS'QM_DOCUMENT_URL'
p228
NsS'QM_DOCUMENT_DATE'
p229
NsS'QM_DOCUMENT_TITLE'
p230
NsS'QT_TYPE'
p231
VOff-site intercomparison
p232
sS'OR_CODE'
p233
VDE43O
p234
sS'QM_START'
p235
g15
(S'\x07\xe1\x0b\x06\x00\x00\x00\x00\x00\x00'
p236
tp237
Rp238
sS'QM_END'
p239
g15
(S'\x07\xe1\x0b\n\x00\x00\x00\x00\x00\x00'
p240
tp241
Rp242
sS'QM_ID'
p243
g225
sS'SYSTIME'
p244
g2
(g25
g26
(lp245
g15
(S'\x07\xde\x05\x01\x00\x00\x00\x00\x00\x00'
p246
tp247
Rp248
aNatp249
Rp250
(dp251
g34
S'[)'
p252
sbsS'QM_DESC'
p253
VIntercomparison of Integrating Nephelometer
p254
stp255
Rp256
sVWCCAP-IN-2017-4
p257
g2
(g3
g4
(dp258
S'QM_COMMENT'
p259
NsS'QM_DOCUMENT_URL'
p260
NsS'QM_DOCUMENT_DATE'
p261
NsS'QM_DOCUMENT_TITLE'
p262
NsS'QT_TYPE'
p263
VOff-site intercomparison
p264
sS'OR_CODE'
p265
VDE43O
p266
sS'QM_START'
p267
g15
(S'\x07\xe1\n\x1e\x00\x00\x00\x00\x00\x00'
p268
tp269
Rp270
sS'QM_END'
p271
g15
(S'\x07\xe1\x0b\x03\x00\x00\x00\x00\x00\x00'
p272
tp273
Rp274
sS'QM_ID'
p275
g257
sS'SYSTIME'
p276
g2
(g25
g26
(lp277
g15
(S'\x07\xde\x05\x01\x00\x00\x00\x00\x00\x00'
p278
tp279
Rp280
aNatp281
Rp282
(dp283
g34
S'[)'
p284
sbsS'QM_DESC'
p285
VIntercomparison of Integrating Nephelometer
p286
stp287
Rp288
sVWCCAP-IN-2020-1
p289
g2
(g3
g4
(dp290
S'QM_COMMENT'
p291
NsS'QM_DOCUMENT_URL'
p292
NsS'QM_DOCUMENT_DATE'
p293
NsS'QM_DOCUMENT_TITLE'
p294
NsS'QT_TYPE'
p295
VOff-site intercomparison
p296
sS'OR_CODE'
p297
VDE43O
p298
sS'QM_START'
p299
g15
(S'\x07\xe4\x01\x1b\x00\x00\x00\x00\x00\x00'
p300
tp301
Rp302
sS'QM_END'
p303
g15
(S'\x07\xe4\x01\x1f\x00\x00\x00\x00\x00\x00'
p304
tp305
Rp306
sS'QM_ID'
p307
g289
sS'SYSTIME'
p308
g2
(g25
g26
(lp309
g15
(S'\x07\xde\x05\x01\x00\x00\x00\x00\x00\x00'
p310
tp311
Rp312
aNatp313
Rp314
(dp315
g34
S'[)'
p316
sbsS'QM_DESC'
p317
VIntercomparison of Integrating Nephelometer
p318
stp319
Rp320
sVWCCAP-IN-2017-1
p321
g2
(g3
g4
(dp322
S'QM_COMMENT'
p323
NsS'QM_DOCUMENT_URL'
p324
NsS'QM_DOCUMENT_DATE'
p325
NsS'QM_DOCUMENT_TITLE'
p326
NsS'QT_TYPE'
p327
VOff-site intercomparison
p328
sS'OR_CODE'
p329
VDE43O
p330
sS'QM_START'
p331
g15
(S'\x07\xe1\x01\x10\x00\x00\x00\x00\x00\x00'
p332
tp333
Rp334
sS'QM_END'
p335
g15
(S'\x07\xe1\x01\x14\x00\x00\x00\x00\x00\x00'
p336
tp337
Rp338
sS'QM_ID'
p339
g321
sS'SYSTIME'
p340
g2
(g25
g26
(lp341
g15
(S'\x07\xde\x05\x01\x00\x00\x00\x00\x00\x00'
p342
tp343
Rp344
aNatp345
Rp346
(dp347
g34
S'[)'
p348
sbsS'QM_DESC'
p349
VIntercomparison of Integrating Nephelometer
p350
stp351
Rp352
sVWCCAP-IN-2017-3
p353
g2
(g3
g4
(dp354
S'QM_COMMENT'
p355
NsS'QM_DOCUMENT_URL'
p356
NsS'QM_DOCUMENT_DATE'
p357
NsS'QM_DOCUMENT_TITLE'
p358
NsS'QT_TYPE'
p359
VOff-site intercomparison
p360
sS'OR_CODE'
p361
VDE43O
p362
sS'QM_START'
p363
g15
(S'\x07\xe1\t\x0b\x00\x00\x00\x00\x00\x00'
p364
tp365
Rp366
sS'QM_END'
p367
g15
(S'\x07\xe1\t\x0f\x00\x00\x00\x00\x00\x00'
p368
tp369
Rp370
sS'QM_ID'
p371
g353
sS'SYSTIME'
p372
g2
(g25
g26
(lp373
g15
(S'\x07\xde\x05\x01\x00\x00\x00\x00\x00\x00'
p374
tp375
Rp376
aNatp377
Rp378
(dp379
g34
S'[)'
p380
sbsS'QM_DESC'
p381
VIntercomparison of Integrating Nephelometer
p382
stp383
Rp384
sVJP02L_reference_calibration_20200805
p385
g2
(g3
g4
(dp386
S'QM_COMMENT'
p387
NsS'QM_DOCUMENT_URL'
p388
NsS'QM_DOCUMENT_DATE'
p389
NsS'QM_DOCUMENT_TITLE'
p390
NsS'QT_TYPE'
p391
VOff-site intercomparison
p392
sS'OR_CODE'
p393
VJP02L
p394
sS'QM_START'
p395
g15
(S'\x07\xe4\x08\x05\x00\x00\x00\x00\x00\x00'
p396
tp397
Rp398
sS'QM_END'
p399
NsS'QM_ID'
p400
g385
sS'SYSTIME'
p401
g2
(g25
g26
(lp402
g15
(S'\x07\xde\x05\x01\x00\x00\x00\x00\x00\x00'
p403
tp404
Rp405
aNatp406
Rp407
(dp408
g34
S'[)'
p409
sbsS'QM_DESC'
p410
Nstp411
Rp412
sVJP02L_reference_calibration_20231102
p413
g2
(g3
g4
(dp414
S'QM_COMMENT'
p415
NsS'QM_DOCUMENT_URL'
p416
NsS'QM_DOCUMENT_DATE'
p417
NsS'QM_DOCUMENT_TITLE'
p418
NsS'QT_TYPE'
p419
VOff-site intercomparison
p420
sS'OR_CODE'
p421
VJP02L
p422
sS'QM_START'
p423
g15
(S'\x07\xe7\x0b\x02\x00\x00\x00\x00\x00\x00'
p424
tp425
Rp426
sS'QM_END'
p427
NsS'QM_ID'
p428
g413
sS'SYSTIME'
p429
g2
(g25
g26
(lp430
g15
(S'\x07\xe9\x01\n\x0b\x07\x01\x0b{\xad'
p431
tp432
Rp433
aNatp434
Rp435
(dp436
g34
S'[)'
p437
sbsS'QM_DESC'
p438
Nstp439
Rp440
sVJP02L_reference_calibration_20230425
p441
g2
(g3
g4
(dp442
S'QM_COMMENT'
p443
NsS'QM_DOCUMENT_URL'
p444
NsS'QM_DOCUMENT_DATE'
p445
NsS'QM_DOCUMENT_TITLE'
p446
NsS'QT_TYPE'
p447
VOff-site intercomparison
p448
sS'OR_CODE'
p449
VJP02L
p450
sS'QM_START'
p451
g15
(S'\x07\xe7\x04\x19\x00\x00\x00\x00\x00\x00'
p452
tp453
Rp454
sS'QM_END'
p455
NsS'QM_ID'
p456
g441
sS'SYSTIME'
p457
g2
(g25
g26
(lp458
g15
(S'\x07\xe8\x01\x08\x0b37\x05vj'
p459
tp460
Rp461
aNatp462
Rp463
(dp464
g34
S'[)'
p465
sbsS'QM_DESC'
p466
Nstp467
Rp468
sVAT03L_reference_calibration_20030602
p469
g2
(g3
g4
(dp470
S'QM_COMMENT'
p471
NsS'QM_DOCUMENT_URL'
p472
NsS'QM_DOCUMENT_DATE'
p473
NsS'QM_DOCUMENT_TITLE'
p474
NsS'QT_TYPE'
p475
VOff-site intercomparison
p476
sS'OR_CODE'
p477
VAT03L
p478
sS'QM_START'
p479
g15
(S'\x07\xd3\x06\x02\x00\x00\x00\x00\x00\x00'
p480
tp481
Rp482
sS'QM_END'
p483
NsS'QM_ID'
p484
g469
sS'SYSTIME'
p485
g2
(g25
g26
(lp486
g15
(S'\x07\xde\x05\x01\x00\x00\x00\x00\x00\x00'
p487
tp488
Rp489
aNatp490
Rp491
(dp492
g34
S'[)'
p493
sbsS'QM_DESC'
p494
Nstp495
Rp496
sVEMEP38
p497
g2
(g3
g4
(dp498
S'QM_COMMENT'
p499
NsS'QM_DOCUMENT_URL'
p500
Vhttp://www.nilu.no/projects/ccc/qameasure/emep38.pdf
p501
sS'QM_DOCUMENT_DATE'
p502
g15
(S'\x07\xe5\x03\t\x00\x00\x00\x00\x00\x00'
p503
tp504
Rp505
sS'QM_DOCUMENT_TITLE'
p506
VSummary statistics EMEP laboratory intercalibration Round 38
p507
sS'QT_TYPE'
p508
VInterlaboratory comparison
p509
sS'OR_CODE'
p510
VNO03O
p511
sS'QM_START'
p512
g15
(S'\x07\xe4\t\x01\x00\x00\x00\x00\x00\x00'
p513
tp514
Rp515
sS'QM_END'
p516
g15
(S'\x07\xe5\x03\n\x00\x00\x00\x00\x00\x00'
p517
tp518
Rp519
sS'QM_ID'
p520
g497
sS'SYSTIME'
p521
g2
(g25
g26
(lp522
g15
(S'\x07\xe8\t\x13\x08 (\x03"\xf8'
p523
tp524
Rp525
aNatp526
Rp527
(dp528
g34
S'[)'
p529
sbsS'QM_DESC'
p530
V38th EMEP laboratory intercomparison
p531
stp532
Rp533
sVEMEP39
p534
g2
(g3
g4
(dp535
S'QM_COMMENT'
p536
NsS'QM_DOCUMENT_URL'
p537
Vhttp://www.nilu.no/projects/ccc/qameasure/emep39.pdf
p538
sS'QM_DOCUMENT_DATE'
p539
g15
(S'\x07\xe6\x02\x0f\x00\x00\x00\x00\x00\x00'
p540
tp541
Rp542
sS'QM_DOCUMENT_TITLE'
p543
VSummary statistics EMEP laboratory intercalibration Round 39
p544
sS'QT_TYPE'
p545
VInterlaboratory comparison
p546
sS'OR_CODE'
p547
VNO03O
p548
sS'QM_START'
p549
g15
(S'\x07\xe5\t\x01\x00\x00\x00\x00\x00\x00'
p550
tp551
Rp552
sS'QM_END'
p553
g15
(S'\x07\xe6\x02\x0f\x00\x00\x00\x00\x00\x00'
p554
tp555
Rp556
sS'QM_ID'
p557
g534
sS'SYSTIME'
p558
g2
(g25
g26
(lp559
g15
(S'\x07\xe8\t\x13\x08 (\x03"\xf8'
p560
tp561
Rp562
aNatp563
Rp564
(dp565
g34
S'[)'
p566
sbsS'QM_DESC'
p567
V39th EMEP laboratory intercomparison
p568
stp569
Rp570
sVEMEP36
p571
g2
(g3
g4
(dp572
S'QM_COMMENT'
p573
NsS'QM_DOCUMENT_URL'
p574
Vhttp://www.nilu.no/projects/ccc/qameasure/emep36.pdf
p575
sS'QM_DOCUMENT_DATE'
p576
g15
(S'\x07\xe2\x03\x1b\x00\x00\x00\x00\x00\x00'
p577
tp578
Rp579
sS'QM_DOCUMENT_TITLE'
p580
VSummary statistics EMEP laboratory intercalibration Round 36
p581
sS'QT_TYPE'
p582
VInterlaboratory comparison
p583
sS'OR_CODE'
p584
VNO03O
p585
sS'QM_START'
p586
g15
(S'\x07\xe2\x08\x01\x00\x00\x00\x00\x00\x00'
p587
tp588
Rp589
sS'QM_END'
p590
g15
(S'\x07\xe3\x01\n\x00\x00\x00\x00\x00\x00'
p591
tp592
Rp593
sS'QM_ID'
p594
g571
sS'SYSTIME'
p595
g2
(g25
g26
(lp596
g15
(S'\x07\xe8\t\x13\x08 (\x03"\xf8'
p597
tp598
Rp599
aNatp600
Rp601
(dp602
g34
S'[)'
p603
sbsS'QM_DESC'
p604
V36th EMEP laboratory intercomparison
p605
stp606
Rp607
sVAT03L_reference_calibration_20110309
p608
g2
(g3
g4
(dp609
S'QM_COMMENT'
p610
NsS'QM_DOCUMENT_URL'
p611
NsS'QM_DOCUMENT_DATE'
p612
NsS'QM_DOCUMENT_TITLE'
p613
NsS'QT_TYPE'
p614
VOff-site intercomparison
p615
sS'OR_CODE'
p616
VAT03L
p617
sS'QM_START'
p618
g15
(S'\x07\xdb\x03\t\x00\x00\x00\x00\x00\x00'
p619
tp620
Rp621
sS'QM_END'
p622
NsS'QM_ID'
p623
g608
sS'SYSTIME'
p624
g2
(g25
g26
(lp625
g15
(S'\x07\xde\x05\x01\x00\x00\x00\x00\x00\x00'
p626
tp627
Rp628
aNatp629
Rp630
(dp631
g34
S'[)'
p632
sbsS'QM_DESC'
p633
Nstp634
Rp635
sVEMEP34
p636
g2
(g3
g4
(dp637
S'QM_COMMENT'
p638
NsS'QM_DOCUMENT_URL'
p639
Vhttp://www.nilu.no/projects/ccc/qameasure/emep34.pdf
p640
sS'QM_DOCUMENT_DATE'
p641
g15
(S'\x07\xe1\x03\x08\x00\x00\x00\x00\x00\x00'
p642
tp643
Rp644
sS'QM_DOCUMENT_TITLE'
p645
VSummary statistics EMEP laboratory intercalibration Round 34
p646
sS'QT_TYPE'
p647
VInterlaboratory comparison
p648
sS'OR_CODE'
p649
VNO03O
p650
sS'QM_START'
p651
g15
(S'\x07\xe0\x08\x01\x00\x00\x00\x00\x00\x00'
p652
tp653
Rp654
sS'QM_END'
p655
g15
(S'\x07\xe1\x01\x01\x00\x00\x00\x00\x00\x00'
p656
tp657
Rp658
sS'QM_ID'
p659
g636
sS'SYSTIME'
p660
g2
(g25
g26
(lp661
g15
(S'\x07\xe8\t\x13\x08 (\x03"\xf8'
p662
tp663
Rp664
aNatp665
Rp666
(dp667
g34
S'[)'
p668
sbsS'QM_DESC'
p669
V34th EMEP laboratory intercomparison
p670
stp671
Rp672
sVJP02L_reference_calibration_20221013
p673
g2
(g3
g4
(dp674
S'QM_COMMENT'
p675
NsS'QM_DOCUMENT_URL'
p676
NsS'QM_DOCUMENT_DATE'
p677
NsS'QM_DOCUMENT_TITLE'
p678
NsS'QT_TYPE'
p679
VOff-site intercomparison
p680
sS'OR_CODE'
p681
VJP02L
p682
sS'QM_START'
p683
g15
(S'\x07\xe6\n\r\x00\x00\x00\x00\x00\x00'
p684
tp685
Rp686
sS'QM_END'
p687
NsS'QM_ID'
p688
g673
sS'SYSTIME'
p689
g2
(g25
g26
(lp690
g15
(S'\x07\xe7\x0c\x12\x0c$5\x08\x0e.'
p691
tp692
Rp693
aNatp694
Rp695
(dp696
g34
S'[)'
p697
sbsS'QM_DESC'
p698
Nstp699
Rp700
sVEMEP32
p701
g2
(g3
g4
(dp702
S'QM_COMMENT'
p703
NsS'QM_DOCUMENT_URL'
p704
Vhttp://www.nilu.no/projects/ccc/qameasure/emep32.pdf
p705
sS'QM_DOCUMENT_DATE'
p706
g15
(S'\x07\xdf\x03\x08\x00\x00\x00\x00\x00\x00'
p707
tp708
Rp709
sS'QM_DOCUMENT_TITLE'
p710
VSummary statistics EMEP laboratory intercalibration Round 32
p711
sS'QT_TYPE'
p712
VInterlaboratory comparison
p713
sS'OR_CODE'
p714
VNO03O
p715
sS'QM_START'
p716
g15
(S'\x07\xde\x08\x01\x00\x00\x00\x00\x00\x00'
p717
tp718
Rp719
sS'QM_END'
p720
g15
(S'\x07\xdf\x01\x01\x00\x00\x00\x00\x00\x00'
p721
tp722
Rp723
sS'QM_ID'
p724
g701
sS'SYSTIME'
p725
g2
(g25
g26
(lp726
g15
(S'\x07\xe8\t\x13\x08 (\x03"\xf8'
p727
tp728
Rp729
aNatp730
Rp731
(dp732
g34
S'[)'
p733
sbsS'QM_DESC'
p734
V32nd EMEP laboratory intercomparison
p735
stp736
Rp737
sVAT03L_reference_calibration_20050620
p738
g2
(g3
g4
(dp739
S'QM_COMMENT'
p740
NsS'QM_DOCUMENT_URL'
p741
NsS'QM_DOCUMENT_DATE'
p742
NsS'QM_DOCUMENT_TITLE'
p743
NsS'QT_TYPE'
p744
VOff-site intercomparison
p745
sS'OR_CODE'
p746
VAT03L
p747
sS'QM_START'
p748
g15
(S'\x07\xd5\x06\x14\x00\x00\x00\x00\x00\x00'
p749
tp750
Rp751
sS'QM_END'
p752
NsS'QM_ID'
p753
g738
sS'SYSTIME'
p754
g2
(g25
g26
(lp755
g15
(S'\x07\xde\x05\x01\x00\x00\x00\x00\x00\x00'
p756
tp757
Rp758
aNatp759
Rp760
(dp761
g34
S'[)'
p762
sbsS'QM_DESC'
p763
Nstp764
Rp765
sVAT03L_reference_calibration_20081009
p766
g2
(g3
g4
(dp767
S'QM_COMMENT'
p768
NsS'QM_DOCUMENT_URL'
p769
NsS'QM_DOCUMENT_DATE'
p770
NsS'QM_DOCUMENT_TITLE'
p771
NsS'QT_TYPE'
p772
VOff-site intercomparison
p773
sS'OR_CODE'
p774
VAT03L
p775
sS'QM_START'
p776
g15
(S'\x07\xd8\n\t\x00\x00\x00\x00\x00\x00'
p777
tp778
Rp779
sS'QM_END'
p780
NsS'QM_ID'
p781
g766
sS'SYSTIME'
p782
g2
(g25
g26
(lp783
g15
(S'\x07\xde\x05\x01\x00\x00\x00\x00\x00\x00'
p784
tp785
Rp786
aNatp787
Rp788
(dp789
g34
S'[)'
p790
sbsS'QM_DESC'
p791
Nstp792
Rp793
sVEMEP37
p794
g2
(g3
g4
(dp795
S'QM_COMMENT'
p796
NsS'QM_DOCUMENT_URL'
p797
Vhttp://www.nilu.no/projects/ccc/qameasure/emep37.pdf
p798
sS'QM_DOCUMENT_DATE'
p799
g15
(S'\x07\xe4\x03\x01\x00\x00\x00\x00\x00\x00'
p800
tp801
Rp802
sS'QM_DOCUMENT_TITLE'
p803
VSummary statistics EMEP laboratory intercalibration Round 37
p804
sS'QT_TYPE'
p805
VInterlaboratory comparison
p806
sS'OR_CODE'
p807
VNO03O
p808
sS'QM_START'
p809
g15
(S'\x07\xe3\x08\x01\x00\x00\x00\x00\x00\x00'
p810
tp811
Rp812
sS'QM_END'
p813
g15
(S'\x07\xe4\x02\x01\x00\x00\x00\x00\x00\x00'
p814
tp815
Rp816
sS'QM_ID'
p817
g794
sS'SYSTIME'
p818
g2
(g25
g26
(lp819
g15
(S'\x07\xe8\x08\x1e\t3\x19\x04C\xd6'
p820
tp821
Rp822
aNatp823
Rp824
(dp825
g34
S'[)'
p826
sbsS'QM_DESC'
p827
V37th EMEP laboratory intercomparison
p828
stp829
Rp830
sVJP02L_reference_calibration_20191001
p831
g2
(g3
g4
(dp832
S'QM_COMMENT'
p833
NsS'QM_DOCUMENT_URL'
p834
NsS'QM_DOCUMENT_DATE'
p835
NsS'QM_DOCUMENT_TITLE'
p836
NsS'QT_TYPE'
p837
VOff-site intercomparison
p838
sS'OR_CODE'
p839
VJP02L
p840
sS'QM_START'
p841
g15
(S'\x07\xe3\n\x01\x00\x00\x00\x00\x00\x00'
p842
tp843
Rp844
sS'QM_END'
p845
NsS'QM_ID'
p846
g831
sS'SYSTIME'
p847
g2
(g25
g26
(lp848
g15
(S'\x07\xde\x05\x01\x00\x00\x00\x00\x00\x00'
p849
tp850
Rp851
aNatp852
Rp853
(dp854
g34
S'[)'
p855
sbsS'QM_DESC'
p856
Nstp857
Rp858
sVJP02L_reference_calibration_20190301
p859
g2
(g3
g4
(dp860
S'QM_COMMENT'
p861
NsS'QM_DOCUMENT_URL'
p862
NsS'QM_DOCUMENT_DATE'
p863
NsS'QM_DOCUMENT_TITLE'
p864
NsS'QT_TYPE'
p865
VOff-site intercomparison
p866
sS'OR_CODE'
p867
VJP02L
p868
sS'QM_START'
p869
g15
(S'\x07\xe3\x03\x01\x00\x00\x00\x00\x00\x00'
p870
tp871
Rp872
sS'QM_END'
p873
NsS'QM_ID'
p874
g859
sS'SYSTIME'
p875
g2
(g25
g26
(lp876
g15
(S'\x07\xde\x05\x01\x00\x00\x00\x00\x00\x00'
p877
tp878
Rp879
aNatp880
Rp881
(dp882
g34
S'[)'
p883
sbsS'QM_DESC'
p884
Nstp885
Rp886
sVJP02L_reference_calibration_20180214
p887
g2
(g3
g4
(dp888
S'QM_COMMENT'
p889
NsS'QM_DOCUMENT_URL'
p890
NsS'QM_DOCUMENT_DATE'
p891
NsS'QM_DOCUMENT_TITLE'
p892
NsS'QT_TYPE'
p893
VOff-site intercomparison
p894
sS'OR_CODE'
p895
VJP02L
p896
sS'QM_START'
p897
g15
(S'\x07\xe2\x02\x0e\x00\x00\x00\x00\x00\x00'
p898
tp899
Rp900
sS'QM_END'
p901
NsS'QM_ID'
p902
g887
sS'SYSTIME'
p903
g2
(g25
g26
(lp904
g15
(S'\x07\xde\x05\x01\x00\x00\x00\x00\x00\x00'
p905
tp906
Rp907
aNatp908
Rp909
(dp910
g34
S'[)'
p911
sbsS'QM_DESC'
p912
Nstp913
Rp914
sVWCCAP-AP-2019-1a+b
p915
g2
(g3
g4
(dp916
S'QM_COMMENT'
p917
NsS'QM_DOCUMENT_URL'
p918
NsS'QM_DOCUMENT_DATE'
p919
NsS'QM_DOCUMENT_TITLE'
p920
NsS'QT_TYPE'
p921
VOff-site intercomparison
p922
sS'OR_CODE'
p923
VDE43O
p924
sS'QM_START'
p925
g15
(S'\x07\xe3\x01\x0e\x00\x00\x00\x00\x00\x00'
p926
tp927
Rp928
sS'QM_END'
p929
g15
(S'\x07\xe3\x01\x12\x00\x00\x00\x00\x00\x00'
p930
tp931
Rp932
sS'QM_ID'
p933
g915
sS'SYSTIME'
p934
g2
(g25
g26
(lp935
g15
(S'\x07\xde\x05\x01\x00\x00\x00\x00\x00\x00'
p936
tp937
Rp938
aNatp939
Rp940
(dp941
g34
S'[)'
p942
sbsS'QM_DESC'
p943
VIntercomparison of Absorption Photometer
p944
stp945
Rp946
sVWCCAP-IN-2018-3
p947
g2
(g3
g4
(dp948
S'QM_COMMENT'
p949
NsS'QM_DOCUMENT_URL'
p950
NsS'QM_DOCUMENT_DATE'
p951
NsS'QM_DOCUMENT_TITLE'
p952
NsS'QT_TYPE'
p953
VOff-site intercomparison
p954
sS'OR_CODE'
p955
VDE43O
p956
sS'QM_START'
p957
g15
(S'\x07\xe2\n\x0f\x00\x00\x00\x00\x00\x00'
p958
tp959
Rp960
sS'QM_END'
p961
g15
(S'\x07\xe2\n\x1a\x00\x00\x00\x00\x00\x00'
p962
tp963
Rp964
sS'QM_ID'
p965
g947
sS'SYSTIME'
p966
g2
(g25
g26
(lp967
g15
(S'\x07\xde\x05\x01\x00\x00\x00\x00\x00\x00'
p968
tp969
Rp970
aNatp971
Rp972
(dp973
g34
S'[)'
p974
sbsS'QM_DESC'
p975
VIntercomparison of Integrating Nephelometer
p976
stp977
Rp978
sVAT03L_reference_calibration_20190522
p979
g2
(g3
g4
(dp980
S'QM_COMMENT'
p981
NsS'QM_DOCUMENT_URL'
p982
NsS'QM_DOCUMENT_DATE'
p983
NsS'QM_DOCUMENT_TITLE'
p984
NsS'QT_TYPE'
p985
VOff-site intercomparison
p986
sS'OR_CODE'
p987
VAT03L
p988
sS'QM_START'
p989
g15
(S'\x07\xe3\x05\x16\x00\x00\x00\x00\x00\x00'
p990
tp991
Rp992
sS'QM_END'
p993
NsS'QM_ID'
p994
g979
sS'SYSTIME'
p995
g2
(g25
g26
(lp996
g15
(S'\x07\xde\x05\x01\x00\x00\x00\x00\x00\x00'
p997
tp998
Rp999
aNatp1000
Rp1001
(dp1002
g34
S'[)'
p1003
sbsS'QM_DESC'
p1004
Nstp1005
Rp1006
sVJP02L_reference_calibration_20170904
p1007
g2
(g3
g4
(dp1008
S'QM_COMMENT'
p1009
NsS'QM_DOCUMENT_URL'
p1010
NsS'QM_DOCUMENT_DATE'
p1011
NsS'QM_DOCUMENT_TITLE'
p1012
NsS'QT_TYPE'
p1013
VOff-site intercomparison
p1014
sS'OR_CODE'
p1015
VJP02L
p1016
sS'QM_START'
p1017
g15
(S'\x07\xe1\t\x04\x00\x00\x00\x00\x00\x00'
p1018
tp1019
Rp1020
sS'QM_END'
p1021
NsS'QM_ID'
p1022
g1007
sS'SYSTIME'
p1023
g2
(g25
g26
(lp1024
g15
(S'\x07\xde\x05\x01\x00\x00\x00\x00\x00\x00'
p1025
tp1026
Rp1027
aNatp1028
Rp1029
(dp1030
g34
S'[)'
p1031
sbsS'QM_DESC'
p1032
Nstp1033
Rp1034
sVWCCAP-MPSS-2016-3
p1035
g2
(g3
g4
(dp1036
S'QM_COMMENT'
p1037
NsS'QM_DOCUMENT_URL'
p1038
NsS'QM_DOCUMENT_DATE'
p1039
NsS'QM_DOCUMENT_TITLE'
p1040
NsS'QT_TYPE'
p1041
VOff-site intercomparison
p1042
sS'OR_CODE'
p1043
VDE43O
p1044
sS'QM_START'
p1045
g15
(S'\x07\xe0\x04\x19\x00\x00\x00\x00\x00\x00'
p1046
tp1047
Rp1048
sS'QM_END'
p1049
g15
(S'\x07\xe0\x04\x1d\x00\x00\x00\x00\x00\x00'
p1050
tp1051
Rp1052
sS'QM_ID'
p1053
g1035
sS'SYSTIME'
p1054
g2
(g25
g26
(lp1055
g15
(S'\x07\xde\x05\x01\x00\x00\x00\x00\x00\x00'
p1056
tp1057
Rp1058
aNatp1059
Rp1060
(dp1061
g34
S'[)'
p1062
sbsS'QM_DESC'
p1063
VIntercomparison of Mobility Particle Size Spectrometer
p1064
stp1065
Rp1066
sVWCCAP-CPC-2020-1
p1067
g2
(g3
g4
(dp1068
S'QM_COMMENT'
p1069
NsS'QM_DOCUMENT_URL'
p1070
NsS'QM_DOCUMENT_DATE'
p1071
NsS'QM_DOCUMENT_TITLE'
p1072
NsS'QT_TYPE'
p1073
VOff-site intercomparison
p1074
sS'OR_CODE'
p1075
VDE43O
p1076
sS'QM_START'
p1077
g15
(S'\x07\xe4\x03\x10\x00\x00\x00\x00\x00\x00'
p1078
tp1079
Rp1080
sS'QM_END'
p1081
g15
(S'\x07\xe4\x03\x14\x00\x00\x00\x00\x00\x00'
p1082
tp1083
Rp1084
sS'QM_ID'
p1085
g1067
sS'SYSTIME'
p1086
g2
(g25
g26
(lp1087
g15
(S'\x07\xde\x05\x01\x00\x00\x00\x00\x00\x00'
p1088
tp1089
Rp1090
aNatp1091
Rp1092
(dp1093
g34
S'[)'
p1094
sbsS'QM_DESC'
p1095
VIntercomparison of Condensation Particle Counter
p1096
stp1097
Rp1098
sVWCCAP-MPSS-2020-4
p1099
g2
(g3
g4
(dp1100
S'QM_COMMENT'
p1101
NsS'QM_DOCUMENT_URL'
p1102
NsS'QM_DOCUMENT_DATE'
p1103
NsS'QM_DOCUMENT_TITLE'
p1104
NsS'QT_TYPE'
p1105
VOff-site intercomparison
p1106
sS'OR_CODE'
p1107
VDE43O
p1108
sS'QM_START'
p1109
g15
(S'\x07\xe3\x0c\r\x00\x00\x00\x00\x00\x00'
p1110
tp1111
Rp1112
sS'QM_END'
p1113
g15
(S'\x07\xe4\x0c\x11\x00\x00\x00\x00\x00\x00'
p1114
tp1115
Rp1116
sS'QM_ID'
p1117
g1099
sS'SYSTIME'
p1118
g2
(g25
g26
(lp1119
g15
(S'\x07\xde\x05\x01\x00\x00\x00\x00\x00\x00'
p1120
tp1121
Rp1122
aNatp1123
Rp1124
(dp1125
g34
S'[)'
p1126
sbsS'QM_DESC'
p1127
VIntercomparison of Mobility Particle Size Spectrometer
p1128
stp1129
Rp1130
sVWCCAP-CPC-2020-3
p1131
g2
(g3
g4
(dp1132
S'QM_COMMENT'
p1133
NsS'QM_DOCUMENT_URL'
p1134
NsS'QM_DOCUMENT_DATE'
p1135
NsS'QM_DOCUMENT_TITLE'
p1136
NsS'QT_TYPE'
p1137
VOff-site intercomparison
p1138
sS'OR_CODE'
p1139
VDE43O
p1140
sS'QM_START'
p1141
g15
(S'\x07\xe4\x05\x08\x00\x00\x00\x00\x00\x00'
p1142
tp1143
Rp1144
sS'QM_END'
p1145
g15
(S'\x07\xe4\t\x10\x00\x00\x00\x00\x00\x00'
p1146
tp1147
Rp1148
sS'QM_ID'
p1149
g1131
sS'SYSTIME'
p1150
g2
(g25
g26
(lp1151
g15
(S'\x07\xde\x05\x01\x00\x00\x00\x00\x00\x00'
p1152
tp1153
Rp1154
aNatp1155
Rp1156
(dp1157
g34
S'[)'
p1158
sbsS'QM_DESC'
p1159
VIntercomparison of Condensation Particle Counter
p1160
stp1161
Rp1162
sVAT03L_reference_calibration_20060823
p1163
g2
(g3
g4
(dp1164
S'QM_COMMENT'
p1165
NsS'QM_DOCUMENT_URL'
p1166
NsS'QM_DOCUMENT_DATE'
p1167
NsS'QM_DOCUMENT_TITLE'
p1168
NsS'QT_TYPE'
p1169
VOff-site intercomparison
p1170
sS'OR_CODE'
p1171
VAT03L
p1172
sS'QM_START'
p1173
g15
(S'\x07\xd6\x08\x17\x00\x00\x00\x00\x00\x00'
p1174
tp1175
Rp1176
sS'QM_END'
p1177
NsS'QM_ID'
p1178
g1163
sS'SYSTIME'
p1179
g2
(g25
g26
(lp1180
g15
(S'\x07\xde\x05\x01\x00\x00\x00\x00\x00\x00'
p1181
tp1182
Rp1183
aNatp1184
Rp1185
(dp1186
g34
S'[)'
p1187
sbsS'QM_DESC'
p1188
Nstp1189
Rp1190
sVWCCAP-MPSS-2020-1
p1191
g2
(g3
g4
(dp1192
S'QM_COMMENT'
p1193
NsS'QM_DOCUMENT_URL'
p1194
NsS'QM_DOCUMENT_DATE'
p1195
NsS'QM_DOCUMENT_TITLE'
p1196
NsS'QT_TYPE'
p1197
VOff-site intercomparison
p1198
sS'OR_CODE'
p1199
VDE43O
p1200
sS'QM_START'
p1201
g15
(S'\x07\xe4\x03\x1e\x00\x00\x00\x00\x00\x00'
p1202
tp1203
Rp1204
sS'QM_END'
p1205
g15
(S'\x07\xe4\x04\x03\x00\x00\x00\x00\x00\x00'
p1206
tp1207
Rp1208
sS'QM_ID'
p1209
g1191
sS'SYSTIME'
p1210
g2
(g25
g26
(lp1211
g15
(S'\x07\xde\x05\x01\x00\x00\x00\x00\x00\x00'
p1212
tp1213
Rp1214
aNatp1215
Rp1216
(dp1217
g34
S'[)'
p1218
sbsS'QM_DESC'
p1219
VIntercomparison of Mobility Particle Size Spectrometer
p1220
stp1221
Rp1222
sVCZ01L_reference_calibration_20130911
p1223
g2
(g3
g4
(dp1224
S'QM_COMMENT'
p1225
NsS'QM_DOCUMENT_URL'
p1226
NsS'QM_DOCUMENT_DATE'
p1227
NsS'QM_DOCUMENT_TITLE'
p1228
NsS'QT_TYPE'
p1229
VOn-site intercomparison
p1230
sS'OR_CODE'
p1231
VCZ01L
p1232
sS'QM_START'
p1233
g15
(S'\x07\xdd\t\x0b\x00\x00\x00\x00\x00\x00'
p1234
tp1235
Rp1236
sS'QM_END'
p1237
NsS'QM_ID'
p1238
g1223
sS'SYSTIME'
p1239
g2
(g25
g26
(lp1240
g15
(S'\x07\xde\x05\x01\x00\x00\x00\x00\x00\x00'
p1241
tp1242
Rp1243
aNatp1244
Rp1245
(dp1246
g34
S'[)'
p1247
sbsS'QM_DESC'
p1248
Nstp1249
Rp1250
sVWCCAP-MPSS-2020-3
p1251
g2
(g3
g4
(dp1252
S'QM_COMMENT'
p1253
NsS'QM_DOCUMENT_URL'
p1254
NsS'QM_DOCUMENT_DATE'
p1255
NsS'QM_DOCUMENT_TITLE'
p1256
NsS'QT_TYPE'
p1257
VOff-site intercomparison
p1258
sS'OR_CODE'
p1259
VDE43O
p1260
sS'QM_START'
p1261
g15
(S'\x07\xe4\x03\x05\x00\x00\x00\x00\x00\x00'
p1262
tp1263
Rp1264
sS'QM_END'
p1265
g15
(S'\x07\xe4\t\x0e\x00\x00\x00\x00\x00\x00'
p1266
tp1267
Rp1268
sS'QM_ID'
p1269
g1251
sS'SYSTIME'
p1270
g2
(g25
g26
(lp1271
g15
(S'\x07\xde\x05\x01\x00\x00\x00\x00\x00\x00'
p1272
tp1273
Rp1274
aNatp1275
Rp1276
(dp1277
g34
S'[)'
p1278
sbsS'QM_DESC'
p1279
VIntercomparison of Mobility Particle Size Spectrometer
p1280
stp1281
Rp1282
sVAT03L_reference_calibration_20100909
p1283
g2
(g3
g4
(dp1284
S'QM_COMMENT'
p1285
NsS'QM_DOCUMENT_URL'
p1286
NsS'QM_DOCUMENT_DATE'
p1287
NsS'QM_DOCUMENT_TITLE'
p1288
NsS'QT_TYPE'
p1289
VOff-site intercomparison
p1290
sS'OR_CODE'
p1291
VAT03L
p1292
sS'QM_START'
p1293
g15
(S'\x07\xda\t\t\x00\x00\x00\x00\x00\x00'
p1294
tp1295
Rp1296
sS'QM_END'
p1297
NsS'QM_ID'
p1298
g1283
sS'SYSTIME'
p1299
g2
(g25
g26
(lp1300
g15
(S'\x07\xde\x05\x01\x00\x00\x00\x00\x00\x00'
p1301
tp1302
Rp1303
aNatp1304
Rp1305
(dp1306
g34
S'[)'
p1307
sbsS'QM_DESC'
p1308
Nstp1309
Rp1310
sVJP02L_reference_calibration_20160614
p1311
g2
(g3
g4
(dp1312
S'QM_COMMENT'
p1313
NsS'QM_DOCUMENT_URL'
p1314
NsS'QM_DOCUMENT_DATE'
p1315
NsS'QM_DOCUMENT_TITLE'
p1316
NsS'QT_TYPE'
p1317
VOff-site intercomparison
p1318
sS'OR_CODE'
p1319
VJP02L
p1320
sS'QM_START'
p1321
g15
(S'\x07\xe0\x06\x0e\x00\x00\x00\x00\x00\x00'
p1322
tp1323
Rp1324
sS'QM_END'
p1325
NsS'QM_ID'
p1326
g1311
sS'SYSTIME'
p1327
g2
(g25
g26
(lp1328
g15
(S'\x07\xde\x05\x01\x00\x00\x00\x00\x00\x00'
p1329
tp1330
Rp1331
aNatp1332
Rp1333
(dp1334
g34
S'[)'
p1335
sbsS'QM_DESC'
p1336
Nstp1337
Rp1338
sVAT03L_reference_calibration_20190228
p1339
g2
(g3
g4
(dp1340
S'QM_COMMENT'
p1341
NsS'QM_DOCUMENT_URL'
p1342
NsS'QM_DOCUMENT_DATE'
p1343
NsS'QM_DOCUMENT_TITLE'
p1344
NsS'QT_TYPE'
p1345
VOff-site intercomparison
p1346
sS'OR_CODE'
p1347
VAT03L
p1348
sS'QM_START'
p1349
g15
(S'\x07\xe3\x02\x1c\x00\x00\x00\x00\x00\x00'
p1350
tp1351
Rp1352
sS'QM_END'
p1353
NsS'QM_ID'
p1354
g1339
sS'SYSTIME'
p1355
g2
(g25
g26
(lp1356
g15
(S'\x07\xde\x05\x01\x00\x00\x00\x00\x00\x00'
p1357
tp1358
Rp1359
aNatp1360
Rp1361
(dp1362
g34
S'[)'
p1363
sbsS'QM_DESC'
p1364
Nstp1365
Rp1366
sVJP02L_reference_calibration_20190805
p1367
g2
(g3
g4
(dp1368
S'QM_COMMENT'
p1369
NsS'QM_DOCUMENT_URL'
p1370
NsS'QM_DOCUMENT_DATE'
p1371
NsS'QM_DOCUMENT_TITLE'
p1372
NsS'QT_TYPE'
p1373
VOff-site intercomparison
p1374
sS'OR_CODE'
p1375
VJP02L
p1376
sS'QM_START'
p1377
g15
(S'\x07\xe3\x08\x05\x00\x00\x00\x00\x00\x00'
p1378
tp1379
Rp1380
sS'QM_END'
p1381
NsS'QM_ID'
p1382
g1367
sS'SYSTIME'
p1383
g2
(g25
g26
(lp1384
g15
(S'\x07\xde\x05\x01\x00\x00\x00\x00\x00\x00'
p1385
tp1386
Rp1387
aNatp1388
Rp1389
(dp1390
g34
S'[)'
p1391
sbsS'QM_DESC'
p1392
Nstp1393
Rp1394
sVJP02L_reference_calibration_20160818
p1395
g2
(g3
g4
(dp1396
S'QM_COMMENT'
p1397
NsS'QM_DOCUMENT_URL'
p1398
NsS'QM_DOCUMENT_DATE'
p1399
NsS'QM_DOCUMENT_TITLE'
p1400
NsS'QT_TYPE'
p1401
VOff-site intercomparison
p1402
sS'OR_CODE'
p1403
VJP02L
p1404
sS'QM_START'
p1405
g15
(S'\x07\xe0\x08\x12\x00\x00\x00\x00\x00\x00'
p1406
tp1407
Rp1408
sS'QM_END'
p1409
NsS'QM_ID'
p1410
g1395
sS'SYSTIME'
p1411
g2
(g25
g26
(lp1412
g15
(S'\x07\xde\x05\x01\x00\x00\x00\x00\x00\x00'
p1413
tp1414
Rp1415
aNatp1416
Rp1417
(dp1418
g34
S'[)'
p1419
sbsS'QM_DESC'
p1420
Nstp1421
Rp1422
sVWCCAP-CPC-2018-1
p1423
g2
(g3
g4
(dp1424
S'QM_COMMENT'
p1425
NsS'QM_DOCUMENT_URL'
p1426
NsS'QM_DOCUMENT_DATE'
p1427
NsS'QM_DOCUMENT_TITLE'
p1428
NsS'QT_TYPE'
p1429
VOff-site intercomparison
p1430
sS'OR_CODE'
p1431
VDE43O
p1432
sS'QM_START'
p1433
g15
(S'\x07\xe2\x02\x13\x00\x00\x00\x00\x00\x00'
p1434
tp1435
Rp1436
sS'QM_END'
p1437
g15
(S'\x07\xe2\x02\x17\x00\x00\x00\x00\x00\x00'
p1438
tp1439
Rp1440
sS'QM_ID'
p1441
g1423
sS'SYSTIME'
p1442
g2
(g25
g26
(lp1443
g15
(S'\x07\xde\x05\x01\x00\x00\x00\x00\x00\x00'
p1444
tp1445
Rp1446
aNatp1447
Rp1448
(dp1449
g34
S'[)'
p1450
sbsS'QM_DESC'
p1451
VIntercomparison of Condensation Particle Counter
p1452
stp1453
Rp1454
sVAT03L_reference_calibration_20191023
p1455
g2
(g3
g4
(dp1456
S'QM_COMMENT'
p1457
NsS'QM_DOCUMENT_URL'
p1458
NsS'QM_DOCUMENT_DATE'
p1459
NsS'QM_DOCUMENT_TITLE'
p1460
NsS'QT_TYPE'
p1461
VOff-site intercomparison
p1462
sS'OR_CODE'
p1463
VAT03L
p1464
sS'QM_START'
p1465
g15
(S'\x07\xe3\n\x17\x00\x00\x00\x00\x00\x00'
p1466
tp1467
Rp1468
sS'QM_END'
p1469
NsS'QM_ID'
p1470
g1455
sS'SYSTIME'
p1471
g2
(g25
g26
(lp1472
g15
(S'\x07\xde\x05\x01\x00\x00\x00\x00\x00\x00'
p1473
tp1474
Rp1475
aNatp1476
Rp1477
(dp1478
g34
S'[)'
p1479
sbsS'QM_DESC'
p1480
Nstp1481
Rp1482
sVJP02L_reference_calibration_20230606
p1483
g2
(g3
g4
(dp1484
S'QM_COMMENT'
p1485
NsS'QM_DOCUMENT_URL'
p1486
NsS'QM_DOCUMENT_DATE'
p1487
NsS'QM_DOCUMENT_TITLE'
p1488
NsS'QT_TYPE'
p1489
VOff-site intercomparison
p1490
sS'OR_CODE'
p1491
VJP02L
p1492
sS'QM_START'
p1493
g15
(S'\x07\xe7\x06\x06\x00\x00\x00\x00\x00\x00'
p1494
tp1495
Rp1496
sS'QM_END'
p1497
NsS'QM_ID'
p1498
g1483
sS'SYSTIME'
p1499
g2
(g25
g26
(lp1500
g15
(S'\x07\xe9\x01\n\x0b\x07\x01\x0ba\x0b'
p1501
tp1502
Rp1503
aNatp1504
Rp1505
(dp1506
g34
S'[)'
p1507
sbsS'QM_DESC'
p1508
Nstp1509
Rp1510
sVEMEP_POP_2002
p1511
g2
(g3
g4
(dp1512
S'QM_COMMENT'
p1513
NsS'QM_DOCUMENT_URL'
p1514
Vhttps://projects.nilu.no/ccc/reports/cccr10-2003.pdf
p1515
sS'QM_DOCUMENT_DATE'
p1516
g15
(S'\x07\xd4\x02\x01\x00\x00\x00\x00\x00\x00'
p1517
tp1518
Rp1519
sS'QM_DOCUMENT_TITLE'
p1520
VEMEP POP laboratory comparison 2000-2002
p1521
sS'QT_TYPE'
p1522
VInterlaboratory comparison
p1523
sS'OR_CODE'
p1524
VNO03O
p1525
sS'QM_START'
p1526
g15
(S'\x07\xd0\x0b\x01\x00\x00\x00\x00\x00\x00'
p1527
tp1528
Rp1529
sS'QM_END'
p1530
g15
(S'\x07\xd3\x01\x01\x00\x00\x00\x00\x00\x00'
p1531
tp1532
Rp1533
sS'QM_ID'
p1534
g1511
sS'SYSTIME'
p1535
g2
(g25
g26
(lp1536
g15
(S'\x07\xde\x05\x01\x00\x00\x00\x00\x00\x00'
p1537
tp1538
Rp1539
aNatp1540
Rp1541
(dp1542
g34
S'[)'
p1543
sbsS'QM_DESC'
p1544
VEMEP POP laboratory comparison 2000-2002
p1545
stp1546
Rp1547
sVECAC-OCEC-2024-1
p1548
g2
(g3
g4
(dp1549
S'QM_COMMENT'
p1550
NsS'QM_DOCUMENT_URL'
p1551
NsS'QM_DOCUMENT_DATE'
p1552
NsS'QM_DOCUMENT_TITLE'
p1553
VResults of the inter-laboratory comparison exercise for TC and EC measurements (ref.: OCEC-2024-1)
p1554
sS'QT_TYPE'
p1555
VInterlaboratory comparison
p1556
sS'OR_CODE'
p1557
VIT14O
p1558
sS'QM_START'
p1559
g15
(S'\x07\xe8\x01\x01\x00\x00\x00\x00\x00\x00'
p1560
tp1561
Rp1562
sS'QM_END'
p1563
g15
(S'\x07\xe8\x05\x01\x00\x00\x00\x00\x00\x00'
p1564
tp1565
Rp1566
sS'QM_ID'
p1567
g1548
sS'SYSTIME'
p1568
g2
(g25
g26
(lp1569
g15
(S'\x07\xe9\x03\x12\r1\x1e\x04\x81\xb3'
p1570
tp1571
Rp1572
aNatp1573
Rp1574
(dp1575
g34
S'[)'
p1576
sbsS'QM_DESC'
p1577
VECAC Inter-laboratory comparison exercise for TC and EC measurements
p1578
stp1579
Rp1580
sVAT03L_reference_calibration_20130313
p1581
g2
(g3
g4
(dp1582
S'QM_COMMENT'
p1583
NsS'QM_DOCUMENT_URL'
p1584
NsS'QM_DOCUMENT_DATE'
p1585
NsS'QM_DOCUMENT_TITLE'
p1586
NsS'QT_TYPE'
p1587
VOff-site intercomparison
p1588
sS'OR_CODE'
p1589
VAT03L
p1590
sS'QM_START'
p1591
g15
(S'\x07\xdd\x03\r\x00\x00\x00\x00\x00\x00'
p1592
tp1593
Rp1594
sS'QM_END'
p1595
NsS'QM_ID'
p1596
g1581
sS'SYSTIME'
p1597
g2
(g25
g26
(lp1598
g15
(S'\x07\xde\x05\x01\x00\x00\x00\x00\x00\x00'
p1599
tp1600
Rp1601
aNatp1602
Rp1603
(dp1604
g34
S'[)'
p1605
sbsS'QM_DESC'
p1606
Nstp1607
Rp1608
sVJP02L_reference_calibration_20200219
p1609
g2
(g3
g4
(dp1610
S'QM_COMMENT'
p1611
NsS'QM_DOCUMENT_URL'
p1612
NsS'QM_DOCUMENT_DATE'
p1613
NsS'QM_DOCUMENT_TITLE'
p1614
NsS'QT_TYPE'
p1615
VOff-site intercomparison
p1616
sS'OR_CODE'
p1617
VJP02L
p1618
sS'QM_START'
p1619
g15
(S'\x07\xe4\x02\x13\x00\x00\x00\x00\x00\x00'
p1620
tp1621
Rp1622
sS'QM_END'
p1623
NsS'QM_ID'
p1624
g1609
sS'SYSTIME'
p1625
g2
(g25
g26
(lp1626
g15
(S'\x07\xde\x05\x01\x00\x00\x00\x00\x00\x00'
p1627
tp1628
Rp1629
aNatp1630
Rp1631
(dp1632
g34
S'[)'
p1633
sbsS'QM_DESC'
p1634
Nstp1635
Rp1636
sVAT03L_reference_calibration_20110831
p1637
g2
(g3
g4
(dp1638
S'QM_COMMENT'
p1639
NsS'QM_DOCUMENT_URL'
p1640
NsS'QM_DOCUMENT_DATE'
p1641
NsS'QM_DOCUMENT_TITLE'
p1642
NsS'QT_TYPE'
p1643
VOff-site intercomparison
p1644
sS'OR_CODE'
p1645
VAT03L
p1646
sS'QM_START'
p1647
g15
(S'\x07\xdb\x08\x1f\x00\x00\x00\x00\x00\x00'
p1648
tp1649
Rp1650
sS'QM_END'
p1651
NsS'QM_ID'
p1652
g1637
sS'SYSTIME'
p1653
g2
(g25
g26
(lp1654
g15
(S'\x07\xde\x05\x01\x00\x00\x00\x00\x00\x00'
p1655
tp1656
Rp1657
aNatp1658
Rp1659
(dp1660
g34
S'[)'
p1661
sbsS'QM_DESC'
p1662
Nstp1663
Rp1664
sVWCCAP-MPSS-2016-5
p1665
g2
(g3
g4
(dp1666
S'QM_COMMENT'
p1667
NsS'QM_DOCUMENT_URL'
p1668
NsS'QM_DOCUMENT_DATE'
p1669
NsS'QM_DOCUMENT_TITLE'
p1670
NsS'QT_TYPE'
p1671
VOff-site intercomparison
p1672
sS'OR_CODE'
p1673
VDE43O
p1674
sS'QM_START'
p1675
g15
(S'\x07\xe0\t\x1a\x00\x00\x00\x00\x00\x00'
p1676
tp1677
Rp1678
sS'QM_END'
p1679
g15
(S'\x07\xe0\t\x1e\x00\x00\x00\x00\x00\x00'
p1680
tp1681
Rp1682
sS'QM_ID'
p1683
g1665
sS'SYSTIME'
p1684
g2
(g25
g26
(lp1685
g15
(S'\x07\xde\x05\x01\x00\x00\x00\x00\x00\x00'
p1686
tp1687
Rp1688
aNatp1689
Rp1690
(dp1691
g34
S'[)'
p1692
sbsS'QM_DESC'
p1693
VIntercomparison of Mobility Particle Size Spectrometer
p1694
stp1695
Rp1696
sVEMEP29
p1697
g2
(g3
g4
(dp1698
S'QM_COMMENT'
p1699
NsS'QM_DOCUMENT_URL'
p1700
Vhttp://www.nilu.no/projects/ccc/qameasure/emep29.pdf
p1701
sS'QM_DOCUMENT_DATE'
p1702
g15
(S'\x07\xdc\x03\x08\x00\x00\x00\x00\x00\x00'
p1703
tp1704
Rp1705
sS'QM_DOCUMENT_TITLE'
p1706
VSummary statistics EMEP laboratory intercalibration Round 29
p1707
sS'QT_TYPE'
p1708
VInterlaboratory comparison
p1709
sS'OR_CODE'
p1710
VNO03O
p1711
sS'QM_START'
p1712
g15
(S'\x07\xda\x08\x01\x00\x00\x00\x00\x00\x00'
p1713
tp1714
Rp1715
sS'QM_END'
p1716
g15
(S'\x07\xdc\x01\x01\x00\x00\x00\x00\x00\x00'
p1717
tp1718
Rp1719
sS'QM_ID'
p1720
g1697
sS'SYSTIME'
p1721
g2
(g25
g26
(lp1722
g15
(S'\x07\xe8\t\x13\x08 (\x03"\xf8'
p1723
tp1724
Rp1725
aNatp1726
Rp1727
(dp1728
g34
S'[)'
p1729
sbsS'QM_DESC'
p1730
V29th EMEP laboratory intercomparison
p1731
stp1732
Rp1733
sVEMEP28
p1734
g2
(g3
g4
(dp1735
S'QM_COMMENT'
p1736
NsS'QM_DOCUMENT_URL'
p1737
Vhttp://www.nilu.no/projects/ccc/qameasure/emep28.pdf
p1738
sS'QM_DOCUMENT_DATE'
p1739
g15
(S'\x07\xe0\x03\x08\x00\x00\x00\x00\x00\x00'
p1740
tp1741
Rp1742
sS'QM_DOCUMENT_TITLE'
p1743
VSummary statistics EMEP laboratory intercalibration Round 28
p1744
sS'QT_TYPE'
p1745
VInterlaboratory comparison
p1746
sS'OR_CODE'
p1747
VNO03O
p1748
sS'QM_START'
p1749
g15
(S'\x07\xd9\x08\x01\x00\x00\x00\x00\x00\x00'
p1750
tp1751
Rp1752
sS'QM_END'
p1753
g15
(S'\x07\xda\x01\x01\x00\x00\x00\x00\x00\x00'
p1754
tp1755
Rp1756
sS'QM_ID'
p1757
g1734
sS'SYSTIME'
p1758
g2
(g25
g26
(lp1759
g15
(S'\x07\xe8\t\x13\x08 (\x03"\xf8'
p1760
tp1761
Rp1762
aNatp1763
Rp1764
(dp1765
g34
S'[)'
p1766
sbsS'QM_DESC'
p1767
V28th EMEP laboratory intercomparison
p1768
stp1769
Rp1770
sVJP02L_reference_calibration_20180117
p1771
g2
(g3
g4
(dp1772
S'QM_COMMENT'
p1773
NsS'QM_DOCUMENT_URL'
p1774
NsS'QM_DOCUMENT_DATE'
p1775
NsS'QM_DOCUMENT_TITLE'
p1776
NsS'QT_TYPE'
p1777
VOff-site intercomparison
p1778
sS'OR_CODE'
p1779
VJP02L
p1780
sS'QM_START'
p1781
g15
(S'\x07\xe2\x01\x11\x00\x00\x00\x00\x00\x00'
p1782
tp1783
Rp1784
sS'QM_END'
p1785
NsS'QM_ID'
p1786
g1771
sS'SYSTIME'
p1787
g2
(g25
g26
(lp1788
g15
(S'\x07\xde\x05\x01\x00\x00\x00\x00\x00\x00'
p1789
tp1790
Rp1791
aNatp1792
Rp1793
(dp1794
g34
S'[)'
p1795
sbsS'QM_DESC'
p1796
Nstp1797
Rp1798
sVWCCAP-MPSS-2016-1
p1799
g2
(g3
g4
(dp1800
S'QM_COMMENT'
p1801
NsS'QM_DOCUMENT_URL'
p1802
NsS'QM_DOCUMENT_DATE'
p1803
NsS'QM_DOCUMENT_TITLE'
p1804
NsS'QT_TYPE'
p1805
VOff-site intercomparison
p1806
sS'OR_CODE'
p1807
VDE43O
p1808
sS'QM_START'
p1809
g15
(S'\x07\xe0\x01\x19\x00\x00\x00\x00\x00\x00'
p1810
tp1811
Rp1812
sS'QM_END'
p1813
g15
(S'\x07\xe0\x01\x1d\x00\x00\x00\x00\x00\x00'
p1814
tp1815
Rp1816
sS'QM_ID'
p1817
g1799
sS'SYSTIME'
p1818
g2
(g25
g26
(lp1819
g15
(S'\x07\xde\x05\x01\x00\x00\x00\x00\x00\x00'
p1820
tp1821
Rp1822
aNatp1823
Rp1824
(dp1825
g34
S'[)'
p1826
sbsS'QM_DESC'
p1827
VIntercomparison of Mobility Particle Size Spectrometer
p1828
stp1829
Rp1830
sVEMEP27
p1831
g2
(g3
g4
(dp1832
S'QM_COMMENT'
p1833
NsS'QM_DOCUMENT_URL'
p1834
NsS'QM_DOCUMENT_DATE'
p1835
g15
(S'\x07\xe0\x03\x08\x00\x00\x00\x00\x00\x00'
p1836
tp1837
Rp1838
sS'QM_DOCUMENT_TITLE'
p1839
VSummary statistics EMEP laboratory intercalibration Round 27
p1840
sS'QT_TYPE'
p1841
VInterlaboratory comparison
p1842
sS'OR_CODE'
p1843
VNO03O
p1844
sS'QM_START'
p1845
g15
(S'\x07\xd8\x08\x01\x00\x00\x00\x00\x00\x00'
p1846
tp1847
Rp1848
sS'QM_END'
p1849
g15
(S'\x07\xd9\x01\x01\x00\x00\x00\x00\x00\x00'
p1850
tp1851
Rp1852
sS'QM_ID'
p1853
g1831
sS'SYSTIME'
p1854
g2
(g25
g26
(lp1855
g15
(S'\x07\xde\x05\x01\x00\x00\x00\x00\x00\x00'
p1856
tp1857
Rp1858
aNatp1859
Rp1860
(dp1861
g34
S'[)'
p1862
sbsS'QM_DESC'
p1863
V27th EMEP laboratory intercomparison
p1864
stp1865
Rp1866
sVWCCAP-CPC-2020-2
p1867
g2
(g3
g4
(dp1868
S'QM_COMMENT'
p1869
NsS'QM_DOCUMENT_URL'
p1870
NsS'QM_DOCUMENT_DATE'
p1871
NsS'QM_DOCUMENT_TITLE'
p1872
NsS'QT_TYPE'
p1873
VOff-site intercomparison
p1874
sS'OR_CODE'
p1875
VDE43O
p1876
sS'QM_START'
p1877
g15
(S'\x07\xe4\x01\x18\x00\x00\x00\x00\x00\x00'
p1878
tp1879
Rp1880
sS'QM_END'
p1881
g15
(S'\x07\xe4\x03\x12\x00\x00\x00\x00\x00\x00'
p1882
tp1883
Rp1884
sS'QM_ID'
p1885
g1867
sS'SYSTIME'
p1886
g2
(g25
g26
(lp1887
g15
(S'\x07\xde\x05\x01\x00\x00\x00\x00\x00\x00'
p1888
tp1889
Rp1890
aNatp1891
Rp1892
(dp1893
g34
S'[)'
p1894
sbsS'QM_DESC'
p1895
VIntercomparison of Condensation Particle Counter
p1896
stp1897
Rp1898
sVAT03L_reference_calibration_20190829
p1899
g2
(g3
g4
(dp1900
S'QM_COMMENT'
p1901
NsS'QM_DOCUMENT_URL'
p1902
NsS'QM_DOCUMENT_DATE'
p1903
NsS'QM_DOCUMENT_TITLE'
p1904
NsS'QT_TYPE'
p1905
VOff-site intercomparison
p1906
sS'OR_CODE'
p1907
VAT03L
p1908
sS'QM_START'
p1909
g15
(S'\x07\xe3\x08\x1d\x00\x00\x00\x00\x00\x00'
p1910
tp1911
Rp1912
sS'QM_END'
p1913
NsS'QM_ID'
p1914
g1899
sS'SYSTIME'
p1915
g2
(g25
g26
(lp1916
g15
(S'\x07\xde\x05\x01\x00\x00\x00\x00\x00\x00'
p1917
tp1918
Rp1919
aNatp1920
Rp1921
(dp1922
g34
S'[)'
p1923
sbsS'QM_DESC'
p1924
Nstp1925
Rp1926
sVWCCAP-CPC-2018-2
p1927
g2
(g3
g4
(dp1928
S'QM_COMMENT'
p1929
NsS'QM_DOCUMENT_URL'
p1930
NsS'QM_DOCUMENT_DATE'
p1931
NsS'QM_DOCUMENT_TITLE'
p1932
NsS'QT_TYPE'
p1933
VOff-site intercomparison
p1934
sS'OR_CODE'
p1935
VDE43O
p1936
sS'QM_START'
p1937
g15
(S'\x07\xe2\x03\x0c\x00\x00\x00\x00\x00\x00'
p1938
tp1939
Rp1940
sS'QM_END'
p1941
g15
(S'\x07\xe2\x03\x10\x00\x00\x00\x00\x00\x00'
p1942
tp1943
Rp1944
sS'QM_ID'
p1945
g1927
sS'SYSTIME'
p1946
g2
(g25
g26
(lp1947
g15
(S'\x07\xde\x05\x01\x00\x00\x00\x00\x00\x00'
p1948
tp1949
Rp1950
aNatp1951
Rp1952
(dp1953
g34
S'[)'
p1954
sbsS'QM_DESC'
p1955
VIntercomparison of Condensation Particle Counter
p1956
stp1957
Rp1958
sVWCCAP-CPC-2018-3
p1959
g2
(g3
g4
(dp1960
S'QM_COMMENT'
p1961
NsS'QM_DOCUMENT_URL'
p1962
NsS'QM_DOCUMENT_DATE'
p1963
NsS'QM_DOCUMENT_TITLE'
p1964
NsS'QT_TYPE'
p1965
VOff-site intercomparison
p1966
sS'OR_CODE'
p1967
VDE43O
p1968
sS'QM_START'
p1969
g15
(S'\x07\xe2\x04\x17\x00\x00\x00\x00\x00\x00'
p1970
tp1971
Rp1972
sS'QM_END'
p1973
g15
(S'\x07\xe2\x04\x1b\x00\x00\x00\x00\x00\x00'
p1974
tp1975
Rp1976
sS'QM_ID'
p1977
g1959
sS'SYSTIME'
p1978
g2
(g25
g26
(lp1979
g15
(S'\x07\xde\x05\x01\x00\x00\x00\x00\x00\x00'
p1980
tp1981
Rp1982
aNatp1983
Rp1984
(dp1985
g34
S'[)'
p1986
sbsS'QM_DESC'
p1987
VIntercomparison of Condensation Particle Counter
p1988
stp1989
Rp1990
sVWCCAP-CPC-2018-4
p1991
g2
(g3
g4
(dp1992
S'QM_COMMENT'
p1993
NsS'QM_DOCUMENT_URL'
p1994
NsS'QM_DOCUMENT_DATE'
p1995
NsS'QM_DOCUMENT_TITLE'
p1996
NsS'QT_TYPE'
p1997
VOff-site intercomparison
p1998
sS'OR_CODE'
p1999
VDE43O
p2000
sS'QM_START'
p2001
g15
(S'\x07\xe2\x06\x04\x00\x00\x00\x00\x00\x00'
p2002
tp2003
Rp2004
sS'QM_END'
p2005
g15
(S'\x07\xe2\x06\x08\x00\x00\x00\x00\x00\x00'
p2006
tp2007
Rp2008
sS'QM_ID'
p2009
g1991
sS'SYSTIME'
p2010
g2
(g25
g26
(lp2011
g15
(S'\x07\xde\x05\x01\x00\x00\x00\x00\x00\x00'
p2012
tp2013
Rp2014
aNatp2015
Rp2016
(dp2017
g34
S'[)'
p2018
sbsS'QM_DESC'
p2019
VIntercomparison of Condensation Particle Counter
p2020
stp2021
Rp2022
sVWCCAP-CPC-2018-5
p2023
g2
(g3
g4
(dp2024
S'QM_COMMENT'
p2025
NsS'QM_DOCUMENT_URL'
p2026
NsS'QM_DOCUMENT_DATE'
p2027
NsS'QM_DOCUMENT_TITLE'
p2028
NsS'QT_TYPE'
p2029
VOff-site intercomparison
p2030
sS'OR_CODE'
p2031
VDE43O
p2032
sS'QM_START'
p2033
g15
(S'\x07\xe2\x06\x12\x00\x00\x00\x00\x00\x00'
p2034
tp2035
Rp2036
sS'QM_END'
p2037
g15
(S'\x07\xe2\x06\x16\x00\x00\x00\x00\x00\x00'
p2038
tp2039
Rp2040
sS'QM_ID'
p2041
g2023
sS'SYSTIME'
p2042
g2
(g25
g26
(lp2043
g15
(S'\x07\xde\x05\x01\x00\x00\x00\x00\x00\x00'
p2044
tp2045
Rp2046
aNatp2047
Rp2048
(dp2049
g34
S'[)'
p2050
sbsS'QM_DESC'
p2051
VIntercomparison of Condensation Particle Counter
p2052
stp2053
Rp2054
sVWCCAP-CPC-2018-6
p2055
g2
(g3
g4
(dp2056
S'QM_COMMENT'
p2057
NsS'QM_DOCUMENT_URL'
p2058
NsS'QM_DOCUMENT_DATE'
p2059
NsS'QM_DOCUMENT_TITLE'
p2060
NsS'QT_TYPE'
p2061
VOff-site intercomparison
p2062
sS'OR_CODE'
p2063
VDE43O
p2064
sS'QM_START'
p2065
g15
(S'\x07\xe2\t\x11\x00\x00\x00\x00\x00\x00'
p2066
tp2067
Rp2068
sS'QM_END'
p2069
g15
(S'\x07\xe2\t\x15\x00\x00\x00\x00\x00\x00'
p2070
tp2071
Rp2072
sS'QM_ID'
p2073
g2055
sS'SYSTIME'
p2074
g2
(g25
g26
(lp2075
g15
(S'\x07\xde\x05\x01\x00\x00\x00\x00\x00\x00'
p2076
tp2077
Rp2078
aNatp2079
Rp2080
(dp2081
g34
S'[)'
p2082
sbsS'QM_DESC'
p2083
VIntercomparison of Condensation Particle Counter
p2084
stp2085
Rp2086
sVWCCAP-CPC-2018-7
p2087
g2
(g3
g4
(dp2088
S'QM_COMMENT'
p2089
NsS'QM_DOCUMENT_URL'
p2090
NsS'QM_DOCUMENT_DATE'
p2091
NsS'QM_DOCUMENT_TITLE'
p2092
NsS'QT_TYPE'
p2093
VOff-site intercomparison
p2094
sS'OR_CODE'
p2095
VDE43O
p2096
sS'QM_START'
p2097
g15
(S'\x07\xe2\n\x0f\x00\x00\x00\x00\x00\x00'
p2098
tp2099
Rp2100
sS'QM_END'
p2101
g15
(S'\x07\xe2\x0b\t\x00\x00\x00\x00\x00\x00'
p2102
tp2103
Rp2104
sS'QM_ID'
p2105
g2087
sS'SYSTIME'
p2106
g2
(g25
g26
(lp2107
g15
(S'\x07\xde\x05\x01\x00\x00\x00\x00\x00\x00'
p2108
tp2109
Rp2110
aNatp2111
Rp2112
(dp2113
g34
S'[)'
p2114
sbsS'QM_DESC'
p2115
VIntercomparison of Condensation Particle Counter
p2116
stp2117
Rp2118
sVAT03L_reference_calibration_20060316
p2119
g2
(g3
g4
(dp2120
S'QM_COMMENT'
p2121
NsS'QM_DOCUMENT_URL'
p2122
NsS'QM_DOCUMENT_DATE'
p2123
NsS'QM_DOCUMENT_TITLE'
p2124
NsS'QT_TYPE'
p2125
VOff-site intercomparison
p2126
sS'OR_CODE'
p2127
VAT03L
p2128
sS'QM_START'
p2129
g15
(S'\x07\xd6\x03\x10\x00\x00\x00\x00\x00\x00'
p2130
tp2131
Rp2132
sS'QM_END'
p2133
NsS'QM_ID'
p2134
g2119
sS'SYSTIME'
p2135
g2
(g25
g26
(lp2136
g15
(S'\x07\xde\x05\x01\x00\x00\x00\x00\x00\x00'
p2137
tp2138
Rp2139
aNatp2140
Rp2141
(dp2142
g34
S'[)'
p2143
sbsS'QM_DESC'
p2144
Nstp2145
Rp2146
sVJP02L_reference_calibration_20240131
p2147
g2
(g3
g4
(dp2148
S'QM_COMMENT'
p2149
NsS'QM_DOCUMENT_URL'
p2150
NsS'QM_DOCUMENT_DATE'
p2151
NsS'QM_DOCUMENT_TITLE'
p2152
NsS'QT_TYPE'
p2153
VOff-site intercomparison
p2154
sS'OR_CODE'
p2155
VJP02L
p2156
sS'QM_START'
p2157
g15
(S'\x07\xe8\x01\x1f\x00\x00\x00\x00\x00\x00'
p2158
tp2159
Rp2160
sS'QM_END'
p2161
NsS'QM_ID'
p2162
g2147
sS'SYSTIME'
p2163
g2
(g25
g26
(lp2164
g15
(S'\x07\xe9\x01\n\x0b\x07\x01\x0b\x84@'
p2165
tp2166
Rp2167
aNatp2168
Rp2169
(dp2170
g34
S'[)'
p2171
sbsS'QM_DESC'
p2172
Nstp2173
Rp2174
sVAT03L_reference_calibration_20061017
p2175
g2
(g3
g4
(dp2176
S'QM_COMMENT'
p2177
NsS'QM_DOCUMENT_URL'
p2178
NsS'QM_DOCUMENT_DATE'
p2179
NsS'QM_DOCUMENT_TITLE'
p2180
NsS'QT_TYPE'
p2181
VOff-site intercomparison
p2182
sS'OR_CODE'
p2183
VAT03L
p2184
sS'QM_START'
p2185
g15
(S'\x07\xd6\n\x11\x00\x00\x00\x00\x00\x00'
p2186
tp2187
Rp2188
sS'QM_END'
p2189
NsS'QM_ID'
p2190
g2175
sS'SYSTIME'
p2191
g2
(g25
g26
(lp2192
g15
(S'\x07\xde\x05\x01\x00\x00\x00\x00\x00\x00'
p2193
tp2194
Rp2195
aNatp2196
Rp2197
(dp2198
g34
S'[)'
p2199
sbsS'QM_DESC'
p2200
Nstp2201
Rp2202
sVAT03L_reference_calibration_20180405
p2203
g2
(g3
g4
(dp2204
S'QM_COMMENT'
p2205
NsS'QM_DOCUMENT_URL'
p2206
NsS'QM_DOCUMENT_DATE'
p2207
NsS'QM_DOCUMENT_TITLE'
p2208
NsS'QT_TYPE'
p2209
VOff-site intercomparison
p2210
sS'OR_CODE'
p2211
VAT03L
p2212
sS'QM_START'
p2213
g15
(S'\x07\xe2\x01\x10\x00\x00\x00\x00\x00\x00'
p2214
tp2215
Rp2216
sS'QM_END'
p2217
NsS'QM_ID'
p2218
g2203
sS'SYSTIME'
p2219
g2
(g25
g26
(lp2220
g15
(S'\x07\xde\x05\x01\x00\x00\x00\x00\x00\x00'
p2221
tp2222
Rp2223
aNatp2224
Rp2225
(dp2226
g34
S'[)'
p2227
sbsS'QM_DESC'
p2228
Nstp2229
Rp2230
sVAT03L_reference_calibration_20070313
p2231
g2
(g3
g4
(dp2232
S'QM_COMMENT'
p2233
NsS'QM_DOCUMENT_URL'
p2234
NsS'QM_DOCUMENT_DATE'
p2235
NsS'QM_DOCUMENT_TITLE'
p2236
NsS'QT_TYPE'
p2237
VOff-site intercomparison
p2238
sS'OR_CODE'
p2239
VAT03L
p2240
sS'QM_START'
p2241
g15
(S'\x07\xd7\x03\r\x00\x00\x00\x00\x00\x00'
p2242
tp2243
Rp2244
sS'QM_END'
p2245
NsS'QM_ID'
p2246
g2231
sS'SYSTIME'
p2247
g2
(g25
g26
(lp2248
g15
(S'\x07\xde\x05\x01\x00\x00\x00\x00\x00\x00'
p2249
tp2250
Rp2251
aNatp2252
Rp2253
(dp2254
g34
S'[)'
p2255
sbsS'QM_DESC'
p2256
Nstp2257
Rp2258
sVJP02L_reference_calibration_20190921
p2259
g2
(g3
g4
(dp2260
S'QM_COMMENT'
p2261
NsS'QM_DOCUMENT_URL'
p2262
NsS'QM_DOCUMENT_DATE'
p2263
NsS'QM_DOCUMENT_TITLE'
p2264
NsS'QT_TYPE'
p2265
VOff-site intercomparison
p2266
sS'OR_CODE'
p2267
VJP02L
p2268
sS'QM_START'
p2269
g15
(S'\x07\xe3\t\x15\x00\x00\x00\x00\x00\x00'
p2270
tp2271
Rp2272
sS'QM_END'
p2273
NsS'QM_ID'
p2274
g2259
sS'SYSTIME'
p2275
g2
(g25
g26
(lp2276
g15
(S'\x07\xe6\x0c\x01\x0e7\x0c\x03!\xfb'
p2277
tp2278
Rp2279
aNatp2280
Rp2281
(dp2282
g34
S'[)'
p2283
sbsS'QM_DESC'
p2284
Nstp2285
Rp2286
sVWCCAP-MPSS-2016-4
p2287
g2
(g3
g4
(dp2288
S'QM_COMMENT'
p2289
NsS'QM_DOCUMENT_URL'
p2290
NsS'QM_DOCUMENT_DATE'
p2291
NsS'QM_DOCUMENT_TITLE'
p2292
NsS'QT_TYPE'
p2293
VOff-site intercomparison
p2294
sS'OR_CODE'
p2295
VDE43O
p2296
sS'QM_START'
p2297
g15
(S'\x07\xe0\x05\x1e\x00\x00\x00\x00\x00\x00'
p2298
tp2299
Rp2300
sS'QM_END'
p2301
g15
(S'\x07\xe0\x07\x04\x00\x00\x00\x00\x00\x00'
p2302
tp2303
Rp2304
sS'QM_ID'
p2305
g2287
sS'SYSTIME'
p2306
g2
(g25
g26
(lp2307
g15
(S'\x07\xde\x05\x01\x00\x00\x00\x00\x00\x00'
p2308
tp2309
Rp2310
aNatp2311
Rp2312
(dp2313
g34
S'[)'
p2314
sbsS'QM_DESC'
p2315
VIntercomparison of Mobility Particle Size Spectrometer
p2316
stp2317
Rp2318
sVECAC-OCEC-2019-1
p2319
g2
(g3
g4
(dp2320
S'QM_COMMENT'
p2321
NsS'QM_DOCUMENT_URL'
p2322
Vhttps://www.actris-ecac.eu/files/OCEC-2019-1-REPORT_final.pdf
p2323
sS'QM_DOCUMENT_DATE'
p2324
NsS'QM_DOCUMENT_TITLE'
p2325
VResults of the inter-laboratory comparison exercise for TC and EC measurements (ref.: OCEC-2019-1)
p2326
sS'QT_TYPE'
p2327
VInterlaboratory comparison
p2328
sS'OR_CODE'
p2329
VIT14O
p2330
sS'QM_START'
p2331
g15
(S'\x07\xe3\x01\x01\x00\x00\x00\x00\x00\x00'
p2332
tp2333
Rp2334
sS'QM_END'
p2335
g15
(S'\x07\xe3\x03\x1f\x00\x00\x00\x00\x00\x00'
p2336
tp2337
Rp2338
sS'QM_ID'
p2339
g2319
sS'SYSTIME'
p2340
g2
(g25
g26
(lp2341
g15
(S'\x07\xde\x05\x01\x00\x00\x00\x00\x00\x00'
p2342
tp2343
Rp2344
aNatp2345
Rp2346
(dp2347
g34
S'[)'
p2348
sbsS'QM_DESC'
p2349
VECAC Inter-laboratory comparison exercise for TC and EC measurements
p2350
stp2351
Rp2352
sVWCCAP-MPSS-2015-2
p2353
g2
(g3
g4
(dp2354
S'QM_COMMENT'
p2355
NsS'QM_DOCUMENT_URL'
p2356
NsS'QM_DOCUMENT_DATE'
p2357
NsS'QM_DOCUMENT_TITLE'
p2358
NsS'QT_TYPE'
p2359
VOff-site intercomparison
p2360
sS'OR_CODE'
p2361
VDE43O
p2362
sS'QM_START'
p2363
g15
(S'\x07\xdf\n\x1a\x00\x00\x00\x00\x00\x00'
p2364
tp2365
Rp2366
sS'QM_END'
p2367
g15
(S'\x07\xdf\n\x1e\x00\x00\x00\x00\x00\x00'
p2368
tp2369
Rp2370
sS'QM_ID'
p2371
g2353
sS'SYSTIME'
p2372
g2
(g25
g26
(lp2373
g15
(S'\x07\xde\x05\x01\x00\x00\x00\x00\x00\x00'
p2374
tp2375
Rp2376
aNatp2377
Rp2378
(dp2379
g34
S'[)'
p2380
sbsS'QM_DESC'
p2381
VIntercomparison of Mobility Particle Size Spectrometer
p2382
stp2383
Rp2384
sVWCCAP-MPSS-2015-1
p2385
g2
(g3
g4
(dp2386
S'QM_COMMENT'
p2387
NsS'QM_DOCUMENT_URL'
p2388
NsS'QM_DOCUMENT_DATE'
p2389
NsS'QM_DOCUMENT_TITLE'
p2390
NsS'QT_TYPE'
p2391
VOff-site intercomparison
p2392
sS'OR_CODE'
p2393
VDE43O
p2394
sS'QM_START'
p2395
g15
(S'\x07\xdf\n\x05\x00\x00\x00\x00\x00\x00'
p2396
tp2397
Rp2398
sS'QM_END'
p2399
g15
(S'\x07\xdf\n\t\x00\x00\x00\x00\x00\x00'
p2400
tp2401
Rp2402
sS'QM_ID'
p2403
g2385
sS'SYSTIME'
p2404
g2
(g25
g26
(lp2405
g15
(S'\x07\xde\x05\x01\x00\x00\x00\x00\x00\x00'
p2406
tp2407
Rp2408
aNatp2409
Rp2410
(dp2411
g34
S'[)'
p2412
sbsS'QM_DESC'
p2413
VIntercomparison of Mobility Particle Size Spectrometer
p2414
stp2415
Rp2416
sVWCCAP-AP-2016-1
p2417
g2
(g3
g4
(dp2418
S'QM_COMMENT'
p2419
NsS'QM_DOCUMENT_URL'
p2420
NsS'QM_DOCUMENT_DATE'
p2421
NsS'QM_DOCUMENT_TITLE'
p2422
NsS'QT_TYPE'
p2423
VOff-site intercomparison
p2424
sS'OR_CODE'
p2425
VDE43O
p2426
sS'QM_START'
p2427
g15
(S'\x07\xe0\x03\x07\x00\x00\x00\x00\x00\x00'
p2428
tp2429
Rp2430
sS'QM_END'
p2431
g15
(S'\x07\xe0\x03\x0b\x00\x00\x00\x00\x00\x00'
p2432
tp2433
Rp2434
sS'QM_ID'
p2435
g2417
sS'SYSTIME'
p2436
g2
(g25
g26
(lp2437
g15
(S'\x07\xde\x05\x01\x00\x00\x00\x00\x00\x00'
p2438
tp2439
Rp2440
aNatp2441
Rp2442
(dp2443
g34
S'[)'
p2444
sbsS'QM_DESC'
p2445
VIntercomparison of Absorption Photometer
p2446
stp2447
Rp2448
sVAT03L_reference_calibration_20180920
p2449
g2
(g3
g4
(dp2450
S'QM_COMMENT'
p2451
NsS'QM_DOCUMENT_URL'
p2452
NsS'QM_DOCUMENT_DATE'
p2453
NsS'QM_DOCUMENT_TITLE'
p2454
NsS'QT_TYPE'
p2455
VOff-site intercomparison
p2456
sS'OR_CODE'
p2457
VAT03L
p2458
sS'QM_START'
p2459
g15
(S'\x07\xe2\x01\x10\x00\x00\x00\x00\x00\x00'
p2460
tp2461
Rp2462
sS'QM_END'
p2463
NsS'QM_ID'
p2464
g2449
sS'SYSTIME'
p2465
g2
(g25
g26
(lp2466
g15
(S'\x07\xde\x05\x01\x00\x00\x00\x00\x00\x00'
p2467
tp2468
Rp2469
aNatp2470
Rp2471
(dp2472
g34
S'[)'
p2473
sbsS'QM_DESC'
p2474
Nstp2475
Rp2476
sVWCCAP-CPC-2021-0
p2477
g2
(g3
g4
(dp2478
S'QM_COMMENT'
p2479
NsS'QM_DOCUMENT_URL'
p2480
NsS'QM_DOCUMENT_DATE'
p2481
NsS'QM_DOCUMENT_TITLE'
p2482
NsS'QT_TYPE'
p2483
VOff-site intercomparison
p2484
sS'OR_CODE'
p2485
VDE43O
p2486
sS'QM_START'
p2487
g15
(S'\x07\xe5\x04\x0e\x00\x00\x00\x00\x00\x00'
p2488
tp2489
Rp2490
sS'QM_END'
p2491
g15
(S'\x07\xe5\x0b\x02\x00\x00\x00\x00\x00\x00'
p2492
tp2493
Rp2494
sS'QM_ID'
p2495
g2477
sS'SYSTIME'
p2496
g2
(g25
g26
(lp2497
g15
(S'\x07\xde\x05\x01\x00\x00\x00\x00\x00\x00'
p2498
tp2499
Rp2500
aNatp2501
Rp2502
(dp2503
g34
S'[)'
p2504
sbsS'QM_DESC'
p2505
VIntercomparison of Condensation Particle Counter
p2506
stp2507
Rp2508
sVJP02L_reference_calibration_20170126
p2509
g2
(g3
g4
(dp2510
S'QM_COMMENT'
p2511
NsS'QM_DOCUMENT_URL'
p2512
NsS'QM_DOCUMENT_DATE'
p2513
NsS'QM_DOCUMENT_TITLE'
p2514
NsS'QT_TYPE'
p2515
VOff-site intercomparison
p2516
sS'OR_CODE'
p2517
VJP02L
p2518
sS'QM_START'
p2519
g15
(S'\x07\xe1\x01\x1a\x00\x00\x00\x00\x00\x00'
p2520
tp2521
Rp2522
sS'QM_END'
p2523
NsS'QM_ID'
p2524
g2509
sS'SYSTIME'
p2525
g2
(g25
g26
(lp2526
g15
(S'\x07\xde\x05\x01\x00\x00\x00\x00\x00\x00'
p2527
tp2528
Rp2529
aNatp2530
Rp2531
(dp2532
g34
S'[)'
p2533
sbsS'QM_DESC'
p2534
Nstp2535
Rp2536
sVJP02L_reference_calibration_20180801
p2537
g2
(g3
g4
(dp2538
S'QM_COMMENT'
p2539
NsS'QM_DOCUMENT_URL'
p2540
NsS'QM_DOCUMENT_DATE'
p2541
NsS'QM_DOCUMENT_TITLE'
p2542
NsS'QT_TYPE'
p2543
VOff-site intercomparison
p2544
sS'OR_CODE'
p2545
VJP02L
p2546
sS'QM_START'
p2547
g15
(S'\x07\xe2\x08\x01\x00\x00\x00\x00\x00\x00'
p2548
tp2549
Rp2550
sS'QM_END'
p2551
NsS'QM_ID'
p2552
g2537
sS'SYSTIME'
p2553
g2
(g25
g26
(lp2554
g15
(S'\x07\xde\x05\x01\x00\x00\x00\x00\x00\x00'
p2555
tp2556
Rp2557
aNatp2558
Rp2559
(dp2560
g34
S'[)'
p2561
sbsS'QM_DESC'
p2562
Nstp2563
Rp2564
sVWCCAP-OSIA-2016-2
p2565
g2
(g3
g4
(dp2566
S'QM_COMMENT'
p2567
NsS'QM_DOCUMENT_URL'
p2568
NsS'QM_DOCUMENT_DATE'
p2569
NsS'QM_DOCUMENT_TITLE'
p2570
NsS'QT_TYPE'
p2571
VOn-site intercomparison
p2572
sS'OR_CODE'
p2573
VDE43O
p2574
sS'QM_START'
p2575
g15
(S'\x07\xe0\x07\x01\x00\x00\x00\x00\x00\x00'
p2576
tp2577
Rp2578
sS'QM_END'
p2579
g15
(S'\x07\xe1\x01\x01\x00\x00\x00\x00\x00\x00'
p2580
tp2581
Rp2582
sS'QM_ID'
p2583
g2565
sS'SYSTIME'
p2584
g2
(g25
g26
(lp2585
g15
(S'\x07\xde\x05\x01\x00\x00\x00\x00\x00\x00'
p2586
tp2587
Rp2588
aNatp2589
Rp2590
(dp2591
g34
S'[)'
p2592
sbsS'QM_DESC'
p2593
VOn-site Intercomparison & Audit
p2594
stp2595
Rp2596
sVJP02L_reference_calibration_20220329
p2597
g2
(g3
g4
(dp2598
S'QM_COMMENT'
p2599
NsS'QM_DOCUMENT_URL'
p2600
NsS'QM_DOCUMENT_DATE'
p2601
NsS'QM_DOCUMENT_TITLE'
p2602
NsS'QT_TYPE'
p2603
VOff-site intercomparison
p2604
sS'OR_CODE'
p2605
VJP02L
p2606
sS'QM_START'
p2607
g15
(S'\x07\xe6\x03\x1d\x00\x00\x00\x00\x00\x00'
p2608
tp2609
Rp2610
sS'QM_END'
p2611
NsS'QM_ID'
p2612
g2597
sS'SYSTIME'
p2613
g2
(g25
g26
(lp2614
g15
(S'\x07\xe7\x0c\x12\x0c$5\x07\xffR'
p2615
tp2616
Rp2617
aNatp2618
Rp2619
(dp2620
g34
S'[)'
p2621
sbsS'QM_DESC'
p2622
Nstp2623
Rp2624
sVACTRIS-VOC-1
p2625
g2
(g3
g4
(dp2626
S'QM_COMMENT'
p2627
NsS'QM_DOCUMENT_URL'
p2628
Vhttps://doi.org/10.5194/amt-8-2715-2015
p2629
sS'QM_DOCUMENT_DATE'
p2630
g15
(S'\x07\xdf\x07\x08\x00\x00\x00\x00\x00\x00'
p2631
tp2632
Rp2633
sS'QM_DOCUMENT_TITLE'
p2634
VACTRIS non-methane hydrocarbon intercomparison experiment in Europe to support WMO GAW and EMEP observation networks
p2635
sS'QT_TYPE'
p2636
VInterlaboratory comparison
p2637
sS'OR_CODE'
p2638
VCH07O
p2639
sS'QM_START'
p2640
g15
(S'\x07\xdc\x01\x01\x00\x00\x00\x00\x00\x00'
p2641
tp2642
Rp2643
sS'QM_END'
p2644
g15
(S'\x07\xdd\x01\x01\x00\x00\x00\x00\x00\x00'
p2645
tp2646
Rp2647
sS'QM_ID'
p2648
g2625
sS'SYSTIME'
p2649
g2
(g25
g26
(lp2650
g15
(S'\x07\xde\x05\x01\x00\x00\x00\x00\x00\x00'
p2651
tp2652
Rp2653
aNatp2654
Rp2655
(dp2656
g34
S'[)'
p2657
sbsS'QM_DESC'
p2658
VACTRIS non-methane hydrocarbon intercomparison experiment in Europe to support WMO GAW and EMEP observation networks
p2659
stp2660
Rp2661
sVWCCAP-AP-2017-3
p2662
g2
(g3
g4
(dp2663
S'QM_COMMENT'
p2664
NsS'QM_DOCUMENT_URL'
p2665
NsS'QM_DOCUMENT_DATE'
p2666
NsS'QM_DOCUMENT_TITLE'
p2667
NsS'QT_TYPE'
p2668
VOff-site intercomparison
p2669
sS'OR_CODE'
p2670
VDE43O
p2671
sS'QM_START'
p2672
g15
(S'\x07\xe1\t\x0b\x00\x00\x00\x00\x00\x00'
p2673
tp2674
Rp2675
sS'QM_END'
p2676
g15
(S'\x07\xe1\t\x0f\x00\x00\x00\x00\x00\x00'
p2677
tp2678
Rp2679
sS'QM_ID'
p2680
g2662
sS'SYSTIME'
p2681
g2
(g25
g26
(lp2682
g15
(S'\x07\xde\x05\x01\x00\x00\x00\x00\x00\x00'
p2683
tp2684
Rp2685
aNatp2686
Rp2687
(dp2688
g34
S'[)'
p2689
sbsS'QM_DESC'
p2690
VIntercomparison of Absorption Photometer
p2691
stp2692
Rp2693
sVECAC-OCEC-2016-1
p2694
g2
(g3
g4
(dp2695
S'QM_COMMENT'
p2696
NsS'QM_DOCUMENT_URL'
p2697
Vhttp://www.actris-ecac.eu/files/OCEC-2016-1-report.pdf
p2698
sS'QM_DOCUMENT_DATE'
p2699
NsS'QM_DOCUMENT_TITLE'
p2700
VResults of the inter-laboratory comparison exercise for TC and EC measurements (ref.: OCEC-2016-1)
p2701
sS'QT_TYPE'
p2702
VInterlaboratory comparison
p2703
sS'OR_CODE'
p2704
VIT14O
p2705
sS'QM_START'
p2706
g15
(S'\x07\xe0\x01\x01\x00\x00\x00\x00\x00\x00'
p2707
tp2708
Rp2709
sS'QM_END'
p2710
g15
(S'\x07\xe0\x04\x01\x00\x00\x00\x00\x00\x00'
p2711
tp2712
Rp2713
sS'QM_ID'
p2714
g2694
sS'SYSTIME'
p2715
g2
(g25
g26
(lp2716
g15
(S'\x07\xde\x05\x01\x00\x00\x00\x00\x00\x00'
p2717
tp2718
Rp2719
aNatp2720
Rp2721
(dp2722
g34
S'[)'
p2723
sbsS'QM_DESC'
p2724
VECAC Inter-laboratory comparison exercise for TC and EC measurements
p2725
stp2726
Rp2727
sVECAC-OCEC-2016-2
p2728
g2
(g3
g4
(dp2729
S'QM_COMMENT'
p2730
NsS'QM_DOCUMENT_URL'
p2731
Vhttp://www.actris-ecac.eu/files/OCEC-2016-2-REPORT.pdf
p2732
sS'QM_DOCUMENT_DATE'
p2733
NsS'QM_DOCUMENT_TITLE'
p2734
VResults of the inter-laboratory comparison exercise for TC and EC measurements (ref.: OCEC-2016-2)
p2735
sS'QT_TYPE'
p2736
VInterlaboratory comparison
p2737
sS'OR_CODE'
p2738
VIT14O
p2739
sS'QM_START'
p2740
g15
(S'\x07\xe0\x08\x01\x00\x00\x00\x00\x00\x00'
p2741
tp2742
Rp2743
sS'QM_END'
p2744
g15
(S'\x07\xe0\x0b\x01\x00\x00\x00\x00\x00\x00'
p2745
tp2746
Rp2747
sS'QM_ID'
p2748
g2728
sS'SYSTIME'
p2749
g2
(g25
g26
(lp2750
g15
(S'\x07\xde\x05\x01\x00\x00\x00\x00\x00\x00'
p2751
tp2752
Rp2753
aNatp2754
Rp2755
(dp2756
g34
S'[)'
p2757
sbsS'QM_DESC'
p2758
VECAC Inter-laboratory comparison exercise for TC and EC measurements
p2759
stp2760
Rp2761
sVAT03L_reference_calibration_20130612
p2762
g2
(g3
g4
(dp2763
S'QM_COMMENT'
p2764
NsS'QM_DOCUMENT_URL'
p2765
NsS'QM_DOCUMENT_DATE'
p2766
NsS'QM_DOCUMENT_TITLE'
p2767
NsS'QT_TYPE'
p2768
VOff-site intercomparison
p2769
sS'OR_CODE'
p2770
VAT03L
p2771
sS'QM_START'
p2772
g15
(S'\x07\xdd\x06\x0c\x00\x00\x00\x00\x00\x00'
p2773
tp2774
Rp2775
sS'QM_END'
p2776
NsS'QM_ID'
p2777
g2762
sS'SYSTIME'
p2778
g2
(g25
g26
(lp2779
g15
(S'\x07\xde\x05\x01\x00\x00\x00\x00\x00\x00'
p2780
tp2781
Rp2782
aNatp2783
Rp2784
(dp2785
g34
S'[)'
p2786
sbsS'QM_DESC'
p2787
Nstp2788
Rp2789
sVEMEP-ACTRIS-ECOC-2015
p2790
g2
(g3
g4
(dp2791
S'QM_COMMENT'
p2792
NsS'QM_DOCUMENT_URL'
p2793
Vhttps://projects.nilu.no/ccc/qameasure/ecoc_2015.pdf
p2794
sS'QM_DOCUMENT_DATE'
p2795
NsS'QM_DOCUMENT_TITLE'
p2796
NsS'QT_TYPE'
p2797
VInterlaboratory comparison
p2798
sS'OR_CODE'
p2799
VIT14O
p2800
sS'QM_START'
p2801
g15
(S'\x07\xdf\x01\x01\x00\x00\x00\x00\x00\x00'
p2802
tp2803
Rp2804
sS'QM_END'
p2805
g15
(S'\x07\xe0\x01\x01\x00\x00\x00\x00\x00\x00'
p2806
tp2807
Rp2808
sS'QM_ID'
p2809
g2790
sS'SYSTIME'
p2810
g2
(g25
g26
(lp2811
g15
(S'\x07\xde\x05\x01\x00\x00\x00\x00\x00\x00'
p2812
tp2813
Rp2814
aNatp2815
Rp2816
(dp2817
g34
S'[)'
p2818
sbsS'QM_DESC'
p2819
VEMEP Inter-laboratory comparison EC and OC
p2820
stp2821
Rp2822
sVWCCAP-CPC-2019-4
p2823
g2
(g3
g4
(dp2824
S'QM_COMMENT'
p2825
NsS'QM_DOCUMENT_URL'
p2826
NsS'QM_DOCUMENT_DATE'
p2827
NsS'QM_DOCUMENT_TITLE'
p2828
NsS'QT_TYPE'
p2829
VOff-site intercomparison
p2830
sS'OR_CODE'
p2831
VDE43O
p2832
sS'QM_START'
p2833
g15
(S'\x07\xe3\t\x10\x00\x00\x00\x00\x00\x00'
p2834
tp2835
Rp2836
sS'QM_END'
p2837
g15
(S'\x07\xe3\t\x14\x00\x00\x00\x00\x00\x00'
p2838
tp2839
Rp2840
sS'QM_ID'
p2841
g2823
sS'SYSTIME'
p2842
g2
(g25
g26
(lp2843
g15
(S'\x07\xde\x05\x01\x00\x00\x00\x00\x00\x00'
p2844
tp2845
Rp2846
aNatp2847
Rp2848
(dp2849
g34
S'[)'
p2850
sbsS'QM_DESC'
p2851
VIntercomparison of Condensation Particle Counter
p2852
stp2853
Rp2854
sVJP02L_reference_calibration_20220511
p2855
g2
(g3
g4
(dp2856
S'QM_COMMENT'
p2857
NsS'QM_DOCUMENT_URL'
p2858
NsS'QM_DOCUMENT_DATE'
p2859
NsS'QM_DOCUMENT_TITLE'
p2860
NsS'QT_TYPE'
p2861
VOff-site intercomparison
p2862
sS'OR_CODE'
p2863
VJP02L
p2864
sS'QM_START'
p2865
g15
(S'\x07\xe6\x05\x0b\x00\x00\x00\x00\x00\x00'
p2866
tp2867
Rp2868
sS'QM_END'
p2869
NsS'QM_ID'
p2870
g2855
sS'SYSTIME'
p2871
g2
(g25
g26
(lp2872
g15
(S'\x07\xe7\x0c\x12\x0c\x0f:\x0bz\xc9'
p2873
tp2874
Rp2875
aNatp2876
Rp2877
(dp2878
g34
S'[)'
p2879
sbsS'QM_DESC'
p2880
Nstp2881
Rp2882
sVUS06L_reference_calibration_20120221
p2883
g2
(g3
g4
(dp2884
S'QM_COMMENT'
p2885
NsS'QM_DOCUMENT_URL'
p2886
NsS'QM_DOCUMENT_DATE'
p2887
NsS'QM_DOCUMENT_TITLE'
p2888
NsS'QT_TYPE'
p2889
VOn-site intercomparison
p2890
sS'OR_CODE'
p2891
VUS06L
p2892
sS'QM_START'
p2893
g15
(S'\x07\xdc\x02\x15\x00\x00\x00\x00\x00\x00'
p2894
tp2895
Rp2896
sS'QM_END'
p2897
NsS'QM_ID'
p2898
g2883
sS'SYSTIME'
p2899
g2
(g25
g26
(lp2900
g15
(S'\x07\xde\x05\x01\x00\x00\x00\x00\x00\x00'
p2901
tp2902
Rp2903
aNatp2904
Rp2905
(dp2906
g34
S'[)'
p2907
sbsS'QM_DESC'
p2908
Nstp2909
Rp2910
sVEMEP-ACTRIS-ECOC-2013
p2911
g2
(g3
g4
(dp2912
S'QM_COMMENT'
p2913
NsS'QM_DOCUMENT_URL'
p2914
Vhttps://projects.nilu.no/ccc/reports/cccr1-2013.pdf
p2915
sS'QM_DOCUMENT_DATE'
p2916
NsS'QM_DOCUMENT_TITLE'
p2917
NsS'QT_TYPE'
p2918
VInterlaboratory comparison
p2919
sS'OR_CODE'
p2920
VIT14O
p2921
sS'QM_START'
p2922
g15
(S'\x07\xdd\x01\x01\x00\x00\x00\x00\x00\x00'
p2923
tp2924
Rp2925
sS'QM_END'
p2926
g15
(S'\x07\xde\x01\x01\x00\x00\x00\x00\x00\x00'
p2927
tp2928
Rp2929
sS'QM_ID'
p2930
g2911
sS'SYSTIME'
p2931
g2
(g25
g26
(lp2932
g15
(S'\x07\xe8\x02\x07\x0c-#\x02\xbdp'
p2933
tp2934
Rp2935
aNatp2936
Rp2937
(dp2938
g34
S'[)'
p2939
sbsS'QM_DESC'
p2940
VEMEP Inter-laboratory comparison EC and OC
p2941
stp2942
Rp2943
sVJP02L_reference_calibration_20170214
p2944
g2
(g3
g4
(dp2945
S'QM_COMMENT'
p2946
NsS'QM_DOCUMENT_URL'
p2947
NsS'QM_DOCUMENT_DATE'
p2948
NsS'QM_DOCUMENT_TITLE'
p2949
NsS'QT_TYPE'
p2950
VOff-site intercomparison
p2951
sS'OR_CODE'
p2952
VJP02L
p2953
sS'QM_START'
p2954
g15
(S'\x07\xe1\x02\x0e\x00\x00\x00\x00\x00\x00'
p2955
tp2956
Rp2957
sS'QM_END'
p2958
NsS'QM_ID'
p2959
g2944
sS'SYSTIME'
p2960
g2
(g25
g26
(lp2961
g15
(S'\x07\xde\x05\x01\x00\x00\x00\x00\x00\x00'
p2962
tp2963
Rp2964
aNatp2965
Rp2966
(dp2967
g34
S'[)'
p2968
sbsS'QM_DESC'
p2969
Nstp2970
Rp2971
sVAT03L_reference_calibration_20080124
p2972
g2
(g3
g4
(dp2973
S'QM_COMMENT'
p2974
NsS'QM_DOCUMENT_URL'
p2975
NsS'QM_DOCUMENT_DATE'
p2976
NsS'QM_DOCUMENT_TITLE'
p2977
NsS'QT_TYPE'
p2978
VOff-site intercomparison
p2979
sS'OR_CODE'
p2980
VAT03L
p2981
sS'QM_START'
p2982
g15
(S'\x07\xd8\x01\x18\x00\x00\x00\x00\x00\x00'
p2983
tp2984
Rp2985
sS'QM_END'
p2986
NsS'QM_ID'
p2987
g2972
sS'SYSTIME'
p2988
g2
(g25
g26
(lp2989
g15
(S'\x07\xde\x05\x01\x00\x00\x00\x00\x00\x00'
p2990
tp2991
Rp2992
aNatp2993
Rp2994
(dp2995
g34
S'[)'
p2996
sbsS'QM_DESC'
p2997
Nstp2998
Rp2999
sVJP02L_reference_calibration_20230524
p3000
g2
(g3
g4
(dp3001
S'QM_COMMENT'
p3002
NsS'QM_DOCUMENT_URL'
p3003
NsS'QM_DOCUMENT_DATE'
p3004
NsS'QM_DOCUMENT_TITLE'
p3005
NsS'QT_TYPE'
p3006
VOff-site intercomparison
p3007
sS'OR_CODE'
p3008
VJP02L
p3009
sS'QM_START'
p3010
g15
(S'\x07\xe7\x05\x18\x00\x00\x00\x00\x00\x00'
p3011
tp3012
Rp3013
sS'QM_END'
p3014
NsS'QM_ID'
p3015
g3000
sS'SYSTIME'
p3016
g2
(g25
g26
(lp3017
g15
(S'\x07\xe7\x0c\x12\x0c\x0f:\x0b\xb9}'
p3018
tp3019
Rp3020
aNatp3021
Rp3022
(dp3023
g34
S'[)'
p3024
sbsS'QM_DESC'
p3025
Nstp3026
Rp3027
sVCZ01L_reference_calibration_20110517
p3028
g2
(g3
g4
(dp3029
S'QM_COMMENT'
p3030
NsS'QM_DOCUMENT_URL'
p3031
NsS'QM_DOCUMENT_DATE'
p3032
NsS'QM_DOCUMENT_TITLE'
p3033
NsS'QT_TYPE'
p3034
VOn-site intercomparison
p3035
sS'OR_CODE'
p3036
VJP02L
p3037
sS'QM_START'
p3038
g15
(S'\x07\xdb\x05\x11\x00\x00\x00\x00\x00\x00'
p3039
tp3040
Rp3041
sS'QM_END'
p3042
NsS'QM_ID'
p3043
g3028
sS'SYSTIME'
p3044
g2
(g25
g26
(lp3045
g15
(S'\x07\xde\x05\x01\x00\x00\x00\x00\x00\x00'
p3046
tp3047
Rp3048
aNatp3049
Rp3050
(dp3051
g34
S'[)'
p3052
sbsS'QM_DESC'
p3053
Nstp3054
Rp3055
sVEMEP35
p3056
g2
(g3
g4
(dp3057
S'QM_COMMENT'
p3058
NsS'QM_DOCUMENT_URL'
p3059
Vhttp://www.nilu.no/projects/ccc/qameasure/emep35.pdf
p3060
sS'QM_DOCUMENT_DATE'
p3061
g15
(S'\x07\xe2\x03\t\x00\x00\x00\x00\x00\x00'
p3062
tp3063
Rp3064
sS'QM_DOCUMENT_TITLE'
p3065
VSummary statistics EMEP laboratory intercalibration Round 35
p3066
sS'QT_TYPE'
p3067
VInterlaboratory comparison
p3068
sS'OR_CODE'
p3069
VNO03O
p3070
sS'QM_START'
p3071
g15
(S'\x07\xe1\x08\x01\x00\x00\x00\x00\x00\x00'
p3072
tp3073
Rp3074
sS'QM_END'
p3075
g15
(S'\x07\xe2\x01\x01\x00\x00\x00\x00\x00\x00'
p3076
tp3077
Rp3078
sS'QM_ID'
p3079
g3056
sS'SYSTIME'
p3080
g2
(g25
g26
(lp3081
g15
(S'\x07\xe8\t\x13\x08 (\x03"\xf8'
p3082
tp3083
Rp3084
aNatp3085
Rp3086
(dp3087
g34
S'[)'
p3088
sbsS'QM_DESC'
p3089
V35th EMEP laboratory intercomparison
p3090
stp3091
Rp3092
sVAT03L_reference_calibration_20140709
p3093
g2
(g3
g4
(dp3094
S'QM_COMMENT'
p3095
NsS'QM_DOCUMENT_URL'
p3096
NsS'QM_DOCUMENT_DATE'
p3097
NsS'QM_DOCUMENT_TITLE'
p3098
NsS'QT_TYPE'
p3099
VOff-site intercomparison
p3100
sS'OR_CODE'
p3101
VAT03L
p3102
sS'QM_START'
p3103
g15
(S'\x07\xde\x07\t\x00\x00\x00\x00\x00\x00'
p3104
tp3105
Rp3106
sS'QM_END'
p3107
NsS'QM_ID'
p3108
g3093
sS'SYSTIME'
p3109
g2
(g25
g26
(lp3110
g15
(S'\x07\xde\x05\x01\x00\x00\x00\x00\x00\x00'
p3111
tp3112
Rp3113
aNatp3114
Rp3115
(dp3116
g34
S'[)'
p3117
sbsS'QM_DESC'
p3118
Nstp3119
Rp3120
sVAT03L_reference_calibration_20070718
p3121
g2
(g3
g4
(dp3122
S'QM_COMMENT'
p3123
NsS'QM_DOCUMENT_URL'
p3124
NsS'QM_DOCUMENT_DATE'
p3125
NsS'QM_DOCUMENT_TITLE'
p3126
NsS'QT_TYPE'
p3127
VOff-site intercomparison
p3128
sS'OR_CODE'
p3129
VAT03L
p3130
sS'QM_START'
p3131
g15
(S'\x07\xd7\x07\x12\x00\x00\x00\x00\x00\x00'
p3132
tp3133
Rp3134
sS'QM_END'
p3135
NsS'QM_ID'
p3136
g3121
sS'SYSTIME'
p3137
g2
(g25
g26
(lp3138
g15
(S'\x07\xde\x05\x01\x00\x00\x00\x00\x00\x00'
p3139
tp3140
Rp3141
aNatp3142
Rp3143
(dp3144
g34
S'[)'
p3145
sbsS'QM_DESC'
p3146
Nstp3147
Rp3148
sVJP02L_reference_calibration_20230928
p3149
g2
(g3
g4
(dp3150
S'QM_COMMENT'
p3151
NsS'QM_DOCUMENT_URL'
p3152
NsS'QM_DOCUMENT_DATE'
p3153
NsS'QM_DOCUMENT_TITLE'
p3154
NsS'QT_TYPE'
p3155
VOff-site intercomparison
p3156
sS'OR_CODE'
p3157
VJP02L
p3158
sS'QM_START'
p3159
g15
(S'\x07\xe7\t\x1c\x00\x00\x00\x00\x00\x00'
p3160
tp3161
Rp3162
sS'QM_END'
p3163
NsS'QM_ID'
p3164
g3149
sS'SYSTIME'
p3165
g2
(g25
g26
(lp3166
g15
(S'\x07\xe8\x04\x1d\x0b;%\x00=P'
p3167
tp3168
Rp3169
aNatp3170
Rp3171
(dp3172
g34
S'[)'
p3173
sbsS'QM_DESC'
p3174
Nstp3175
Rp3176
sVIT06L_reference_calibration_20231113
p3177
g2
(g3
g4
(dp3178
S'QM_COMMENT'
p3179
NsS'QM_DOCUMENT_URL'
p3180
NsS'QM_DOCUMENT_DATE'
p3181
NsS'QM_DOCUMENT_TITLE'
p3182
NsS'QT_TYPE'
p3183
VOn-site intercomparison
p3184
sS'OR_CODE'
p3185
VIT06L
p3186
sS'QM_START'
p3187
g15
(S'\x07\xe7\x0b\r\x00\x00\x00\x00\x00\x00'
p3188
tp3189
Rp3190
sS'QM_END'
p3191
NsS'QM_ID'
p3192
g3177
sS'SYSTIME'
p3193
g2
(g25
g26
(lp3194
g15
(S'\x07\xe9\x03\x03\x0e\x12\x0b\x05\x03D'
p3195
tp3196
Rp3197
aNatp3198
Rp3199
(dp3200
g34
S'[)'
p3201
sbsS'QM_DESC'
p3202
Nstp3203
Rp3204
sVUS17L_reference_calibration_20220504
p3205
g2
(g3
g4
(dp3206
S'QM_COMMENT'
p3207
NsS'QM_DOCUMENT_URL'
p3208
NsS'QM_DOCUMENT_DATE'
p3209
NsS'QM_DOCUMENT_TITLE'
p3210
NsS'QT_TYPE'
p3211
VOff-site intercomparison
p3212
sS'OR_CODE'
p3213
VUS17L
p3214
sS'QM_START'
p3215
NsS'QM_END'
p3216
NsS'QM_ID'
p3217
g3205
sS'SYSTIME'
p3218
g2
(g25
g26
(lp3219
g15
(S'\x07\xe8\x03\x01\x0c/\x1a\x08\x93y'
p3220
tp3221
Rp3222
aNatp3223
Rp3224
(dp3225
g34
S'[)'
p3226
sbsS'QM_DESC'
p3227
Nstp3228
Rp3229
sVLevoglucosan 2009
p3230
g2
(g3
g4
(dp3231
S'QM_COMMENT'
p3232
NsS'QM_DOCUMENT_URL'
p3233
Vhttps://doi.org/10.5194/amt-8-125-2015
p3234
sS'QM_DOCUMENT_DATE'
p3235
g15
(S'\x07\xdf\x01\t\x00\x00\x00\x00\x00\x00'
p3236
tp3237
Rp3238
sS'QM_DOCUMENT_TITLE'
p3239
VAn intercomparison study of analytical methods used for quantification of levoglucosan in ambient aerosol filter samples
p3240
sS'QT_TYPE'
p3241
VInterlaboratory comparison
p3242
sS'OR_CODE'
p3243
VNO01L
p3244
sS'QM_START'
p3245
g15
(S'\x07\xd8\x0c\x01\x00\x00\x00\x00\x00\x00'
p3246
tp3247
Rp3248
sS'QM_END'
p3249
g15
(S'\x07\xd9\x06\x01\x00\x00\x00\x00\x00\x00'
p3250
tp3251
Rp3252
sS'QM_ID'
p3253
g3230
sS'SYSTIME'
p3254
g2
(g25
g26
(lp3255
g15
(S'\x07\xde\x05\x01\x00\x00\x00\x00\x00\x00'
p3256
tp3257
Rp3258
aNatp3259
Rp3260
(dp3261
g34
S'[)'
p3262
sbsS'QM_DESC'
p3263
VInterlaboratory comparison of levoglucosan
p3264
stp3265
Rp3266
sVAT03L_reference_calibration_20120509
p3267
g2
(g3
g4
(dp3268
S'QM_COMMENT'
p3269
NsS'QM_DOCUMENT_URL'
p3270
NsS'QM_DOCUMENT_DATE'
p3271
NsS'QM_DOCUMENT_TITLE'
p3272
NsS'QT_TYPE'
p3273
VOff-site intercomparison
p3274
sS'OR_CODE'
p3275
VAT03L
p3276
sS'QM_START'
p3277
g15
(S'\x07\xdc\x05\t\x00\x00\x00\x00\x00\x00'
p3278
tp3279
Rp3280
sS'QM_END'
p3281
NsS'QM_ID'
p3282
g3267
sS'SYSTIME'
p3283
g2
(g25
g26
(lp3284
g15
(S'\x07\xde\x05\x01\x00\x00\x00\x00\x00\x00'
p3285
tp3286
Rp3287
aNatp3288
Rp3289
(dp3290
g34
S'[)'
p3291
sbsS'QM_DESC'
p3292
Nstp3293
Rp3294
sVJP02L_reference_calibration_20190619
p3295
g2
(g3
g4
(dp3296
S'QM_COMMENT'
p3297
NsS'QM_DOCUMENT_URL'
p3298
NsS'QM_DOCUMENT_DATE'
p3299
NsS'QM_DOCUMENT_TITLE'
p3300
NsS'QT_TYPE'
p3301
VOff-site intercomparison
p3302
sS'OR_CODE'
p3303
VJP02L
p3304
sS'QM_START'
p3305
g15
(S'\x07\xe3\x06\x13\x00\x00\x00\x00\x00\x00'
p3306
tp3307
Rp3308
sS'QM_END'
p3309
NsS'QM_ID'
p3310
g3295
sS'SYSTIME'
p3311
g2
(g25
g26
(lp3312
g15
(S'\x07\xde\x05\x01\x00\x00\x00\x00\x00\x00'
p3313
tp3314
Rp3315
aNatp3316
Rp3317
(dp3318
g34
S'[)'
p3319
sbsS'QM_DESC'
p3320
Nstp3321
Rp3322
sVEMEP30
p3323
g2
(g3
g4
(dp3324
S'QM_COMMENT'
p3325
NsS'QM_DOCUMENT_URL'
p3326
Vhttp://www.nilu.no/projects/ccc/qameasure/emep30.pdf
p3327
sS'QM_DOCUMENT_DATE'
p3328
g15
(S'\x07\xdd\x03\x08\x00\x00\x00\x00\x00\x00'
p3329
tp3330
Rp3331
sS'QM_DOCUMENT_TITLE'
p3332
VSummary statistics EMEP laboratory intercalibration Round 30
p3333
sS'QT_TYPE'
p3334
VInterlaboratory comparison
p3335
sS'OR_CODE'
p3336
VNO03O
p3337
sS'QM_START'
p3338
g15
(S'\x07\xdc\x08\x01\x00\x00\x00\x00\x00\x00'
p3339
tp3340
Rp3341
sS'QM_END'
p3342
g15
(S'\x07\xdd\x01\x01\x00\x00\x00\x00\x00\x00'
p3343
tp3344
Rp3345
sS'QM_ID'
p3346
g3323
sS'SYSTIME'
p3347
g2
(g25
g26
(lp3348
g15
(S'\x07\xe8\t\x13\x08 (\x03"\xf8'
p3349
tp3350
Rp3351
aNatp3352
Rp3353
(dp3354
g34
S'[)'
p3355
sbsS'QM_DESC'
p3356
V30st EMEP laboratory intercomparison
p3357
stp3358
Rp3359
sVJP02L_reference_calibration_20200814
p3360
g2
(g3
g4
(dp3361
S'QM_COMMENT'
p3362
NsS'QM_DOCUMENT_URL'
p3363
NsS'QM_DOCUMENT_DATE'
p3364
NsS'QM_DOCUMENT_TITLE'
p3365
NsS'QT_TYPE'
p3366
VOff-site intercomparison
p3367
sS'OR_CODE'
p3368
VJP02L
p3369
sS'QM_START'
p3370
g15
(S'\x07\xe4\x08\x0e\x00\x00\x00\x00\x00\x00'
p3371
tp3372
Rp3373
sS'QM_END'
p3374
NsS'QM_ID'
p3375
g3360
sS'SYSTIME'
p3376
g2
(g25
g26
(lp3377
g15
(S'\x07\xe6\x0c\x01\x0e7\x0c\x03<_'
p3378
tp3379
Rp3380
aNatp3381
Rp3382
(dp3383
g34
S'[)'
p3384
sbsS'QM_DESC'
p3385
Nstp3386
Rp3387
sVJP02L_reference_calibration_20190207
p3388
g2
(g3
g4
(dp3389
S'QM_COMMENT'
p3390
NsS'QM_DOCUMENT_URL'
p3391
NsS'QM_DOCUMENT_DATE'
p3392
NsS'QM_DOCUMENT_TITLE'
p3393
NsS'QT_TYPE'
p3394
VOff-site intercomparison
p3395
sS'OR_CODE'
p3396
VJP02L
p3397
sS'QM_START'
p3398
g15
(S'\x07\xe3\x02\x07\x00\x00\x00\x00\x00\x00'
p3399
tp3400
Rp3401
sS'QM_END'
p3402
NsS'QM_ID'
p3403
g3388
sS'SYSTIME'
p3404
g2
(g25
g26
(lp3405
g15
(S'\x07\xde\x05\x01\x00\x00\x00\x00\x00\x00'
p3406
tp3407
Rp3408
aNatp3409
Rp3410
(dp3411
g34
S'[)'
p3412
sbsS'QM_DESC'
p3413
Nstp3414
Rp3415
sVUS17L_reference_calibration_20210520
p3416
g2
(g3
g4
(dp3417
S'QM_COMMENT'
p3418
NsS'QM_DOCUMENT_URL'
p3419
NsS'QM_DOCUMENT_DATE'
p3420
NsS'QM_DOCUMENT_TITLE'
p3421
NsS'QT_TYPE'
p3422
VOff-site intercomparison
p3423
sS'OR_CODE'
p3424
VUS17L
p3425
sS'QM_START'
p3426
NsS'QM_END'
p3427
NsS'QM_ID'
p3428
g3416
sS'SYSTIME'
p3429
g2
(g25
g26
(lp3430
g15
(S'\x07\xe8\x03\x01\x0c/\x1a\x08\x93y'
p3431
tp3432
Rp3433
aNatp3434
Rp3435
(dp3436
g34
S'[)'
p3437
sbsS'QM_DESC'
p3438
Nstp3439
Rp3440
sVJP02L_reference_calibration_20220414
p3441
g2
(g3
g4
(dp3442
S'QM_COMMENT'
p3443
NsS'QM_DOCUMENT_URL'
p3444
NsS'QM_DOCUMENT_DATE'
p3445
NsS'QM_DOCUMENT_TITLE'
p3446
NsS'QT_TYPE'
p3447
VOff-site intercomparison
p3448
sS'OR_CODE'
p3449
VJP02L
p3450
sS'QM_START'
p3451
g15
(S'\x07\xe6\x04\x0e\x00\x00\x00\x00\x00\x00'
p3452
tp3453
Rp3454
sS'QM_END'
p3455
NsS'QM_ID'
p3456
g3441
sS'SYSTIME'
p3457
g2
(g25
g26
(lp3458
g15
(S'\x07\xe6\x0c\x01\x0e7\x0c\x03\x8e\xea'
p3459
tp3460
Rp3461
aNatp3462
Rp3463
(dp3464
g34
S'[)'
p3465
sbsS'QM_DESC'
p3466
Nstp3467
Rp3468
sVWCCAP-OSIA-2019-1
p3469
g2
(g3
g4
(dp3470
S'QM_COMMENT'
p3471
NsS'QM_DOCUMENT_URL'
p3472
NsS'QM_DOCUMENT_DATE'
p3473
NsS'QM_DOCUMENT_TITLE'
p3474
NsS'QT_TYPE'
p3475
VOn-site intercomparison
p3476
sS'OR_CODE'
p3477
VDE43O
p3478
sS'QM_START'
p3479
g15
(S'\x07\xe3\x0c\t\x00\x00\x00\x00\x00\x00'
p3480
tp3481
Rp3482
sS'QM_END'
p3483
g15
(S'\x07\xe4\x02\x1b\x00\x00\x00\x00\x00\x00'
p3484
tp3485
Rp3486
sS'QM_ID'
p3487
g3469
sS'SYSTIME'
p3488
g2
(g25
g26
(lp3489
g15
(S'\x07\xde\x05\x01\x00\x00\x00\x00\x00\x00'
p3490
tp3491
Rp3492
aNatp3493
Rp3494
(dp3495
g34
S'[)'
p3496
sbsS'QM_DESC'
p3497
VOn-site Intercomparison & Audit
p3498
stp3499
Rp3500
sVJP02L_reference_calibration_20220126
p3501
g2
(g3
g4
(dp3502
S'QM_COMMENT'
p3503
NsS'QM_DOCUMENT_URL'
p3504
NsS'QM_DOCUMENT_DATE'
p3505
NsS'QM_DOCUMENT_TITLE'
p3506
NsS'QT_TYPE'
p3507
VOff-site intercomparison
p3508
sS'OR_CODE'
p3509
VJP02L
p3510
sS'QM_START'
p3511
g15
(S'\x07\xe6\x01\x1a\x00\x00\x00\x00\x00\x00'
p3512
tp3513
Rp3514
sS'QM_END'
p3515
NsS'QM_ID'
p3516
g3501
sS'SYSTIME'
p3517
g2
(g25
g26
(lp3518
g15
(S'\x07\xe7\x0c\x12\x0c$5\x078\xe0'
p3519
tp3520
Rp3521
aNatp3522
Rp3523
(dp3524
g34
S'[)'
p3525
sbsS'QM_DESC'
p3526
Nstp3527
Rp3528
sVWCCAP-MPSS-2018-5
p3529
g2
(g3
g4
(dp3530
S'QM_COMMENT'
p3531
NsS'QM_DOCUMENT_URL'
p3532
NsS'QM_DOCUMENT_DATE'
p3533
NsS'QM_DOCUMENT_TITLE'
p3534
NsS'QT_TYPE'
p3535
VOff-site intercomparison
p3536
sS'OR_CODE'
p3537
VDE43O
p3538
sS'QM_START'
p3539
g15
(S'\x07\xe2\x06\x12\x00\x00\x00\x00\x00\x00'
p3540
tp3541
Rp3542
sS'QM_END'
p3543
g15
(S'\x07\xe2\x06\x17\x00\x00\x00\x00\x00\x00'
p3544
tp3545
Rp3546
sS'QM_ID'
p3547
g3529
sS'SYSTIME'
p3548
g2
(g25
g26
(lp3549
g15
(S'\x07\xde\x05\x01\x00\x00\x00\x00\x00\x00'
p3550
tp3551
Rp3552
aNatp3553
Rp3554
(dp3555
g34
S'[)'
p3556
sbsS'QM_DESC'
p3557
VIntercomparison of Mobility Particle Size Spectrometer
p3558
stp3559
Rp3560
sVJP02L_reference_calibration_20170817
p3561
g2
(g3
g4
(dp3562
S'QM_COMMENT'
p3563
NsS'QM_DOCUMENT_URL'
p3564
NsS'QM_DOCUMENT_DATE'
p3565
NsS'QM_DOCUMENT_TITLE'
p3566
NsS'QT_TYPE'
p3567
VOff-site intercomparison
p3568
sS'OR_CODE'
p3569
VJP02L
p3570
sS'QM_START'
p3571
g15
(S'\x07\xe1\x08\x11\x00\x00\x00\x00\x00\x00'
p3572
tp3573
Rp3574
sS'QM_END'
p3575
NsS'QM_ID'
p3576
g3561
sS'SYSTIME'
p3577
g2
(g25
g26
(lp3578
g15
(S'\x07\xde\x05\x01\x00\x00\x00\x00\x00\x00'
p3579
tp3580
Rp3581
aNatp3582
Rp3583
(dp3584
g34
S'[)'
p3585
sbsS'QM_DESC'
p3586
Nstp3587
Rp3588
sVECAC-OCEC-2020-1
p3589
g2
(g3
g4
(dp3590
S'QM_COMMENT'
p3591
NsS'QM_DOCUMENT_URL'
p3592
NsS'QM_DOCUMENT_DATE'
p3593
NsS'QM_DOCUMENT_TITLE'
p3594
VResults of the inter-laboratory comparison exercise for TC and EC measurements (OCEC-2020-1)
p3595
sS'QT_TYPE'
p3596
VInterlaboratory comparison
p3597
sS'OR_CODE'
p3598
VIT14O
p3599
sS'QM_START'
p3600
g15
(S'\x07\xe4\x01\x01\x00\x00\x00\x00\x00\x00'
p3601
tp3602
Rp3603
sS'QM_END'
p3604
g15
(S'\x07\xe4\x06\x1e\x00\x00\x00\x00\x00\x00'
p3605
tp3606
Rp3607
sS'QM_ID'
p3608
g3589
sS'SYSTIME'
p3609
g2
(g25
g26
(lp3610
g15
(S'\x07\xde\x05\x01\x00\x00\x00\x00\x00\x00'
p3611
tp3612
Rp3613
aNatp3614
Rp3615
(dp3616
g34
S'[)'
p3617
sbsS'QM_DESC'
p3618
VECAC Inter-laboratory comparison exercise for TC and EC measurements
p3619
stp3620
Rp3621
sVACTRIS NO round robin 2012
p3622
g2
(g3
g4
(dp3623
S'QM_COMMENT'
p3624
NsS'QM_DOCUMENT_URL'
p3625
Vhttp://fp7.actris.eu/Portals/97/deliverables/PU/WP4_D4.4_M24.pdf
p3626
sS'QM_DOCUMENT_DATE'
p3627
NsS'QM_DOCUMENT_TITLE'
p3628
VWP4- NA4: Trace gases networking: Volatile organic carbon and nitrogen oxides Deliverable D4.4: Results of Round Robin exercise of NO
p3629
sS'QT_TYPE'
p3630
VOn-site intercomparison
p3631
sS'OR_CODE'
p3632
VDE09L
p3633
sS'QM_START'
p3634
g15
(S'\x07\xdc\x02\x05\x00\x00\x00\x00\x00\x00'
p3635
tp3636
Rp3637
sS'QM_END'
p3638
g15
(S'\x07\xdc\x0c\x15\x00\x00\x00\x00\x00\x00'
p3639
tp3640
Rp3641
sS'QM_ID'
p3642
g3622
sS'SYSTIME'
p3643
g2
(g25
g26
(lp3644
g15
(S'\x07\xde\x05\x01\x00\x00\x00\x00\x00\x00'
p3645
tp3646
Rp3647
aNatp3648
Rp3649
(dp3650
g34
S'[)'
p3651
sbsS'QM_DESC'
p3652
VWP4- NA4: Trace gases networking: Volatile organic carbon and nitrogen oxides Deliverable D4.4: Results of Round Robin exercise of NO
p3653
stp3654
Rp3655
sVJP02L_reference_calibration_20170110
p3656
g2
(g3
g4
(dp3657
S'QM_COMMENT'
p3658
NsS'QM_DOCUMENT_URL'
p3659
NsS'QM_DOCUMENT_DATE'
p3660
NsS'QM_DOCUMENT_TITLE'
p3661
NsS'QT_TYPE'
p3662
VOff-site intercomparison
p3663
sS'OR_CODE'
p3664
VJP02L
p3665
sS'QM_START'
p3666
g15
(S'\x07\xe1\x01\n\x00\x00\x00\x00\x00\x00'
p3667
tp3668
Rp3669
sS'QM_END'
p3670
NsS'QM_ID'
p3671
g3656
sS'SYSTIME'
p3672
g2
(g25
g26
(lp3673
g15
(S'\x07\xde\x05\x01\x00\x00\x00\x00\x00\x00'
p3674
tp3675
Rp3676
aNatp3677
Rp3678
(dp3679
g34
S'[)'
p3680
sbsS'QM_DESC'
p3681
Nstp3682
Rp3683
sVJP02L_reference_calibration_20241223
p3684
g2
(g3
g4
(dp3685
S'QM_COMMENT'
p3686
NsS'QM_DOCUMENT_URL'
p3687
NsS'QM_DOCUMENT_DATE'
p3688
NsS'QM_DOCUMENT_TITLE'
p3689
NsS'QT_TYPE'
p3690
VOff-site intercomparison
p3691
sS'OR_CODE'
p3692
VJP02L
p3693
sS'QM_START'
p3694
g15
(S'\x07\xe8\x0c\x17\x00\x00\x00\x00\x00\x00'
p3695
tp3696
Rp3697
sS'QM_END'
p3698
NsS'QM_ID'
p3699
g3684
sS'SYSTIME'
p3700
g2
(g25
g26
(lp3701
g15
(S'\x07\xe9\x01\n\x0b\x07\x01\x0b\xa3\x0b'
p3702
tp3703
Rp3704
aNatp3705
Rp3706
(dp3707
g34
S'[)'
p3708
sbsS'QM_DESC'
p3709
Nstp3710
Rp3711
sVJP02L_reference_calibration_20190515
p3712
g2
(g3
g4
(dp3713
S'QM_COMMENT'
p3714
NsS'QM_DOCUMENT_URL'
p3715
NsS'QM_DOCUMENT_DATE'
p3716
NsS'QM_DOCUMENT_TITLE'
p3717
NsS'QT_TYPE'
p3718
VOff-site intercomparison
p3719
sS'OR_CODE'
p3720
VJP02L
p3721
sS'QM_START'
p3722
g15
(S'\x07\xe3\x05\x0f\x00\x00\x00\x00\x00\x00'
p3723
tp3724
Rp3725
sS'QM_END'
p3726
NsS'QM_ID'
p3727
g3712
sS'SYSTIME'
p3728
g2
(g25
g26
(lp3729
g15
(S'\x07\xde\x05\x01\x00\x00\x00\x00\x00\x00'
p3730
tp3731
Rp3732
aNatp3733
Rp3734
(dp3735
g34
S'[)'
p3736
sbsS'QM_DESC'
p3737
Nstp3738
Rp3739
sVJP02L_reference_calibration_20220426
p3740
g2
(g3
g4
(dp3741
S'QM_COMMENT'
p3742
NsS'QM_DOCUMENT_URL'
p3743
NsS'QM_DOCUMENT_DATE'
p3744
NsS'QM_DOCUMENT_TITLE'
p3745
NsS'QT_TYPE'
p3746
VOff-site intercomparison
p3747
sS'OR_CODE'
p3748
VJP02L
p3749
sS'QM_START'
p3750
g15
(S'\x07\xe6\x04\x1a\x00\x00\x00\x00\x00\x00'
p3751
tp3752
Rp3753
sS'QM_END'
p3754
NsS'QM_ID'
p3755
g3740
sS'SYSTIME'
p3756
g2
(g25
g26
(lp3757
g15
(S'\x07\xe6\x0c\x01\x0e7\x0c\x03\xac\xa5'
p3758
tp3759
Rp3760
aNatp3761
Rp3762
(dp3763
g34
S'[)'
p3764
sbsS'QM_DESC'
p3765
Nstp3766
Rp3767
sVAT03L_reference_calibration_20141028
p3768
g2
(g3
g4
(dp3769
S'QM_COMMENT'
p3770
NsS'QM_DOCUMENT_URL'
p3771
NsS'QM_DOCUMENT_DATE'
p3772
NsS'QM_DOCUMENT_TITLE'
p3773
NsS'QT_TYPE'
p3774
VOff-site intercomparison
p3775
sS'OR_CODE'
p3776
VAT03L
p3777
sS'QM_START'
p3778
g15
(S'\x07\xde\n\x1c\x00\x00\x00\x00\x00\x00'
p3779
tp3780
Rp3781
sS'QM_END'
p3782
NsS'QM_ID'
p3783
g3768
sS'SYSTIME'
p3784
g2
(g25
g26
(lp3785
g15
(S'\x07\xde\x05\x01\x00\x00\x00\x00\x00\x00'
p3786
tp3787
Rp3788
aNatp3789
Rp3790
(dp3791
g34
S'[)'
p3792
sbsS'QM_DESC'
p3793
Nstp3794
Rp3795
sVWCCAP-MPSS-2018-1
p3796
g2
(g3
g4
(dp3797
S'QM_COMMENT'
p3798
NsS'QM_DOCUMENT_URL'
p3799
NsS'QM_DOCUMENT_DATE'
p3800
NsS'QM_DOCUMENT_TITLE'
p3801
NsS'QT_TYPE'
p3802
VOff-site intercomparison
p3803
sS'OR_CODE'
p3804
VDE43O
p3805
sS'QM_START'
p3806
g15
(S'\x07\xe2\x02\x13\x00\x00\x00\x00\x00\x00'
p3807
tp3808
Rp3809
sS'QM_END'
p3810
g15
(S'\x07\xe2\x02\x17\x00\x00\x00\x00\x00\x00'
p3811
tp3812
Rp3813
sS'QM_ID'
p3814
g3796
sS'SYSTIME'
p3815
g2
(g25
g26
(lp3816
g15
(S'\x07\xde\x05\x01\x00\x00\x00\x00\x00\x00'
p3817
tp3818
Rp3819
aNatp3820
Rp3821
(dp3822
g34
S'[)'
p3823
sbsS'QM_DESC'
p3824
VIntercomparison of Mobility Particle Size Spectrometer
p3825
stp3826
Rp3827
sVWCCAP-CPC-2017-6
p3828
g2
(g3
g4
(dp3829
S'QM_COMMENT'
p3830
NsS'QM_DOCUMENT_URL'
p3831
NsS'QM_DOCUMENT_DATE'
p3832
NsS'QM_DOCUMENT_TITLE'
p3833
NsS'QT_TYPE'
p3834
VOff-site intercomparison
p3835
sS'OR_CODE'
p3836
VDE43O
p3837
sS'QM_START'
p3838
g15
(S'\x07\xe1\x0b\r\x00\x00\x00\x00\x00\x00'
p3839
tp3840
Rp3841
sS'QM_END'
p3842
g15
(S'\x07\xe1\x0b\x11\x00\x00\x00\x00\x00\x00'
p3843
tp3844
Rp3845
sS'QM_ID'
p3846
g3828
sS'SYSTIME'
p3847
g2
(g25
g26
(lp3848
g15
(S'\x07\xde\x05\x01\x00\x00\x00\x00\x00\x00'
p3849
tp3850
Rp3851
aNatp3852
Rp3853
(dp3854
g34
S'[)'
p3855
sbsS'QM_DESC'
p3856
VIntercomparison of Condensation Particle Counter
p3857
stp3858
Rp3859
sVWCCAP-CCNC-2019-1
p3860
g2
(g3
g4
(dp3861
S'QM_COMMENT'
p3862
NsS'QM_DOCUMENT_URL'
p3863
NsS'QM_DOCUMENT_DATE'
p3864
NsS'QM_DOCUMENT_TITLE'
p3865
NsS'QT_TYPE'
p3866
VOff-site intercomparison
p3867
sS'OR_CODE'
p3868
VDE43O
p3869
sS'QM_START'
p3870
g15
(S'\x07\xe3\x03\x12\x00\x00\x00\x00\x00\x00'
p3871
tp3872
Rp3873
sS'QM_END'
p3874
g15
(S'\x07\xe3\x03\x16\x00\x00\x00\x00\x00\x00'
p3875
tp3876
Rp3877
sS'QM_ID'
p3878
g3860
sS'SYSTIME'
p3879
g2
(g25
g26
(lp3880
g15
(S'\x07\xde\x05\x01\x00\x00\x00\x00\x00\x00'
p3881
tp3882
Rp3883
aNatp3884
Rp3885
(dp3886
g34
S'[)'
p3887
sbsS'QM_DESC'
p3888
VIntercomparison of Cloud Condensation Nuclei Counter
p3889
stp3890
Rp3891
sVWCCAP-CPC-2017-4
p3892
g2
(g3
g4
(dp3893
S'QM_COMMENT'
p3894
NsS'QM_DOCUMENT_URL'
p3895
NsS'QM_DOCUMENT_DATE'
p3896
NsS'QM_DOCUMENT_TITLE'
p3897
NsS'QT_TYPE'
p3898
VOff-site intercomparison
p3899
sS'OR_CODE'
p3900
VDE43O
p3901
sS'QM_START'
p3902
g15
(S'\x07\xe1\t\x19\x00\x00\x00\x00\x00\x00'
p3903
tp3904
Rp3905
sS'QM_END'
p3906
g15
(S'\x07\xe1\t\x1d\x00\x00\x00\x00\x00\x00'
p3907
tp3908
Rp3909
sS'QM_ID'
p3910
g3892
sS'SYSTIME'
p3911
g2
(g25
g26
(lp3912
g15
(S'\x07\xde\x05\x01\x00\x00\x00\x00\x00\x00'
p3913
tp3914
Rp3915
aNatp3916
Rp3917
(dp3918
g34
S'[)'
p3919
sbsS'QM_DESC'
p3920
VIntercomparison of Condensation Particle Counter
p3921
stp3922
Rp3923
sVWCCAP-CPC-2017-3
p3924
g2
(g3
g4
(dp3925
S'QM_COMMENT'
p3926
NsS'QM_DOCUMENT_URL'
p3927
NsS'QM_DOCUMENT_DATE'
p3928
NsS'QM_DOCUMENT_TITLE'
p3929
NsS'QT_TYPE'
p3930
VOff-site intercomparison
p3931
sS'OR_CODE'
p3932
VDE43O
p3933
sS'QM_START'
p3934
g15
(S'\x07\xe1\x05\x0f\x00\x00\x00\x00\x00\x00'
p3935
tp3936
Rp3937
sS'QM_END'
p3938
g15
(S'\x07\xe1\x05\x13\x00\x00\x00\x00\x00\x00'
p3939
tp3940
Rp3941
sS'QM_ID'
p3942
g3924
sS'SYSTIME'
p3943
g2
(g25
g26
(lp3944
g15
(S'\x07\xde\x05\x01\x00\x00\x00\x00\x00\x00'
p3945
tp3946
Rp3947
aNatp3948
Rp3949
(dp3950
g34
S'[)'
p3951
sbsS'QM_DESC'
p3952
VIntercomparison of Condensation Particle Counter
p3953
stp3954
Rp3955
sVWCCAP-CPC-2017-2
p3956
g2
(g3
g4
(dp3957
S'QM_COMMENT'
p3958
NsS'QM_DOCUMENT_URL'
p3959
NsS'QM_DOCUMENT_DATE'
p3960
NsS'QM_DOCUMENT_TITLE'
p3961
NsS'QT_TYPE'
p3962
VOff-site intercomparison
p3963
sS'OR_CODE'
p3964
VDE43O
p3965
sS'QM_START'
p3966
g15
(S'\x07\xe1\x03\r\x00\x00\x00\x00\x00\x00'
p3967
tp3968
Rp3969
sS'QM_END'
p3970
g15
(S'\x07\xe1\x03\x11\x00\x00\x00\x00\x00\x00'
p3971
tp3972
Rp3973
sS'QM_ID'
p3974
g3956
sS'SYSTIME'
p3975
g2
(g25
g26
(lp3976
g15
(S'\x07\xde\x05\x01\x00\x00\x00\x00\x00\x00'
p3977
tp3978
Rp3979
aNatp3980
Rp3981
(dp3982
g34
S'[)'
p3983
sbsS'QM_DESC'
p3984
VIntercomparison of Condensation Particle Counter
p3985
stp3986
Rp3987
sVWCCAP-CPC-2017-1
p3988
g2
(g3
g4
(dp3989
S'QM_COMMENT'
p3990
NsS'QM_DOCUMENT_URL'
p3991
NsS'QM_DOCUMENT_DATE'
p3992
NsS'QM_DOCUMENT_TITLE'
p3993
NsS'QT_TYPE'
p3994
VOff-site intercomparison
p3995
sS'OR_CODE'
p3996
VDE43O
p3997
sS'QM_START'
p3998
g15
(S'\x07\xe1\x01\x17\x00\x00\x00\x00\x00\x00'
p3999
tp4000
Rp4001
sS'QM_END'
p4002
g15
(S'\x07\xe1\x01\x1b\x00\x00\x00\x00\x00\x00'
p4003
tp4004
Rp4005
sS'QM_ID'
p4006
g3988
sS'SYSTIME'
p4007
g2
(g25
g26
(lp4008
g15
(S'\x07\xde\x05\x01\x00\x00\x00\x00\x00\x00'
p4009
tp4010
Rp4011
aNatp4012
Rp4013
(dp4014
g34
S'[)'
p4015
sbsS'QM_DESC'
p4016
VIntercomparison of Condensation Particle Counter
p4017
stp4018
Rp4019
sVJP02L_reference_calibration_20230724
p4020
g2
(g3
g4
(dp4021
S'QM_COMMENT'
p4022
NsS'QM_DOCUMENT_URL'
p4023
NsS'QM_DOCUMENT_DATE'
p4024
NsS'QM_DOCUMENT_TITLE'
p4025
NsS'QT_TYPE'
p4026
VOff-site intercomparison
p4027
sS'OR_CODE'
p4028
VJP02L
p4029
sS'QM_START'
p4030
g15
(S'\x07\xe7\x07\x18\x00\x00\x00\x00\x00\x00'
p4031
tp4032
Rp4033
sS'QM_END'
p4034
NsS'QM_ID'
p4035
g4020
sS'SYSTIME'
p4036
g2
(g25
g26
(lp4037
g15
(S'\x07\xe8\x04\x1d\x0b;$\x0e\xf0\xac'
p4038
tp4039
Rp4040
aNatp4041
Rp4042
(dp4043
g34
S'[)'
p4044
sbsS'QM_DESC'
p4045
Nstp4046
Rp4047
sVAT03L_reference_calibration_20040608
p4048
g2
(g3
g4
(dp4049
S'QM_COMMENT'
p4050
NsS'QM_DOCUMENT_URL'
p4051
NsS'QM_DOCUMENT_DATE'
p4052
NsS'QM_DOCUMENT_TITLE'
p4053
NsS'QT_TYPE'
p4054
VOff-site intercomparison
p4055
sS'OR_CODE'
p4056
VAT03L
p4057
sS'QM_START'
p4058
g15
(S'\x07\xd4\x06\x08\x00\x00\x00\x00\x00\x00'
p4059
tp4060
Rp4061
sS'QM_END'
p4062
NsS'QM_ID'
p4063
g4048
sS'SYSTIME'
p4064
g2
(g25
g26
(lp4065
g15
(S'\x07\xde\x05\x01\x00\x00\x00\x00\x00\x00'
p4066
tp4067
Rp4068
aNatp4069
Rp4070
(dp4071
g34
S'[)'
p4072
sbsS'QM_DESC'
p4073
Nstp4074
Rp4075
sVWCCAP-MPSS-2016-2
p4076
g2
(g3
g4
(dp4077
S'QM_COMMENT'
p4078
NsS'QM_DOCUMENT_URL'
p4079
NsS'QM_DOCUMENT_DATE'
p4080
NsS'QM_DOCUMENT_TITLE'
p4081
NsS'QT_TYPE'
p4082
VOff-site intercomparison
p4083
sS'OR_CODE'
p4084
VDE43O
p4085
sS'QM_START'
p4086
g15
(S'\x07\xe0\x04\x04\x00\x00\x00\x00\x00\x00'
p4087
tp4088
Rp4089
sS'QM_END'
p4090
g15
(S'\x07\xe0\x04\x08\x00\x00\x00\x00\x00\x00'
p4091
tp4092
Rp4093
sS'QM_ID'
p4094
g4076
sS'SYSTIME'
p4095
g2
(g25
g26
(lp4096
g15
(S'\x07\xde\x05\x01\x00\x00\x00\x00\x00\x00'
p4097
tp4098
Rp4099
aNatp4100
Rp4101
(dp4102
g34
S'[)'
p4103
sbsS'QM_DESC'
p4104
VIntercomparison of Mobility Particle Size Spectrometer
p4105
stp4106
Rp4107
sVJP02L_reference_calibration_20230124
p4108
g2
(g3
g4
(dp4109
S'QM_COMMENT'
p4110
NsS'QM_DOCUMENT_URL'
p4111
NsS'QM_DOCUMENT_DATE'
p4112
NsS'QM_DOCUMENT_TITLE'
p4113
NsS'QT_TYPE'
p4114
VOff-site intercomparison
p4115
sS'OR_CODE'
p4116
VJP02L
p4117
sS'QM_START'
p4118
g15
(S'\x07\xe7\x01\x18\x00\x00\x00\x00\x00\x00'
p4119
tp4120
Rp4121
sS'QM_END'
p4122
NsS'QM_ID'
p4123
g4108
sS'SYSTIME'
p4124
g2
(g25
g26
(lp4125
g15
(S'\x07\xe7\x0c\x12\x0c$5\x07k\xe0'
p4126
tp4127
Rp4128
aNatp4129
Rp4130
(dp4131
g34
S'[)'
p4132
sbsS'QM_DESC'
p4133
Nstp4134
Rp4135
sVWCCAP-MPSS-2019-2
p4136
g2
(g3
g4
(dp4137
S'QM_COMMENT'
p4138
NsS'QM_DOCUMENT_URL'
p4139
NsS'QM_DOCUMENT_DATE'
p4140
NsS'QM_DOCUMENT_TITLE'
p4141
NsS'QT_TYPE'
p4142
VOff-site intercomparison
p4143
sS'OR_CODE'
p4144
VDE43O
p4145
sS'QM_START'
p4146
g15
(S'\x07\xe3\x05\x14\x00\x00\x00\x00\x00\x00'
p4147
tp4148
Rp4149
sS'QM_END'
p4150
g15
(S'\x07\xe3\x05\x18\x00\x00\x00\x00\x00\x00'
p4151
tp4152
Rp4153
sS'QM_ID'
p4154
g4136
sS'SYSTIME'
p4155
g2
(g25
g26
(lp4156
g15
(S'\x07\xde\x05\x01\x00\x00\x00\x00\x00\x00'
p4157
tp4158
Rp4159
aNatp4160
Rp4161
(dp4162
g34
S'[)'
p4163
sbsS'QM_DESC'
p4164
VIntercomparison of Mobility Particle Size Spectrometer
p4165
stp4166
Rp4167
sVJP02L_reference_calibration_20170628
p4168
g2
(g3
g4
(dp4169
S'QM_COMMENT'
p4170
NsS'QM_DOCUMENT_URL'
p4171
NsS'QM_DOCUMENT_DATE'
p4172
NsS'QM_DOCUMENT_TITLE'
p4173
NsS'QT_TYPE'
p4174
VOff-site intercomparison
p4175
sS'OR_CODE'
p4176
VJP02L
p4177
sS'QM_START'
p4178
g15
(S'\x07\xe1\x06\x1c\x00\x00\x00\x00\x00\x00'
p4179
tp4180
Rp4181
sS'QM_END'
p4182
NsS'QM_ID'
p4183
g4168
sS'SYSTIME'
p4184
g2
(g25
g26
(lp4185
g15
(S'\x07\xde\x05\x01\x00\x00\x00\x00\x00\x00'
p4186
tp4187
Rp4188
aNatp4189
Rp4190
(dp4191
g34
S'[)'
p4192
sbsS'QM_DESC'
p4193
Nstp4194
Rp4195
sVJP02L_reference_calibration_20190219
p4196
g2
(g3
g4
(dp4197
S'QM_COMMENT'
p4198
NsS'QM_DOCUMENT_URL'
p4199
NsS'QM_DOCUMENT_DATE'
p4200
NsS'QM_DOCUMENT_TITLE'
p4201
NsS'QT_TYPE'
p4202
VOff-site intercomparison
p4203
sS'OR_CODE'
p4204
VJP02L
p4205
sS'QM_START'
p4206
g15
(S'\x07\xe3\x02\x13\x00\x00\x00\x00\x00\x00'
p4207
tp4208
Rp4209
sS'QM_END'
p4210
NsS'QM_ID'
p4211
g4196
sS'SYSTIME'
p4212
g2
(g25
g26
(lp4213
g15
(S'\x07\xde\x05\x01\x00\x00\x00\x00\x00\x00'
p4214
tp4215
Rp4216
aNatp4217
Rp4218
(dp4219
g34
S'[)'
p4220
sbsS'QM_DESC'
p4221
Nstp4222
Rp4223
sVAT03L_reference_calibration_20000524
p4224
g2
(g3
g4
(dp4225
S'QM_COMMENT'
p4226
NsS'QM_DOCUMENT_URL'
p4227
NsS'QM_DOCUMENT_DATE'
p4228
NsS'QM_DOCUMENT_TITLE'
p4229
NsS'QT_TYPE'
p4230
VOff-site intercomparison
p4231
sS'OR_CODE'
p4232
VAT03L
p4233
sS'QM_START'
p4234
g15
(S'\x07\xd0\x05\x18\x00\x00\x00\x00\x00\x00'
p4235
tp4236
Rp4237
sS'QM_END'
p4238
NsS'QM_ID'
p4239
g4224
sS'SYSTIME'
p4240
g2
(g25
g26
(lp4241
g15
(S'\x07\xde\x05\x01\x00\x00\x00\x00\x00\x00'
p4242
tp4243
Rp4244
aNatp4245
Rp4246
(dp4247
g34
S'[)'
p4248
sbsS'QM_DESC'
p4249
Nstp4250
Rp4251
sVECAC-OCEC-2018-1
p4252
g2
(g3
g4
(dp4253
S'QM_COMMENT'
p4254
NsS'QM_DOCUMENT_URL'
p4255
Vhttp://www.actris-ecac.eu/files/ECAC-report-OCEC-2018-1.pdf
p4256
sS'QM_DOCUMENT_DATE'
p4257
NsS'QM_DOCUMENT_TITLE'
p4258
VResults of the inter-laboratory comparison exercise for TC and EC measurements (ref.: OCEC-2018-1)
p4259
sS'QT_TYPE'
p4260
VInterlaboratory comparison
p4261
sS'OR_CODE'
p4262
VIT14O
p4263
sS'QM_START'
p4264
g15
(S'\x07\xe2\x02\t\x00\x00\x00\x00\x00\x00'
p4265
tp4266
Rp4267
sS'QM_END'
p4268
g15
(S'\x07\xe2\x04\x01\x00\x00\x00\x00\x00\x00'
p4269
tp4270
Rp4271
sS'QM_ID'
p4272
g4252
sS'SYSTIME'
p4273
g2
(g25
g26
(lp4274
g15
(S'\x07\xde\x05\x01\x00\x00\x00\x00\x00\x00'
p4275
tp4276
Rp4277
aNatp4278
Rp4279
(dp4280
g34
S'[)'
p4281
sbsS'QM_DESC'
p4282
VECAC Inter-laboratory comparison exercise for TC and EC measurements
p4283
stp4284
Rp4285
sVWCCAP-CCNC-2016-1
p4286
g2
(g3
g4
(dp4287
S'QM_COMMENT'
p4288
NsS'QM_DOCUMENT_URL'
p4289
NsS'QM_DOCUMENT_DATE'
p4290
NsS'QM_DOCUMENT_TITLE'
p4291
NsS'QT_TYPE'
p4292
VOff-site intercomparison
p4293
sS'OR_CODE'
p4294
VDE43O
p4295
sS'QM_START'
p4296
g15
(S'\x07\xe0\n\x18\x00\x00\x00\x00\x00\x00'
p4297
tp4298
Rp4299
sS'QM_END'
p4300
g15
(S'\x07\xe0\n\x1c\x00\x00\x00\x00\x00\x00'
p4301
tp4302
Rp4303
sS'QM_ID'
p4304
g4286
sS'SYSTIME'
p4305
g2
(g25
g26
(lp4306
g15
(S'\x07\xde\x05\x01\x00\x00\x00\x00\x00\x00'
p4307
tp4308
Rp4309
aNatp4310
Rp4311
(dp4312
g34
S'[)'
p4313
sbsS'QM_DESC'
p4314
VIntercomparison of Cloud Condensation Nuclei Counter
p4315
stp4316
Rp4317
sVJP02L_reference_calibration_20230322
p4318
g2
(g3
g4
(dp4319
S'QM_COMMENT'
p4320
NsS'QM_DOCUMENT_URL'
p4321
NsS'QM_DOCUMENT_DATE'
p4322
NsS'QM_DOCUMENT_TITLE'
p4323
NsS'QT_TYPE'
p4324
VOff-site intercomparison
p4325
sS'OR_CODE'
p4326
VJP02L
p4327
sS'QM_START'
p4328
g15
(S'\x07\xe7\x03\x16\x00\x00\x00\x00\x00\x00'
p4329
tp4330
Rp4331
sS'QM_END'
p4332
NsS'QM_ID'
p4333
g4318
sS'SYSTIME'
p4334
g2
(g25
g26
(lp4335
g15
(S'\x07\xe7\x0c\x12\x0c$5\x08\x1e\x94'
p4336
tp4337
Rp4338
aNatp4339
Rp4340
(dp4341
g34
S'[)'
p4342
sbsS'QM_DESC'
p4343
Nstp4344
Rp4345
sVJP02L_reference_calibration_20210709
p4346
g2
(g3
g4
(dp4347
S'QM_COMMENT'
p4348
NsS'QM_DOCUMENT_URL'
p4349
NsS'QM_DOCUMENT_DATE'
p4350
NsS'QM_DOCUMENT_TITLE'
p4351
NsS'QT_TYPE'
p4352
VOff-site intercomparison
p4353
sS'OR_CODE'
p4354
VJP02L
p4355
sS'QM_START'
p4356
g15
(S'\x07\xe5\x07\t\x00\x00\x00\x00\x00\x00'
p4357
tp4358
Rp4359
sS'QM_END'
p4360
NsS'QM_ID'
p4361
g4346
sS'SYSTIME'
p4362
g2
(g25
g26
(lp4363
g15
(S'\x07\xe7\x0c\x12\x0c$5\x07({'
p4364
tp4365
Rp4366
aNatp4367
Rp4368
(dp4369
g34
S'[)'
p4370
sbsS'QM_DESC'
p4371
Nstp4372
Rp4373
sVAT03L_reference_calibration_20121024
p4374
g2
(g3
g4
(dp4375
S'QM_COMMENT'
p4376
NsS'QM_DOCUMENT_URL'
p4377
NsS'QM_DOCUMENT_DATE'
p4378
NsS'QM_DOCUMENT_TITLE'
p4379
NsS'QT_TYPE'
p4380
VOff-site intercomparison
p4381
sS'OR_CODE'
p4382
VAT03L
p4383
sS'QM_START'
p4384
g15
(S'\x07\xdc\n\x18\x00\x00\x00\x00\x00\x00'
p4385
tp4386
Rp4387
sS'QM_END'
p4388
NsS'QM_ID'
p4389
g4374
sS'SYSTIME'
p4390
g2
(g25
g26
(lp4391
g15
(S'\x07\xde\x05\x01\x00\x00\x00\x00\x00\x00'
p4392
tp4393
Rp4394
aNatp4395
Rp4396
(dp4397
g34
S'[)'
p4398
sbsS'QM_DESC'
p4399
Nstp4400
Rp4401
sVJP02L_reference_calibration_20180807
p4402
g2
(g3
g4
(dp4403
S'QM_COMMENT'
p4404
NsS'QM_DOCUMENT_URL'
p4405
NsS'QM_DOCUMENT_DATE'
p4406
NsS'QM_DOCUMENT_TITLE'
p4407
NsS'QT_TYPE'
p4408
VOff-site intercomparison
p4409
sS'OR_CODE'
p4410
VJP02L
p4411
sS'QM_START'
p4412
g15
(S'\x07\xe2\x08\x07\x00\x00\x00\x00\x00\x00'
p4413
tp4414
Rp4415
sS'QM_END'
p4416
NsS'QM_ID'
p4417
g4402
sS'SYSTIME'
p4418
g2
(g25
g26
(lp4419
g15
(S'\x07\xde\x05\x01\x00\x00\x00\x00\x00\x00'
p4420
tp4421
Rp4422
aNatp4423
Rp4424
(dp4425
g34
S'[)'
p4426
sbsS'QM_DESC'
p4427
Nstp4428
Rp4429
sVAT03L_reference_calibration_20090625
p4430
g2
(g3
g4
(dp4431
S'QM_COMMENT'
p4432
NsS'QM_DOCUMENT_URL'
p4433
NsS'QM_DOCUMENT_DATE'
p4434
NsS'QM_DOCUMENT_TITLE'
p4435
NsS'QT_TYPE'
p4436
VOff-site intercomparison
p4437
sS'OR_CODE'
p4438
VAT03L
p4439
sS'QM_START'
p4440
g15
(S'\x07\xd9\x06\x19\x00\x00\x00\x00\x00\x00'
p4441
tp4442
Rp4443
sS'QM_END'
p4444
NsS'QM_ID'
p4445
g4430
sS'SYSTIME'
p4446
g2
(g25
g26
(lp4447
g15
(S'\x07\xde\x05\x01\x00\x00\x00\x00\x00\x00'
p4448
tp4449
Rp4450
aNatp4451
Rp4452
(dp4453
g34
S'[)'
p4454
sbsS'QM_DESC'
p4455
Nstp4456
Rp4457
sVWCCAP-IN-2019-2
p4458
g2
(g3
g4
(dp4459
S'QM_COMMENT'
p4460
NsS'QM_DOCUMENT_URL'
p4461
NsS'QM_DOCUMENT_DATE'
p4462
NsS'QM_DOCUMENT_TITLE'
p4463
NsS'QT_TYPE'
p4464
VOff-site intercomparison
p4465
sS'OR_CODE'
p4466
VDE43O
p4467
sS'QM_START'
p4468
g15
(S'\x07\xe3\n\x07\x00\x00\x00\x00\x00\x00'
p4469
tp4470
Rp4471
sS'QM_END'
p4472
g15
(S'\x07\xe3\n\x0b\x00\x00\x00\x00\x00\x00'
p4473
tp4474
Rp4475
sS'QM_ID'
p4476
g4458
sS'SYSTIME'
p4477
g2
(g25
g26
(lp4478
g15
(S'\x07\xde\x05\x01\x00\x00\x00\x00\x00\x00'
p4479
tp4480
Rp4481
aNatp4482
Rp4483
(dp4484
g34
S'[)'
p4485
sbsS'QM_DESC'
p4486
VIntercomparison of Integrating Nephelometer
p4487
stp4488
Rp4489
sVWCCAP-IN-2019-1
p4490
g2
(g3
g4
(dp4491
S'QM_COMMENT'
p4492
NsS'QM_DOCUMENT_URL'
p4493
NsS'QM_DOCUMENT_DATE'
p4494
NsS'QM_DOCUMENT_TITLE'
p4495
NsS'QT_TYPE'
p4496
VOff-site intercomparison
p4497
sS'OR_CODE'
p4498
VDE43O
p4499
sS'QM_START'
p4500
g15
(S'\x07\xe3\x06\x03\x00\x00\x00\x00\x00\x00'
p4501
tp4502
Rp4503
sS'QM_END'
p4504
g15
(S'\x07\xe3\x06\x07\x00\x00\x00\x00\x00\x00'
p4505
tp4506
Rp4507
sS'QM_ID'
p4508
g4490
sS'SYSTIME'
p4509
g2
(g25
g26
(lp4510
g15
(S'\x07\xde\x05\x01\x00\x00\x00\x00\x00\x00'
p4511
tp4512
Rp4513
aNatp4514
Rp4515
(dp4516
g34
S'[)'
p4517
sbsS'QM_DESC'
p4518
VIntercomparison of Integrating Nephelometer
p4519
stp4520
Rp4521
sVJP02L_reference_calibration_20160907
p4522
g2
(g3
g4
(dp4523
S'QM_COMMENT'
p4524
NsS'QM_DOCUMENT_URL'
p4525
NsS'QM_DOCUMENT_DATE'
p4526
NsS'QM_DOCUMENT_TITLE'
p4527
NsS'QT_TYPE'
p4528
VOff-site intercomparison
p4529
sS'OR_CODE'
p4530
VJP02L
p4531
sS'QM_START'
p4532
g15
(S'\x07\xe0\t\x07\x00\x00\x00\x00\x00\x00'
p4533
tp4534
Rp4535
sS'QM_END'
p4536
NsS'QM_ID'
p4537
g4522
sS'SYSTIME'
p4538
g2
(g25
g26
(lp4539
g15
(S'\x07\xde\x05\x01\x00\x00\x00\x00\x00\x00'
p4540
tp4541
Rp4542
aNatp4543
Rp4544
(dp4545
g34
S'[)'
p4546
sbsS'QM_DESC'
p4547
Nstp4548
Rp4549
sVWCCAP-AP-2018-1
p4550
g2
(g3
g4
(dp4551
S'QM_COMMENT'
p4552
NsS'QM_DOCUMENT_URL'
p4553
NsS'QM_DOCUMENT_DATE'
p4554
NsS'QM_DOCUMENT_TITLE'
p4555
NsS'QT_TYPE'
p4556
VOff-site intercomparison
p4557
sS'OR_CODE'
p4558
VDE43O
p4559
sS'QM_START'
p4560
g15
(S'\x07\xe2\x03\x13\x00\x00\x00\x00\x00\x00'
p4561
tp4562
Rp4563
sS'QM_END'
p4564
g15
(S'\x07\xe2\x03\x17\x00\x00\x00\x00\x00\x00'
p4565
tp4566
Rp4567
sS'QM_ID'
p4568
g4550
sS'SYSTIME'
p4569
g2
(g25
g26
(lp4570
g15
(S'\x07\xde\x05\x01\x00\x00\x00\x00\x00\x00'
p4571
tp4572
Rp4573
aNatp4574
Rp4575
(dp4576
g34
S'[)'
p4577
sbsS'QM_DESC'
p4578
VIntercomparison of Absorption Photometer
p4579
stp4580
Rp4581
sVWCCAP-AP-2018-2
p4582
g2
(g3
g4
(dp4583
S'QM_COMMENT'
p4584
NsS'QM_DOCUMENT_URL'
p4585
NsS'QM_DOCUMENT_DATE'
p4586
NsS'QM_DOCUMENT_TITLE'
p4587
NsS'QT_TYPE'
p4588
VOff-site intercomparison
p4589
sS'OR_CODE'
p4590
VDE43O
p4591
sS'QM_START'
p4592
g15
(S'\x07\xe2\t\n\x00\x00\x00\x00\x00\x00'
p4593
tp4594
Rp4595
sS'QM_END'
p4596
g15
(S'\x07\xe2\t\x0e\x00\x00\x00\x00\x00\x00'
p4597
tp4598
Rp4599
sS'QM_ID'
p4600
g4582
sS'SYSTIME'
p4601
g2
(g25
g26
(lp4602
g15
(S'\x07\xde\x05\x01\x00\x00\x00\x00\x00\x00'
p4603
tp4604
Rp4605
aNatp4606
Rp4607
(dp4608
g34
S'[)'
p4609
sbsS'QM_DESC'
p4610
VIntercomparison of Absorption Photometer
p4611
stp4612
Rp4613
sVEMEP_AMAP_POP_2010
p4614
g2
(g3
g4
(dp4615
S'QM_COMMENT'
p4616
NsS'QM_DOCUMENT_URL'
p4617
Vhttps://projects.nilu.no/ccc/reports/cccr7-2011.pdf
p4618
sS'QM_DOCUMENT_DATE'
p4619
g15
(S'\x07\xdc\x02\x01\x00\x00\x00\x00\x00\x00'
p4620
tp4621
Rp4622
sS'QM_DOCUMENT_TITLE'
p4623
VAMAP/EMEP/NCP inter-laboratory study for POP analysis 2010
p4624
sS'QT_TYPE'
p4625
VInterlaboratory comparison
p4626
sS'OR_CODE'
p4627
VNO03O
p4628
sS'QM_START'
p4629
g15
(S'\x07\xda\x06\x01\x00\x00\x00\x00\x00\x00'
p4630
tp4631
Rp4632
sS'QM_END'
p4633
g15
(S'\x07\xdb\x01\x01\x00\x00\x00\x00\x00\x00'
p4634
tp4635
Rp4636
sS'QM_ID'
p4637
g4614
sS'SYSTIME'
p4638
g2
(g25
g26
(lp4639
g15
(S'\x07\xde\x05\x01\x00\x00\x00\x00\x00\x00'
p4640
tp4641
Rp4642
aNatp4643
Rp4644
(dp4645
g34
S'[)'
p4646
sbsS'QM_DESC'
p4647
VAMAP/EMEP/NCP inter-laboratory study for POP analysis 2010
p4648
stp4649
Rp4650
sVAT03L_reference_calibration_20091020
p4651
g2
(g3
g4
(dp4652
S'QM_COMMENT'
p4653
NsS'QM_DOCUMENT_URL'
p4654
NsS'QM_DOCUMENT_DATE'
p4655
NsS'QM_DOCUMENT_TITLE'
p4656
NsS'QT_TYPE'
p4657
VOff-site intercomparison
p4658
sS'OR_CODE'
p4659
VAT03L
p4660
sS'QM_START'
p4661
g15
(S'\x07\xd9\n\x14\x00\x00\x00\x00\x00\x00'
p4662
tp4663
Rp4664
sS'QM_END'
p4665
NsS'QM_ID'
p4666
g4651
sS'SYSTIME'
p4667
g2
(g25
g26
(lp4668
g15
(S'\x07\xde\x05\x01\x00\x00\x00\x00\x00\x00'
p4669
tp4670
Rp4671
aNatp4672
Rp4673
(dp4674
g34
S'[)'
p4675
sbsS'QM_DESC'
p4676
Nstp4677
Rp4678
sVJP02L_reference_calibration_20180823
p4679
g2
(g3
g4
(dp4680
S'QM_COMMENT'
p4681
NsS'QM_DOCUMENT_URL'
p4682
NsS'QM_DOCUMENT_DATE'
p4683
NsS'QM_DOCUMENT_TITLE'
p4684
NsS'QT_TYPE'
p4685
VOff-site intercomparison
p4686
sS'OR_CODE'
p4687
VJP02L
p4688
sS'QM_START'
p4689
g15
(S'\x07\xe2\x08\x17\x00\x00\x00\x00\x00\x00'
p4690
tp4691
Rp4692
sS'QM_END'
p4693
NsS'QM_ID'
p4694
g4679
sS'SYSTIME'
p4695
g2
(g25
g26
(lp4696
g15
(S'\x07\xde\x05\x01\x00\x00\x00\x00\x00\x00'
p4697
tp4698
Rp4699
aNatp4700
Rp4701
(dp4702
g34
S'[)'
p4703
sbsS'QM_DESC'
p4704
Nstp4705
Rp4706
sVWCCAP-MPSS-2021-0
p4707
g2
(g3
g4
(dp4708
S'QM_COMMENT'
p4709
NsS'QM_DOCUMENT_URL'
p4710
NsS'QM_DOCUMENT_DATE'
p4711
NsS'QM_DOCUMENT_TITLE'
p4712
NsS'QT_TYPE'
p4713
VOff-site intercomparison
p4714
sS'OR_CODE'
p4715
VDE08L
p4716
sS'QM_START'
p4717
g15
(S'\x07\xe5\x05\x06\x00\x00\x00\x00\x00\x00'
p4718
tp4719
Rp4720
sS'QM_END'
p4721
g15
(S'\x07\xe5\x05\x1f\x00\x00\x00\x00\x00\x00'
p4722
tp4723
Rp4724
sS'QM_ID'
p4725
g4707
sS'SYSTIME'
p4726
g2
(g25
g26
(lp4727
g15
(S'\x07\xde\x05\x01\x00\x00\x00\x00\x00\x00'
p4728
tp4729
Rp4730
aNatp4731
Rp4732
(dp4733
g34
S'[)'
p4734
sbsS'QM_DESC'
p4735
VIntercomparison of Mobility Particle Size Spectrometers
p4736
stp4737
Rp4738
sVWCCAP-IN-2016-1
p4739
g2
(g3
g4
(dp4740
S'QM_COMMENT'
p4741
NsS'QM_DOCUMENT_URL'
p4742
NsS'QM_DOCUMENT_DATE'
p4743
NsS'QM_DOCUMENT_TITLE'
p4744
NsS'QT_TYPE'
p4745
VOff-site intercomparison
p4746
sS'OR_CODE'
p4747
VDE43O
p4748
sS'QM_START'
p4749
g15
(S'\x07\xe0\x06\x06\x00\x00\x00\x00\x00\x00'
p4750
tp4751
Rp4752
sS'QM_END'
p4753
g15
(S'\x07\xe0\x06\n\x00\x00\x00\x00\x00\x00'
p4754
tp4755
Rp4756
sS'QM_ID'
p4757
g4739
sS'SYSTIME'
p4758
g2
(g25
g26
(lp4759
g15
(S'\x07\xde\x05\x01\x00\x00\x00\x00\x00\x00'
p4760
tp4761
Rp4762
aNatp4763
Rp4764
(dp4765
g34
S'[)'
p4766
sbsS'QM_DESC'
p4767
VIntercomparison of Integrating Nephelometer
p4768
stp4769
Rp4770
sVWCCAP-IN-2016-3
p4771
g2
(g3
g4
(dp4772
S'QM_COMMENT'
p4773
NsS'QM_DOCUMENT_URL'
p4774
NsS'QM_DOCUMENT_DATE'
p4775
NsS'QM_DOCUMENT_TITLE'
p4776
NsS'QT_TYPE'
p4777
VOff-site intercomparison
p4778
sS'OR_CODE'
p4779
VDE43O
p4780
sS'QM_START'
p4781
g15
(S'\x07\xe0\x0c\x05\x00\x00\x00\x00\x00\x00'
p4782
tp4783
Rp4784
sS'QM_END'
p4785
g15
(S'\x07\xe0\x0c\t\x00\x00\x00\x00\x00\x00'
p4786
tp4787
Rp4788
sS'QM_ID'
p4789
g4771
sS'SYSTIME'
p4790
g2
(g25
g26
(lp4791
g15
(S'\x07\xde\x05\x01\x00\x00\x00\x00\x00\x00'
p4792
tp4793
Rp4794
aNatp4795
Rp4796
(dp4797
g34
S'[)'
p4798
sbsS'QM_DESC'
p4799
VIntercomparison of Integrating Nephelometer
p4800
stp4801
Rp4802
sVJP02L_reference_calibration_20240405
p4803
g2
(g3
g4
(dp4804
S'QM_COMMENT'
p4805
NsS'QM_DOCUMENT_URL'
p4806
NsS'QM_DOCUMENT_DATE'
p4807
NsS'QM_DOCUMENT_TITLE'
p4808
NsS'QT_TYPE'
p4809
VOff-site intercomparison
p4810
sS'OR_CODE'
p4811
VJP02L
p4812
sS'QM_START'
p4813
g15
(S'\x07\xe8\x04\x05\x00\x00\x00\x00\x00\x00'
p4814
tp4815
Rp4816
sS'QM_END'
p4817
NsS'QM_ID'
p4818
g4803
sS'SYSTIME'
p4819
g2
(g25
g26
(lp4820
g15
(S'\x07\xe9\x01\n\x0b\x07\x01\x0b\x90\xfd'
p4821
tp4822
Rp4823
aNatp4824
Rp4825
(dp4826
g34
S'[)'
p4827
sbsS'QM_DESC'
p4828
Nstp4829
Rp4830
sVWCCAP-CPC-2015-1
p4831
g2
(g3
g4
(dp4832
S'QM_COMMENT'
p4833
NsS'QM_DOCUMENT_URL'
p4834
NsS'QM_DOCUMENT_DATE'
p4835
NsS'QM_DOCUMENT_TITLE'
p4836
NsS'QT_TYPE'
p4837
VOff-site intercomparison
p4838
sS'OR_CODE'
p4839
VDE43O
p4840
sS'QM_START'
p4841
g15
(S'\x07\xdf\n\x05\x00\x00\x00\x00\x00\x00'
p4842
tp4843
Rp4844
sS'QM_END'
p4845
g15
(S'\x07\xdf\n\t\x00\x00\x00\x00\x00\x00'
p4846
tp4847
Rp4848
sS'QM_ID'
p4849
g4831
sS'SYSTIME'
p4850
g2
(g25
g26
(lp4851
g15
(S'\x07\xde\x05\x01\x00\x00\x00\x00\x00\x00'
p4852
tp4853
Rp4854
aNatp4855
Rp4856
(dp4857
g34
S'[)'
p4858
sbsS'QM_DESC'
p4859
VIntercomparison of Condensation Particle Counter
p4860
stp4861
Rp4862
sVWCCAP-AP-2018-3
p4863
g2
(g3
g4
(dp4864
S'QM_COMMENT'
p4865
NsS'QM_DOCUMENT_URL'
p4866
NsS'QM_DOCUMENT_DATE'
p4867
NsS'QM_DOCUMENT_TITLE'
p4868
NsS'QT_TYPE'
p4869
VOff-site intercomparison
p4870
sS'OR_CODE'
p4871
VDE43O
p4872
sS'QM_START'
p4873
g15
(S'\x07\xe2\n\x0f\x00\x00\x00\x00\x00\x00'
p4874
tp4875
Rp4876
sS'QM_END'
p4877
g15
(S'\x07\xe2\n\x1a\x00\x00\x00\x00\x00\x00'
p4878
tp4879
Rp4880
sS'QM_ID'
p4881
g4863
sS'SYSTIME'
p4882
g2
(g25
g26
(lp4883
g15
(S'\x07\xde\x05\x01\x00\x00\x00\x00\x00\x00'
p4884
tp4885
Rp4886
aNatp4887
Rp4888
(dp4889
g34
S'[)'
p4890
sbsS'QM_DESC'
p4891
VIntercomparison of Absorption Photometer
p4892
stp4893
Rp4894
sVWCCAP-OSIA-2016-1
p4895
g2
(g3
g4
(dp4896
S'QM_COMMENT'
p4897
NsS'QM_DOCUMENT_URL'
p4898
NsS'QM_DOCUMENT_DATE'
p4899
NsS'QM_DOCUMENT_TITLE'
p4900
NsS'QT_TYPE'
p4901
VOn-site intercomparison
p4902
sS'OR_CODE'
p4903
VDE43O
p4904
sS'QM_START'
p4905
g15
(S'\x07\xe0\x01\x01\x00\x00\x00\x00\x00\x00'
p4906
tp4907
Rp4908
sS'QM_END'
p4909
g15
(S'\x07\xe0\x07\x07\x00\x00\x00\x00\x00\x00'
p4910
tp4911
Rp4912
sS'QM_ID'
p4913
g4895
sS'SYSTIME'
p4914
g2
(g25
g26
(lp4915
g15
(S'\x07\xde\x05\x01\x00\x00\x00\x00\x00\x00'
p4916
tp4917
Rp4918
aNatp4919
Rp4920
(dp4921
g34
S'[)'
p4922
sbsS'QM_DESC'
p4923
VOn-site Intercomparison & Audit
p4924
stp4925
Rp4926
sVJP02L_reference_calibration_20220801
p4927
g2
(g3
g4
(dp4928
S'QM_COMMENT'
p4929
NsS'QM_DOCUMENT_URL'
p4930
NsS'QM_DOCUMENT_DATE'
p4931
NsS'QM_DOCUMENT_TITLE'
p4932
NsS'QT_TYPE'
p4933
VOff-site intercomparison
p4934
sS'OR_CODE'
p4935
VJP02L
p4936
sS'QM_START'
p4937
g15
(S'\x07\xe6\x08\x01\x00\x00\x00\x00\x00\x00'
p4938
tp4939
Rp4940
sS'QM_END'
p4941
NsS'QM_ID'
p4942
g4927
sS'SYSTIME'
p4943
g2
(g25
g26
(lp4944
g15
(S'\x07\xe7\x0c\x12\x0c$5\x07Z\xb4'
p4945
tp4946
Rp4947
aNatp4948
Rp4949
(dp4950
g34
S'[)'
p4951
sbsS'QM_DESC'
p4952
Nstp4953
Rp4954
sVACTRIS NOx s-b-s 2012
p4955
g2
(g3
g4
(dp4956
S'QM_COMMENT'
p4957
NsS'QM_DOCUMENT_URL'
p4958
Vhttp://fp7.actris.eu/Portals/97/deliverables/PU/WP4_D4.6_M24_final_v2.pdf
p4959
sS'QM_DOCUMENT_DATE'
p4960
g15
(S'\x07\xdd\n\x0e\x00\x00\x00\x00\x00\x00'
p4961
tp4962
Rp4963
sS'QM_DOCUMENT_TITLE'
p4964
VWP4- NA4: Trace gases networking: Volatile organic carbon and nitrogen oxides Deliverable D4.6: Results of NOx side-by-side inter-comparison exercise of ambient air and test gases
p4965
sS'QT_TYPE'
p4966
VOff-site intercomparison
p4967
sS'OR_CODE'
p4968
VDE09L
p4969
sS'QM_START'
p4970
g15
(S'\x07\xdc\x0b\x10\x00\x00\x00\x00\x00\x00'
p4971
tp4972
Rp4973
sS'QM_END'
p4974
g15
(S'\x07\xdc\x0b\x10\x00\x00\x00\x00\x00\x00'
p4975
tp4976
Rp4977
sS'QM_ID'
p4978
g4955
sS'SYSTIME'
p4979
g2
(g25
g26
(lp4980
g15
(S'\x07\xde\x05\x01\x00\x00\x00\x00\x00\x00'
p4981
tp4982
Rp4983
aNatp4984
Rp4985
(dp4986
g34
S'[)'
p4987
sbsS'QM_DESC'
p4988
VWP4- NA4: Trace gases networking: Volatile organic carbon and nitrogen oxides Deliverable D4.6: Results of NOx side-by-side inter-comparison exercise of ambient air and test gases
p4989
stp4990
Rp4991
sVAT03L_reference_calibration_20120801
p4992
g2
(g3
g4
(dp4993
S'QM_COMMENT'
p4994
NsS'QM_DOCUMENT_URL'
p4995
NsS'QM_DOCUMENT_DATE'
p4996
NsS'QM_DOCUMENT_TITLE'
p4997
NsS'QT_TYPE'
p4998
VOff-site intercomparison
p4999
sS'OR_CODE'
p5000
VAT03L
p5001
sS'QM_START'
p5002
g15
(S'\x07\xdc\x08\x01\x00\x00\x00\x00\x00\x00'
p5003
tp5004
Rp5005
sS'QM_END'
p5006
NsS'QM_ID'
p5007
g4992
sS'SYSTIME'
p5008
g2
(g25
g26
(lp5009
g15
(S'\x07\xde\x05\x01\x00\x00\x00\x00\x00\x00'
p5010
tp5011
Rp5012
aNatp5013
Rp5014
(dp5015
g34
S'[)'
p5016
sbsS'QM_DESC'
p5017
Nstp5018
Rp5019
sVAT03L_reference_calibration_20140121
p5020
g2
(g3
g4
(dp5021
S'QM_COMMENT'
p5022
NsS'QM_DOCUMENT_URL'
p5023
NsS'QM_DOCUMENT_DATE'
p5024
NsS'QM_DOCUMENT_TITLE'
p5025
NsS'QT_TYPE'
p5026
VOff-site intercomparison
p5027
sS'OR_CODE'
p5028
VAT03L
p5029
sS'QM_START'
p5030
g15
(S'\x07\xde\x01\x15\x00\x00\x00\x00\x00\x00'
p5031
tp5032
Rp5033
sS'QM_END'
p5034
NsS'QM_ID'
p5035
g5020
sS'SYSTIME'
p5036
g2
(g25
g26
(lp5037
g15
(S'\x07\xde\x05\x01\x00\x00\x00\x00\x00\x00'
p5038
tp5039
Rp5040
aNatp5041
Rp5042
(dp5043
g34
S'[)'
p5044
sbsS'QM_DESC'
p5045
Nstp5046
Rp5047
sVJP02L_reference_calibration_20210409
p5048
g2
(g3
g4
(dp5049
S'QM_COMMENT'
p5050
NsS'QM_DOCUMENT_URL'
p5051
NsS'QM_DOCUMENT_DATE'
p5052
NsS'QM_DOCUMENT_TITLE'
p5053
NsS'QT_TYPE'
p5054
VOff-site intercomparison
p5055
sS'OR_CODE'
p5056
VJP02L
p5057
sS'QM_START'
p5058
g15
(S'\x07\xe5\x04\t\x00\x00\x00\x00\x00\x00'
p5059
tp5060
Rp5061
sS'QM_END'
p5062
NsS'QM_ID'
p5063
g5048
sS'SYSTIME'
p5064
g2
(g25
g26
(lp5065
g15
(S'\x07\xe7\x0c\x12\x0c$5\x07\xe0,'
p5066
tp5067
Rp5068
aNatp5069
Rp5070
(dp5071
g34
S'[)'
p5072
sbsS'QM_DESC'
p5073
Nstp5074
Rp5075
sVWCCAP-CPC-2021-1
p5076
g2
(g3
g4
(dp5077
S'QM_COMMENT'
p5078
NsS'QM_DOCUMENT_URL'
p5079
NsS'QM_DOCUMENT_DATE'
p5080
NsS'QM_DOCUMENT_TITLE'
p5081
NsS'QT_TYPE'
p5082
VOff-site intercomparison
p5083
sS'OR_CODE'
p5084
VDE43O
p5085
sS'QM_START'
p5086
g15
(S'\x07\xe5\x0b\t\x00\x00\x00\x00\x00\x00'
p5087
tp5088
Rp5089
sS'QM_END'
p5090
g15
(S'\x07\xe5\x0b\n\x00\x00\x00\x00\x00\x00'
p5091
tp5092
Rp5093
sS'QM_ID'
p5094
g5076
sS'SYSTIME'
p5095
g2
(g25
g26
(lp5096
g15
(S'\x07\xde\x05\x01\x00\x00\x00\x00\x00\x00'
p5097
tp5098
Rp5099
aNatp5100
Rp5101
(dp5102
g34
S'[)'
p5103
sbsS'QM_DESC'
p5104
VIntercomparison of Condensation Particle Counter
p5105
stp5106
Rp5107
sVWCCAP-ACSM-2016-1
p5108
g2
(g3
g4
(dp5109
S'QM_COMMENT'
p5110
NsS'QM_DOCUMENT_URL'
p5111
NsS'QM_DOCUMENT_DATE'
p5112
NsS'QM_DOCUMENT_TITLE'
p5113
NsS'QT_TYPE'
p5114
VOff-site intercomparison
p5115
sS'OR_CODE'
p5116
VDE43O
p5117
sS'QM_START'
p5118
g15
(S'\x07\xe0\x03\x07\x00\x00\x00\x00\x00\x00'
p5119
tp5120
Rp5121
sS'QM_END'
p5122
g15
(S'\x07\xe0\x03\x0b\x00\x00\x00\x00\x00\x00'
p5123
tp5124
Rp5125
sS'QM_ID'
p5126
g5108
sS'SYSTIME'
p5127
g2
(g25
g26
(lp5128
g15
(S'\x07\xde\x05\x01\x00\x00\x00\x00\x00\x00'
p5129
tp5130
Rp5131
aNatp5132
Rp5133
(dp5134
g34
S'[)'
p5135
sbsS'QM_DESC'
p5136
VIntercomparison of Aerosol Chemical Speciation Monitor
p5137
stp5138
Rp5139
sVWCCAP-MPSS-2018-6
p5140
g2
(g3
g4
(dp5141
S'QM_COMMENT'
p5142
NsS'QM_DOCUMENT_URL'
p5143
NsS'QM_DOCUMENT_DATE'
p5144
NsS'QM_DOCUMENT_TITLE'
p5145
NsS'QT_TYPE'
p5146
VOff-site intercomparison
p5147
sS'OR_CODE'
p5148
VDE43O
p5149
sS'QM_START'
p5150
g15
(S'\x07\xe2\t\x11\x00\x00\x00\x00\x00\x00'
p5151
tp5152
Rp5153
sS'QM_END'
p5154
g15
(S'\x07\xe2\t\x15\x00\x00\x00\x00\x00\x00'
p5155
tp5156
Rp5157
sS'QM_ID'
p5158
g5140
sS'SYSTIME'
p5159
g2
(g25
g26
(lp5160
g15
(S'\x07\xde\x05\x01\x00\x00\x00\x00\x00\x00'
p5161
tp5162
Rp5163
aNatp5164
Rp5165
(dp5166
g34
S'[)'
p5167
sbsS'QM_DESC'
p5168
VIntercomparison of Mobility Particle Size Spectrometer
p5169
stp5170
Rp5171
sVWCCAP-MPSS-2018-7
p5172
g2
(g3
g4
(dp5173
S'QM_COMMENT'
p5174
NsS'QM_DOCUMENT_URL'
p5175
NsS'QM_DOCUMENT_DATE'
p5176
NsS'QM_DOCUMENT_TITLE'
p5177
NsS'QT_TYPE'
p5178
VOff-site intercomparison
p5179
sS'OR_CODE'
p5180
VDE43O
p5181
sS'QM_START'
p5182
g15
(S'\x07\xe2\n\x0f\x00\x00\x00\x00\x00\x00'
p5183
tp5184
Rp5185
sS'QM_END'
p5186
g15
(S'\x07\xe2\n\x13\x00\x00\x00\x00\x00\x00'
p5187
tp5188
Rp5189
sS'QM_ID'
p5190
g5172
sS'SYSTIME'
p5191
g2
(g25
g26
(lp5192
g15
(S'\x07\xde\x05\x01\x00\x00\x00\x00\x00\x00'
p5193
tp5194
Rp5195
aNatp5196
Rp5197
(dp5198
g34
S'[)'
p5199
sbsS'QM_DESC'
p5200
VIntercomparison of Mobility Particle Size Spectrometer
p5201
stp5202
Rp5203
sVWCCAP-CPC-2021-2
p5204
g2
(g3
g4
(dp5205
S'QM_COMMENT'
p5206
NsS'QM_DOCUMENT_URL'
p5207
NsS'QM_DOCUMENT_DATE'
p5208
NsS'QM_DOCUMENT_TITLE'
p5209
NsS'QT_TYPE'
p5210
VOff-site intercomparison
p5211
sS'OR_CODE'
p5212
VDE43O
p5213
sS'QM_START'
p5214
g15
(S'\x07\xe5\x0b\x11\x00\x00\x00\x00\x00\x00'
p5215
tp5216
Rp5217
sS'QM_END'
p5218
g15
(S'\x07\xe5\x0b\x11\x00\x00\x00\x00\x00\x00'
p5219
tp5220
Rp5221
sS'QM_ID'
p5222
g5204
sS'SYSTIME'
p5223
g2
(g25
g26
(lp5224
g15
(S'\x07\xde\x05\x01\x00\x00\x00\x00\x00\x00'
p5225
tp5226
Rp5227
aNatp5228
Rp5229
(dp5230
g34
S'[)'
p5231
sbsS'QM_DESC'
p5232
VIntercomparison of Condensation Particle Counter
p5233
stp5234
Rp5235
sVAT03L_reference_calibration_20111018
p5236
g2
(g3
g4
(dp5237
S'QM_COMMENT'
p5238
NsS'QM_DOCUMENT_URL'
p5239
NsS'QM_DOCUMENT_DATE'
p5240
NsS'QM_DOCUMENT_TITLE'
p5241
NsS'QT_TYPE'
p5242
VOff-site intercomparison
p5243
sS'OR_CODE'
p5244
VAT03L
p5245
sS'QM_START'
p5246
g15
(S'\x07\xdb\n\x12\x00\x00\x00\x00\x00\x00'
p5247
tp5248
Rp5249
sS'QM_END'
p5250
NsS'QM_ID'
p5251
g5236
sS'SYSTIME'
p5252
g2
(g25
g26
(lp5253
g15
(S'\x07\xde\x05\x01\x00\x00\x00\x00\x00\x00'
p5254
tp5255
Rp5256
aNatp5257
Rp5258
(dp5259
g34
S'[)'
p5260
sbsS'QM_DESC'
p5261
Nstp5262
Rp5263
sVWCCAP-MPSS-2018-3
p5264
g2
(g3
g4
(dp5265
S'QM_COMMENT'
p5266
NsS'QM_DOCUMENT_URL'
p5267
NsS'QM_DOCUMENT_DATE'
p5268
NsS'QM_DOCUMENT_TITLE'
p5269
NsS'QT_TYPE'
p5270
VOff-site intercomparison
p5271
sS'OR_CODE'
p5272
VDE43O
p5273
sS'QM_START'
p5274
g15
(S'\x07\xe2\x04\x17\x00\x00\x00\x00\x00\x00'
p5275
tp5276
Rp5277
sS'QM_END'
p5278
g15
(S'\x07\xe2\x04\x1c\x00\x00\x00\x00\x00\x00'
p5279
tp5280
Rp5281
sS'QM_ID'
p5282
g5264
sS'SYSTIME'
p5283
g2
(g25
g26
(lp5284
g15
(S'\x07\xde\x05\x01\x00\x00\x00\x00\x00\x00'
p5285
tp5286
Rp5287
aNatp5288
Rp5289
(dp5290
g34
S'[)'
p5291
sbsS'QM_DESC'
p5292
VIntercomparison of Mobility Particle Size Spectrometer
p5293
stp5294
Rp5295
sVJP02L_reference_calibration_20210928
p5296
g2
(g3
g4
(dp5297
S'QM_COMMENT'
p5298
NsS'QM_DOCUMENT_URL'
p5299
NsS'QM_DOCUMENT_DATE'
p5300
NsS'QM_DOCUMENT_TITLE'
p5301
NsS'QT_TYPE'
p5302
VOff-site intercomparison
p5303
sS'OR_CODE'
p5304
VJP02L
p5305
sS'QM_START'
p5306
g15
(S'\x07\xe5\t\x1c\x00\x00\x00\x00\x00\x00'
p5307
tp5308
Rp5309
sS'QM_END'
p5310
NsS'QM_ID'
p5311
g5296
sS'SYSTIME'
p5312
g2
(g25
g26
(lp5313
g15
(S'\x07\xe7\x0c\x12\x0c$5\x07\xf0>'
p5314
tp5315
Rp5316
aNatp5317
Rp5318
(dp5319
g34
S'[)'
p5320
sbsS'QM_DESC'
p5321
Nstp5322
Rp5323
sVJP02L_reference_calibration_20150910
p5324
g2
(g3
g4
(dp5325
S'QM_COMMENT'
p5326
NsS'QM_DOCUMENT_URL'
p5327
NsS'QM_DOCUMENT_DATE'
p5328
NsS'QM_DOCUMENT_TITLE'
p5329
NsS'QT_TYPE'
p5330
VOff-site intercomparison
p5331
sS'OR_CODE'
p5332
VJP02L
p5333
sS'QM_START'
p5334
g15
(S'\x07\xdf\t\n\x00\x00\x00\x00\x00\x00'
p5335
tp5336
Rp5337
sS'QM_END'
p5338
NsS'QM_ID'
p5339
g5324
sS'SYSTIME'
p5340
g2
(g25
g26
(lp5341
g15
(S'\x07\xde\x05\x01\x00\x00\x00\x00\x00\x00'
p5342
tp5343
Rp5344
aNatp5345
Rp5346
(dp5347
g34
S'[)'
p5348
sbsS'QM_DESC'
p5349
Nstp5350
Rp5351
sVWCCAP-ACSM-2016-2
p5352
g2
(g3
g4
(dp5353
S'QM_COMMENT'
p5354
NsS'QM_DOCUMENT_URL'
p5355
NsS'QM_DOCUMENT_DATE'
p5356
NsS'QM_DOCUMENT_TITLE'
p5357
NsS'QT_TYPE'
p5358
VOff-site intercomparison
p5359
sS'OR_CODE'
p5360
VDE43O
p5361
sS'QM_START'
p5362
g15
(S'\x07\xe0\x03\x15\x00\x00\x00\x00\x00\x00'
p5363
tp5364
Rp5365
sS'QM_END'
p5366
g15
(S'\x07\xe0\x03\x15\x00\x00\x00\x00\x00\x00'
p5367
tp5368
Rp5369
sS'QM_ID'
p5370
g5352
sS'SYSTIME'
p5371
g2
(g25
g26
(lp5372
g15
(S'\x07\xde\x05\x01\x00\x00\x00\x00\x00\x00'
p5373
tp5374
Rp5375
aNatp5376
Rp5377
(dp5378
g34
S'[)'
p5379
sbsS'QM_DESC'
p5380
VIntercomparison of Aerosol Chemical Speciation Monitor
p5381
stp5382
Rp5383
sVJP02L_reference_calibration_20150916
p5384
g2
(g3
g4
(dp5385
S'QM_COMMENT'
p5386
NsS'QM_DOCUMENT_URL'
p5387
NsS'QM_DOCUMENT_DATE'
p5388
NsS'QM_DOCUMENT_TITLE'
p5389
NsS'QT_TYPE'
p5390
VOff-site intercomparison
p5391
sS'OR_CODE'
p5392
VJP02L
p5393
sS'QM_START'
p5394
g15
(S'\x07\xdf\t\x10\x00\x00\x00\x00\x00\x00'
p5395
tp5396
Rp5397
sS'QM_END'
p5398
NsS'QM_ID'
p5399
g5384
sS'SYSTIME'
p5400
g2
(g25
g26
(lp5401
g15
(S'\x07\xde\x05\x01\x00\x00\x00\x00\x00\x00'
p5402
tp5403
Rp5404
aNatp5405
Rp5406
(dp5407
g34
S'[)'
p5408
sbsS'QM_DESC'
p5409
Nstp5410
Rp5411
sVJP02L_reference_calibration_20190915
p5412
g2
(g3
g4
(dp5413
S'QM_COMMENT'
p5414
NsS'QM_DOCUMENT_URL'
p5415
NsS'QM_DOCUMENT_DATE'
p5416
NsS'QM_DOCUMENT_TITLE'
p5417
NsS'QT_TYPE'
p5418
VOff-site intercomparison
p5419
sS'OR_CODE'
p5420
VJP02L
p5421
sS'QM_START'
p5422
g15
(S'\x07\xe3\t\x0f\x00\x00\x00\x00\x00\x00'
p5423
tp5424
Rp5425
sS'QM_END'
p5426
NsS'QM_ID'
p5427
g5412
sS'SYSTIME'
p5428
g2
(g25
g26
(lp5429
g15
(S'\x07\xde\x05\x01\x00\x00\x00\x00\x00\x00'
p5430
tp5431
Rp5432
aNatp5433
Rp5434
(dp5435
g34
S'[)'
p5436
sbsS'QM_DESC'
p5437
Nstp5438
Rp5439
sVAT03L_reference_calibration_20120116
p5440
g2
(g3
g4
(dp5441
S'QM_COMMENT'
p5442
NsS'QM_DOCUMENT_URL'
p5443
NsS'QM_DOCUMENT_DATE'
p5444
NsS'QM_DOCUMENT_TITLE'
p5445
NsS'QT_TYPE'
p5446
VOff-site intercomparison
p5447
sS'OR_CODE'
p5448
VAT03L
p5449
sS'QM_START'
p5450
g15
(S'\x07\xdc\x01\x10\x00\x00\x00\x00\x00\x00'
p5451
tp5452
Rp5453
sS'QM_END'
p5454
NsS'QM_ID'
p5455
g5440
sS'SYSTIME'
p5456
g2
(g25
g26
(lp5457
g15
(S'\x07\xde\x05\x01\x00\x00\x00\x00\x00\x00'
p5458
tp5459
Rp5460
aNatp5461
Rp5462
(dp5463
g34
S'[)'
p5464
sbsS'QM_DESC'
p5465
Nstp5466
Rp5467
sVWCCAP-ACSM-2018-1
p5468
g2
(g3
g4
(dp5469
S'QM_COMMENT'
p5470
NsS'QM_DOCUMENT_URL'
p5471
NsS'QM_DOCUMENT_DATE'
p5472
NsS'QM_DOCUMENT_TITLE'
p5473
NsS'QT_TYPE'
p5474
VOff-site intercomparison
p5475
sS'OR_CODE'
p5476
VDE43O
p5477
sS'QM_START'
p5478
g15
(S'\x07\xe2\x0b\x13\x00\x00\x00\x00\x00\x00'
p5479
tp5480
Rp5481
sS'QM_END'
p5482
g15
(S'\x07\xe2\x0b\x17\x00\x00\x00\x00\x00\x00'
p5483
tp5484
Rp5485
sS'QM_ID'
p5486
g5468
sS'SYSTIME'
p5487
g2
(g25
g26
(lp5488
g15
(S'\x07\xde\x05\x01\x00\x00\x00\x00\x00\x00'
p5489
tp5490
Rp5491
aNatp5492
Rp5493
(dp5494
g34
S'[)'
p5495
sbsS'QM_DESC'
p5496
VIntercomparison of Aerosol Chemical Speciation Monitor
p5497
stp5498
Rp5499
sVJP02L_reference_calibration_20160307
p5500
g2
(g3
g4
(dp5501
S'QM_COMMENT'
p5502
NsS'QM_DOCUMENT_URL'
p5503
NsS'QM_DOCUMENT_DATE'
p5504
NsS'QM_DOCUMENT_TITLE'
p5505
NsS'QT_TYPE'
p5506
VOff-site intercomparison
p5507
sS'OR_CODE'
p5508
VJP02L
p5509
sS'QM_START'
p5510
g15
(S'\x07\xe0\x03\x07\x00\x00\x00\x00\x00\x00'
p5511
tp5512
Rp5513
sS'QM_END'
p5514
NsS'QM_ID'
p5515
g5500
sS'SYSTIME'
p5516
g2
(g25
g26
(lp5517
g15
(S'\x07\xde\x05\x01\x00\x00\x00\x00\x00\x00'
p5518
tp5519
Rp5520
aNatp5521
Rp5522
(dp5523
g34
S'[)'
p5524
sbsS'QM_DESC'
p5525
Nstp5526
Rp5527
sVAT03L_reference_calibration_20030812
p5528
g2
(g3
g4
(dp5529
S'QM_COMMENT'
p5530
NsS'QM_DOCUMENT_URL'
p5531
NsS'QM_DOCUMENT_DATE'
p5532
NsS'QM_DOCUMENT_TITLE'
p5533
NsS'QT_TYPE'
p5534
VOff-site intercomparison
p5535
sS'OR_CODE'
p5536
VAT03L
p5537
sS'QM_START'
p5538
g15
(S'\x07\xd3\x08\x0c\x00\x00\x00\x00\x00\x00'
p5539
tp5540
Rp5541
sS'QM_END'
p5542
NsS'QM_ID'
p5543
g5528
sS'SYSTIME'
p5544
g2
(g25
g26
(lp5545
g15
(S'\x07\xde\x05\x01\x00\x00\x00\x00\x00\x00'
p5546
tp5547
Rp5548
aNatp5549
Rp5550
(dp5551
g34
S'[)'
p5552
sbsS'QM_DESC'
p5553
Nstp5554
Rp5555
sVWCCAP-OSIA-2015-1
p5556
g2
(g3
g4
(dp5557
S'QM_COMMENT'
p5558
NsS'QM_DOCUMENT_URL'
p5559
NsS'QM_DOCUMENT_DATE'
p5560
NsS'QM_DOCUMENT_TITLE'
p5561
NsS'QT_TYPE'
p5562
VOn-site intercomparison
p5563
sS'OR_CODE'
p5564
VDE43O
p5565
sS'QM_START'
p5566
g15
(S'\x07\xdf\x07\x01\x00\x00\x00\x00\x00\x00'
p5567
tp5568
Rp5569
sS'QM_END'
p5570
g15
(S'\x07\xe0\x01\x01\x00\x00\x00\x00\x00\x00'
p5571
tp5572
Rp5573
sS'QM_ID'
p5574
g5556
sS'SYSTIME'
p5575
g2
(g25
g26
(lp5576
g15
(S'\x07\xde\x05\x01\x00\x00\x00\x00\x00\x00'
p5577
tp5578
Rp5579
aNatp5580
Rp5581
(dp5582
g34
S'[)'
p5583
sbsS'QM_DESC'
p5584
VOn-site Intercomparison & Audit
p5585
stp5586
Rp5587
sVAT03L_reference_calibration_20131107
p5588
g2
(g3
g4
(dp5589
S'QM_COMMENT'
p5590
NsS'QM_DOCUMENT_URL'
p5591
NsS'QM_DOCUMENT_DATE'
p5592
NsS'QM_DOCUMENT_TITLE'
p5593
NsS'QT_TYPE'
p5594
VOff-site intercomparison
p5595
sS'OR_CODE'
p5596
VAT03L
p5597
sS'QM_START'
p5598
g15
(S'\x07\xdd\x0b\x07\x00\x00\x00\x00\x00\x00'
p5599
tp5600
Rp5601
sS'QM_END'
p5602
NsS'QM_ID'
p5603
g5588
sS'SYSTIME'
p5604
g2
(g25
g26
(lp5605
g15
(S'\x07\xde\x05\x01\x00\x00\x00\x00\x00\x00'
p5606
tp5607
Rp5608
aNatp5609
Rp5610
(dp5611
g34
S'[)'
p5612
sbsS'QM_DESC'
p5613
Nstp5614
Rp5615
sVWCCAP-AP-2017-4
p5616
g2
(g3
g4
(dp5617
S'QM_COMMENT'
p5618
NsS'QM_DOCUMENT_URL'
p5619
NsS'QM_DOCUMENT_DATE'
p5620
NsS'QM_DOCUMENT_TITLE'
p5621
NsS'QT_TYPE'
p5622
VOff-site intercomparison
p5623
sS'OR_CODE'
p5624
VDE43O
p5625
sS'QM_START'
p5626
g15
(S'\x07\xe1\x0b\x06\x00\x00\x00\x00\x00\x00'
p5627
tp5628
Rp5629
sS'QM_END'
p5630
g15
(S'\x07\xe1\x0b\n\x00\x00\x00\x00\x00\x00'
p5631
tp5632
Rp5633
sS'QM_ID'
p5634
g5616
sS'SYSTIME'
p5635
g2
(g25
g26
(lp5636
g15
(S'\x07\xde\x05\x01\x00\x00\x00\x00\x00\x00'
p5637
tp5638
Rp5639
aNatp5640
Rp5641
(dp5642
g34
S'[)'
p5643
sbsS'QM_DESC'
p5644
VIntercomparison of Absorption Photometer
p5645
stp5646
Rp5647
sVAT03L_reference_calibration_20100407
p5648
g2
(g3
g4
(dp5649
S'QM_COMMENT'
p5650
NsS'QM_DOCUMENT_URL'
p5651
NsS'QM_DOCUMENT_DATE'
p5652
NsS'QM_DOCUMENT_TITLE'
p5653
NsS'QT_TYPE'
p5654
VOff-site intercomparison
p5655
sS'OR_CODE'
p5656
VAT03L
p5657
sS'QM_START'
p5658
g15
(S'\x07\xda\x04\x07\x00\x00\x00\x00\x00\x00'
p5659
tp5660
Rp5661
sS'QM_END'
p5662
NsS'QM_ID'
p5663
g5648
sS'SYSTIME'
p5664
g2
(g25
g26
(lp5665
g15
(S'\x07\xde\x05\x01\x00\x00\x00\x00\x00\x00'
p5666
tp5667
Rp5668
aNatp5669
Rp5670
(dp5671
g34
S'[)'
p5672
sbsS'QM_DESC'
p5673
Nstp5674
Rp5675
sVWCCAP-IN-2015-1
p5676
g2
(g3
g4
(dp5677
S'QM_COMMENT'
p5678
NsS'QM_DOCUMENT_URL'
p5679
NsS'QM_DOCUMENT_DATE'
p5680
NsS'QM_DOCUMENT_TITLE'
p5681
NsS'QT_TYPE'
p5682
VOff-site intercomparison
p5683
sS'OR_CODE'
p5684
VDE43O
p5685
sS'QM_START'
p5686
g15
(S'\x07\xdf\x0b\x17\x00\x00\x00\x00\x00\x00'
p5687
tp5688
Rp5689
sS'QM_END'
p5690
g15
(S'\x07\xdf\x0b\x1c\x00\x00\x00\x00\x00\x00'
p5691
tp5692
Rp5693
sS'QM_ID'
p5694
g5676
sS'SYSTIME'
p5695
g2
(g25
g26
(lp5696
g15
(S'\x07\xde\x05\x01\x00\x00\x00\x00\x00\x00'
p5697
tp5698
Rp5699
aNatp5700
Rp5701
(dp5702
g34
S'[)'
p5703
sbsS'QM_DESC'
p5704
VIntercomparison of Integrating Nephelometer
p5705
stp5706
Rp5707
sVWCCAP-CPC-2017-5
p5708
g2
(g3
g4
(dp5709
S'QM_COMMENT'
p5710
NsS'QM_DOCUMENT_URL'
p5711
NsS'QM_DOCUMENT_DATE'
p5712
NsS'QM_DOCUMENT_TITLE'
p5713
NsS'QT_TYPE'
p5714
VOff-site intercomparison
p5715
sS'OR_CODE'
p5716
VDE43O
p5717
sS'QM_START'
p5718
g15
(S'\x07\xe1\n\t\x00\x00\x00\x00\x00\x00'
p5719
tp5720
Rp5721
sS'QM_END'
p5722
g15
(S'\x07\xe1\n\r\x00\x00\x00\x00\x00\x00'
p5723
tp5724
Rp5725
sS'QM_ID'
p5726
g5708
sS'SYSTIME'
p5727
g2
(g25
g26
(lp5728
g15
(S'\x07\xde\x05\x01\x00\x00\x00\x00\x00\x00'
p5729
tp5730
Rp5731
aNatp5732
Rp5733
(dp5734
g34
S'[)'
p5735
sbsS'QM_DESC'
p5736
VIntercomparison of Condensation Particle Counter
p5737
stp5738
Rp5739
sVJP02L_reference_calibration_20230511
p5740
g2
(g3
g4
(dp5741
S'QM_COMMENT'
p5742
NsS'QM_DOCUMENT_URL'
p5743
NsS'QM_DOCUMENT_DATE'
p5744
NsS'QM_DOCUMENT_TITLE'
p5745
NsS'QT_TYPE'
p5746
VOff-site intercomparison
p5747
sS'OR_CODE'
p5748
VJP02L
p5749
sS'QM_START'
p5750
g15
(S'\x07\xe7\x05\x0b\x00\x00\x00\x00\x00\x00'
p5751
tp5752
Rp5753
sS'QM_END'
p5754
NsS'QM_ID'
p5755
g5740
sS'SYSTIME'
p5756
g2
(g25
g26
(lp5757
g15
(S'\x07\xe8\x01\x08\x0b6\x10\x05`\x1c'
p5758
tp5759
Rp5760
aNatp5761
Rp5762
(dp5763
g34
S'[)'
p5764
sbsS'QM_DESC'
p5765
Nstp5766
Rp5767
sVWCCAP-AP-2017-2
p5768
g2
(g3
g4
(dp5769
S'QM_COMMENT'
p5770
NsS'QM_DOCUMENT_URL'
p5771
NsS'QM_DOCUMENT_DATE'
p5772
NsS'QM_DOCUMENT_TITLE'
p5773
NsS'QT_TYPE'
p5774
VOff-site intercomparison
p5775
sS'OR_CODE'
p5776
VDE43O
p5777
sS'QM_START'
p5778
g15
(S'\x07\xe1\t\x04\x00\x00\x00\x00\x00\x00'
p5779
tp5780
Rp5781
sS'QM_END'
p5782
g15
(S'\x07\xe1\t\n\x00\x00\x00\x00\x00\x00'
p5783
tp5784
Rp5785
sS'QM_ID'
p5786
g5768
sS'SYSTIME'
p5787
g2
(g25
g26
(lp5788
g15
(S'\x07\xde\x05\x01\x00\x00\x00\x00\x00\x00'
p5789
tp5790
Rp5791
aNatp5792
Rp5793
(dp5794
g34
S'[)'
p5795
sbsS'QM_DESC'
p5796
VIntercomparison of Absorption Photometer
p5797
stp5798
Rp5799
sVJP02L_reference_calibration_20231011
p5800
g2
(g3
g4
(dp5801
S'QM_COMMENT'
p5802
NsS'QM_DOCUMENT_URL'
p5803
NsS'QM_DOCUMENT_DATE'
p5804
NsS'QM_DOCUMENT_TITLE'
p5805
NsS'QT_TYPE'
p5806
VOff-site intercomparison
p5807
sS'OR_CODE'
p5808
VJP02L
p5809
sS'QM_START'
p5810
g15
(S'\x07\xe7\n\x0b\x00\x00\x00\x00\x00\x00'
p5811
tp5812
Rp5813
sS'QM_END'
p5814
NsS'QM_ID'
p5815
g5800
sS'SYSTIME'
p5816
g2
(g25
g26
(lp5817
g15
(S'\x07\xe9\x01\n\x0b\x07\x01\x0br\xfd'
p5818
tp5819
Rp5820
aNatp5821
Rp5822
(dp5823
g34
S'[)'
p5824
sbsS'QM_DESC'
p5825
Nstp5826
Rp5827
sVWCCAP-CPC-2015-2
p5828
g2
(g3
g4
(dp5829
S'QM_COMMENT'
p5830
NsS'QM_DOCUMENT_URL'
p5831
NsS'QM_DOCUMENT_DATE'
p5832
NsS'QM_DOCUMENT_TITLE'
p5833
NsS'QT_TYPE'
p5834
VOff-site intercomparison
p5835
sS'OR_CODE'
p5836
VDE43O
p5837
sS'QM_START'
p5838
g15
(S'\x07\xdf\n\x1a\x00\x00\x00\x00\x00\x00'
p5839
tp5840
Rp5841
sS'QM_END'
p5842
g15
(S'\x07\xdf\n\x1e\x00\x00\x00\x00\x00\x00'
p5843
tp5844
Rp5845
sS'QM_ID'
p5846
g5828
sS'SYSTIME'
p5847
g2
(g25
g26
(lp5848
g15
(S'\x07\xde\x05\x01\x00\x00\x00\x00\x00\x00'
p5849
tp5850
Rp5851
aNatp5852
Rp5853
(dp5854
g34
S'[)'
p5855
sbsS'QM_DESC'
p5856
VIntercomparison of Condensation Particle Counter
p5857
stp5858
Rp5859
sVWCCAP-AP-2017-1
p5860
g2
(g3
g4
(dp5861
S'QM_COMMENT'
p5862
NsS'QM_DOCUMENT_URL'
p5863
NsS'QM_DOCUMENT_DATE'
p5864
NsS'QM_DOCUMENT_TITLE'
p5865
NsS'QT_TYPE'
p5866
VOff-site intercomparison
p5867
sS'OR_CODE'
p5868
VDE43O
p5869
sS'QM_START'
p5870
g15
(S'\x07\xe1\x01\x10\x00\x00\x00\x00\x00\x00'
p5871
tp5872
Rp5873
sS'QM_END'
p5874
g15
(S'\x07\xe1\x01\x14\x00\x00\x00\x00\x00\x00'
p5875
tp5876
Rp5877
sS'QM_ID'
p5878
g5860
sS'SYSTIME'
p5879
g2
(g25
g26
(lp5880
g15
(S'\x07\xde\x05\x01\x00\x00\x00\x00\x00\x00'
p5881
tp5882
Rp5883
aNatp5884
Rp5885
(dp5886
g34
S'[)'
p5887
sbsS'QM_DESC'
p5888
VIntercomparison of Absorption Photometer
p5889
stp5890
Rp5891
sVWCCAP-OSIA-2017-1
p5892
g2
(g3
g4
(dp5893
S'QM_COMMENT'
p5894
NsS'QM_DOCUMENT_URL'
p5895
NsS'QM_DOCUMENT_DATE'
p5896
NsS'QM_DOCUMENT_TITLE'
p5897
NsS'QT_TYPE'
p5898
VOn-site intercomparison
p5899
sS'OR_CODE'
p5900
VDE43O
p5901
sS'QM_START'
p5902
g15
(S'\x07\xe1\x01\x01\x00\x00\x00\x00\x00\x00'
p5903
tp5904
Rp5905
sS'QM_END'
p5906
g15
(S'\x07\xe1\x07\x01\x00\x00\x00\x00\x00\x00'
p5907
tp5908
Rp5909
sS'QM_ID'
p5910
g5892
sS'SYSTIME'
p5911
g2
(g25
g26
(lp5912
g15
(S'\x07\xde\x05\x01\x00\x00\x00\x00\x00\x00'
p5913
tp5914
Rp5915
aNatp5916
Rp5917
(dp5918
g34
S'[)'
p5919
sbsS'QM_DESC'
p5920
VOn-site Intercomparison & Audit
p5921
stp5922
Rp5923
sVWCCAP-MPSS-2017-3
p5924
g2
(g3
g4
(dp5925
S'QM_COMMENT'
p5926
NsS'QM_DOCUMENT_URL'
p5927
NsS'QM_DOCUMENT_DATE'
p5928
NsS'QM_DOCUMENT_TITLE'
p5929
NsS'QT_TYPE'
p5930
VOff-site intercomparison
p5931
sS'OR_CODE'
p5932
VDE43O
p5933
sS'QM_START'
p5934
g15
(S'\x07\xe1\x05\x0f\x00\x00\x00\x00\x00\x00'
p5935
tp5936
Rp5937
sS'QM_END'
p5938
g15
(S'\x07\xe1\x05\x13\x00\x00\x00\x00\x00\x00'
p5939
tp5940
Rp5941
sS'QM_ID'
p5942
g5924
sS'SYSTIME'
p5943
g2
(g25
g26
(lp5944
g15
(S'\x07\xde\x05\x01\x00\x00\x00\x00\x00\x00'
p5945
tp5946
Rp5947
aNatp5948
Rp5949
(dp5950
g34
S'[)'
p5951
sbsS'QM_DESC'
p5952
VIntercomparison of Mobility Particle Size Spectrometer
p5953
stp5954
Rp5955
sVWCCAP-MPSS-2017-2
p5956
g2
(g3
g4
(dp5957
S'QM_COMMENT'
p5958
NsS'QM_DOCUMENT_URL'
p5959
NsS'QM_DOCUMENT_DATE'
p5960
NsS'QM_DOCUMENT_TITLE'
p5961
NsS'QT_TYPE'
p5962
VOff-site intercomparison
p5963
sS'OR_CODE'
p5964
VDE43O
p5965
sS'QM_START'
p5966
g15
(S'\x07\xe1\x03\r\x00\x00\x00\x00\x00\x00'
p5967
tp5968
Rp5969
sS'QM_END'
p5970
g15
(S'\x07\xe1\x03\x11\x00\x00\x00\x00\x00\x00'
p5971
tp5972
Rp5973
sS'QM_ID'
p5974
g5956
sS'SYSTIME'
p5975
g2
(g25
g26
(lp5976
g15
(S'\x07\xde\x05\x01\x00\x00\x00\x00\x00\x00'
p5977
tp5978
Rp5979
aNatp5980
Rp5981
(dp5982
g34
S'[)'
p5983
sbsS'QM_DESC'
p5984
VIntercomparison of Mobility Particle Size Spectrometer
p5985
stp5986
Rp5987
sVWCCAP-MPSS-2017-1
p5988
g2
(g3
g4
(dp5989
S'QM_COMMENT'
p5990
NsS'QM_DOCUMENT_URL'
p5991
NsS'QM_DOCUMENT_DATE'
p5992
NsS'QM_DOCUMENT_TITLE'
p5993
NsS'QT_TYPE'
p5994
VOff-site intercomparison
p5995
sS'OR_CODE'
p5996
VDE43O
p5997
sS'QM_START'
p5998
g15
(S'\x07\xe1\x01\x17\x00\x00\x00\x00\x00\x00'
p5999
tp6000
Rp6001
sS'QM_END'
p6002
g15
(S'\x07\xe1\x01\x1b\x00\x00\x00\x00\x00\x00'
p6003
tp6004
Rp6005
sS'QM_ID'
p6006
g5988
sS'SYSTIME'
p6007
g2
(g25
g26
(lp6008
g15
(S'\x07\xde\x05\x01\x00\x00\x00\x00\x00\x00'
p6009
tp6010
Rp6011
aNatp6012
Rp6013
(dp6014
g34
S'[)'
p6015
sbsS'QM_DESC'
p6016
VIntercomparison of Mobility Particle Size Spectrometer
p6017
stp6018
Rp6019
sVJP02L_reference_calibration_20221206
p6020
g2
(g3
g4
(dp6021
S'QM_COMMENT'
p6022
NsS'QM_DOCUMENT_URL'
p6023
NsS'QM_DOCUMENT_DATE'
p6024
NsS'QM_DOCUMENT_TITLE'
p6025
NsS'QT_TYPE'
p6026
VOff-site intercomparison
p6027
sS'OR_CODE'
p6028
VJP02L
p6029
sS'QM_START'
p6030
g15
(S'\x07\xe6\x0c\x06\x00\x00\x00\x00\x00\x00'
p6031
tp6032
Rp6033
sS'QM_END'
p6034
NsS'QM_ID'
p6035
g6020
sS'SYSTIME'
p6036
g2
(g25
g26
(lp6037
g15
(S'\x07\xe7\x0c\x12\x0c\x0f:\x0b\x9as'
p6038
tp6039
Rp6040
aNatp6041
Rp6042
(dp6043
g34
S'[)'
p6044
sbsS'QM_DESC'
p6045
Nstp6046
Rp6047
sVWCCAP-MPSS-2017-6
p6048
g2
(g3
g4
(dp6049
S'QM_COMMENT'
p6050
NsS'QM_DOCUMENT_URL'
p6051
NsS'QM_DOCUMENT_DATE'
p6052
NsS'QM_DOCUMENT_TITLE'
p6053
NsS'QT_TYPE'
p6054
VOff-site intercomparison
p6055
sS'OR_CODE'
p6056
VDE43O
p6057
sS'QM_START'
p6058
g15
(S'\x07\xe1\x0b\r\x00\x00\x00\x00\x00\x00'
p6059
tp6060
Rp6061
sS'QM_END'
p6062
g15
(S'\x07\xe1\x0b\x11\x00\x00\x00\x00\x00\x00'
p6063
tp6064
Rp6065
sS'QM_ID'
p6066
g6048
sS'SYSTIME'
p6067
g2
(g25
g26
(lp6068
g15
(S'\x07\xde\x05\x01\x00\x00\x00\x00\x00\x00'
p6069
tp6070
Rp6071
aNatp6072
Rp6073
(dp6074
g34
S'[)'
p6075
sbsS'QM_DESC'
p6076
VIntercomparison of Mobility Particle Size Spectrometer
p6077
stp6078
Rp6079
sVWCCAP-MPSS-2017-5
p6080
g2
(g3
g4
(dp6081
S'QM_COMMENT'
p6082
NsS'QM_DOCUMENT_URL'
p6083
NsS'QM_DOCUMENT_DATE'
p6084
NsS'QM_DOCUMENT_TITLE'
p6085
NsS'QT_TYPE'
p6086
VOff-site intercomparison
p6087
sS'OR_CODE'
p6088
VDE43O
p6089
sS'QM_START'
p6090
g15
(S'\x07\xe1\n\t\x00\x00\x00\x00\x00\x00'
p6091
tp6092
Rp6093
sS'QM_END'
p6094
g15
(S'\x07\xe1\n\r\x00\x00\x00\x00\x00\x00'
p6095
tp6096
Rp6097
sS'QM_ID'
p6098
g6080
sS'SYSTIME'
p6099
g2
(g25
g26
(lp6100
g15
(S'\x07\xde\x05\x01\x00\x00\x00\x00\x00\x00'
p6101
tp6102
Rp6103
aNatp6104
Rp6105
(dp6106
g34
S'[)'
p6107
sbsS'QM_DESC'
p6108
VIntercomparison of Mobility Particle Size Spectrometer
p6109
stp6110
Rp6111
sVEMEP-ACTRIS-Levoglucosan-2013
p6112
g2
(g3
g4
(dp6113
S'QM_COMMENT'
p6114
NsS'QM_DOCUMENT_URL'
p6115
NsS'QM_DOCUMENT_DATE'
p6116
NsS'QM_DOCUMENT_TITLE'
p6117
NsS'QT_TYPE'
p6118
VInterlaboratory comparison
p6119
sS'OR_CODE'
p6120
VNO03O
p6121
sS'QM_START'
p6122
g15
(S'\x07\xdd\x01\x01\x00\x00\x00\x00\x00\x00'
p6123
tp6124
Rp6125
sS'QM_END'
p6126
g15
(S'\x07\xde\x01\x01\x00\x00\x00\x00\x00\x00'
p6127
tp6128
Rp6129
sS'QM_ID'
p6130
g6112
sS'SYSTIME'
p6131
g2
(g25
g26
(lp6132
g15
(S'\x07\xde\x05\x01\x00\x00\x00\x00\x00\x00'
p6133
tp6134
Rp6135
aNatp6136
Rp6137
(dp6138
g34
S'[)'
p6139
sbsS'QM_DESC'
p6140
VEMEP QA based on raw data from ACTRIS inter-comparison
p6141
stp6142
Rp6143
sVEMEP31
p6144
g2
(g3
g4
(dp6145
S'QM_COMMENT'
p6146
NsS'QM_DOCUMENT_URL'
p6147
Vhttp://www.nilu.no/projects/ccc/qameasure/emep31.pdf
p6148
sS'QM_DOCUMENT_DATE'
p6149
g15
(S'\x07\xde\x03\x08\x00\x00\x00\x00\x00\x00'
p6150
tp6151
Rp6152
sS'QM_DOCUMENT_TITLE'
p6153
VSummary statistics EMEP laboratory intercalibration Round 31
p6154
sS'QT_TYPE'
p6155
VInterlaboratory comparison
p6156
sS'OR_CODE'
p6157
VNO03O
p6158
sS'QM_START'
p6159
g15
(S'\x07\xdd\x08\x01\x00\x00\x00\x00\x00\x00'
p6160
tp6161
Rp6162
sS'QM_END'
p6163
g15
(S'\x07\xde\x01\x01\x00\x00\x00\x00\x00\x00'
p6164
tp6165
Rp6166
sS'QM_ID'
p6167
g6144
sS'SYSTIME'
p6168
g2
(g25
g26
(lp6169
g15
(S'\x07\xe8\t\x13\x08 (\x03"\xf8'
p6170
tp6171
Rp6172
aNatp6173
Rp6174
(dp6175
g34
S'[)'
p6176
sbsS'QM_DESC'
p6177
V31st EMEP laboratory intercomparison
p6178
stp6179
Rp6180
sVAT03L_reference_calibration_20020603
p6181
g2
(g3
g4
(dp6182
S'QM_COMMENT'
p6183
NsS'QM_DOCUMENT_URL'
p6184
NsS'QM_DOCUMENT_DATE'
p6185
NsS'QM_DOCUMENT_TITLE'
p6186
NsS'QT_TYPE'
p6187
VOff-site intercomparison
p6188
sS'OR_CODE'
p6189
VAT03L
p6190
sS'QM_START'
p6191
g15
(S'\x07\xd2\x06\x03\x00\x00\x00\x00\x00\x00'
p6192
tp6193
Rp6194
sS'QM_END'
p6195
NsS'QM_ID'
p6196
g6181
sS'SYSTIME'
p6197
g2
(g25
g26
(lp6198
g15
(S'\x07\xde\x05\x01\x00\x00\x00\x00\x00\x00'
p6199
tp6200
Rp6201
aNatp6202
Rp6203
(dp6204
g34
S'[)'
p6205
sbsS'QM_DESC'
p6206
Nstp6207
Rp6208
sVJP02L_reference_calibration_20210510
p6209
g2
(g3
g4
(dp6210
S'QM_COMMENT'
p6211
NsS'QM_DOCUMENT_URL'
p6212
NsS'QM_DOCUMENT_DATE'
p6213
NsS'QM_DOCUMENT_TITLE'
p6214
NsS'QT_TYPE'
p6215
VOff-site intercomparison
p6216
sS'OR_CODE'
p6217
VJP02L
p6218
sS'QM_START'
p6219
g15
(S'\x07\xe5\x05\n\x00\x00\x00\x00\x00\x00'
p6220
tp6221
Rp6222
sS'QM_END'
p6223
NsS'QM_ID'
p6224
g6209
sS'SYSTIME'
p6225
g2
(g25
g26
(lp6226
g15
(S'\x07\xe7\x0c\x12\x0c\x0f:\x0b3\xd8'
p6227
tp6228
Rp6229
aNatp6230
Rp6231
(dp6232
g34
S'[)'
p6233
sbsS'QM_DESC'
p6234
Nstp6235
Rp6236
sVIT06L_reference_calibration_20220309
p6237
g2
(g3
g4
(dp6238
S'QM_COMMENT'
p6239
NsS'QM_DOCUMENT_URL'
p6240
NsS'QM_DOCUMENT_DATE'
p6241
NsS'QM_DOCUMENT_TITLE'
p6242
NsS'QT_TYPE'
p6243
VOff-site intercomparison
p6244
sS'OR_CODE'
p6245
VIT06L
p6246
sS'QM_START'
p6247
g15
(S'\x07\xe6\x03\t\x00\x00\x00\x00\x00\x00'
p6248
tp6249
Rp6250
sS'QM_END'
p6251
NsS'QM_ID'
p6252
g6237
sS'SYSTIME'
p6253
g2
(g25
g26
(lp6254
g15
(S'\x07\xe8\x02\x02\x0c\x05\x1c\x03\xe4\t'
p6255
tp6256
Rp6257
aNatp6258
Rp6259
(dp6260
g34
S'[)'
p6261
sbsS'QM_DESC'
p6262
Nstp6263
Rp6264
sVAT03L_reference_calibration_20180116
p6265
g2
(g3
g4
(dp6266
S'QM_COMMENT'
p6267
NsS'QM_DOCUMENT_URL'
p6268
NsS'QM_DOCUMENT_DATE'
p6269
NsS'QM_DOCUMENT_TITLE'
p6270
NsS'QT_TYPE'
p6271
VOff-site intercomparison
p6272
sS'OR_CODE'
p6273
VAT03L
p6274
sS'QM_START'
p6275
g15
(S'\x07\xe2\x01\x10\x00\x00\x00\x00\x00\x00'
p6276
tp6277
Rp6278
sS'QM_END'
p6279
NsS'QM_ID'
p6280
g6265
sS'SYSTIME'
p6281
g2
(g25
g26
(lp6282
g15
(S'\x07\xde\x05\x01\x00\x00\x00\x00\x00\x00'
p6283
tp6284
Rp6285
aNatp6286
Rp6287
(dp6288
g34
S'[)'
p6289
sbsS'QM_DESC'
p6290
Nstp6291
Rp6292
sVWCCAP-IN-2017-2
p6293
g2
(g3
g4
(dp6294
S'QM_COMMENT'
p6295
NsS'QM_DOCUMENT_URL'
p6296
NsS'QM_DOCUMENT_DATE'
p6297
NsS'QM_DOCUMENT_TITLE'
p6298
NsS'QT_TYPE'
p6299
VOff-site intercomparison
p6300
sS'OR_CODE'
p6301
VDE43O
p6302
sS'QM_START'
p6303
g15
(S'\x07\xe1\t\x04\x00\x00\x00\x00\x00\x00'
p6304
tp6305
Rp6306
sS'QM_END'
p6307
g15
(S'\x07\xe1\t\x18\x00\x00\x00\x00\x00\x00'
p6308
tp6309
Rp6310
sS'QM_ID'
p6311
g6293
sS'SYSTIME'
p6312
g2
(g25
g26
(lp6313
g15
(S'\x07\xde\x05\x01\x00\x00\x00\x00\x00\x00'
p6314
tp6315
Rp6316
aNatp6317
Rp6318
(dp6319
g34
S'[)'
p6320
sbsS'QM_DESC'
p6321
VIntercomparison of Integrating Nephelometer
p6322
stp6323
Rp6324
sVAT03L_reference_calibration_20010703
p6325
g2
(g3
g4
(dp6326
S'QM_COMMENT'
p6327
NsS'QM_DOCUMENT_URL'
p6328
NsS'QM_DOCUMENT_DATE'
p6329
NsS'QM_DOCUMENT_TITLE'
p6330
NsS'QT_TYPE'
p6331
VOff-site intercomparison
p6332
sS'OR_CODE'
p6333
VAT03L
p6334
sS'QM_START'
p6335
g15
(S'\x07\xd1\x07\x03\x00\x00\x00\x00\x00\x00'
p6336
tp6337
Rp6338
sS'QM_END'
p6339
NsS'QM_ID'
p6340
g6325
sS'SYSTIME'
p6341
g2
(g25
g26
(lp6342
g15
(S'\x07\xde\x05\x01\x00\x00\x00\x00\x00\x00'
p6343
tp6344
Rp6345
aNatp6346
Rp6347
(dp6348
g34
S'[)'
p6349
sbsS'QM_DESC'
p6350
Nstp6351
Rp6352
sVWCCAP-CPC-2020-4
p6353
g2
(g3
g4
(dp6354
S'QM_COMMENT'
p6355
NsS'QM_DOCUMENT_URL'
p6356
NsS'QM_DOCUMENT_DATE'
p6357
NsS'QM_DOCUMENT_TITLE'
p6358
NsS'QT_TYPE'
p6359
VOff-site intercomparison
p6360
sS'OR_CODE'
p6361
VDE43O
p6362
sS'QM_START'
p6363
g15
(S'\x07\xe4\n\x1b\x00\x00\x00\x00\x00\x00'
p6364
tp6365
Rp6366
sS'QM_END'
p6367
g15
(S'\x07\xe4\x0c\x08\x00\x00\x00\x00\x00\x00'
p6368
tp6369
Rp6370
sS'QM_ID'
p6371
g6353
sS'SYSTIME'
p6372
g2
(g25
g26
(lp6373
g15
(S'\x07\xde\x05\x01\x00\x00\x00\x00\x00\x00'
p6374
tp6375
Rp6376
aNatp6377
Rp6378
(dp6379
g34
S'[)'
p6380
sbsS'QM_DESC'
p6381
VIntercomparison of Condensation Particle Counter
p6382
stp6383
Rp6384
sVWCCAP-CPC-2019-5
p6385
g2
(g3
g4
(dp6386
S'QM_COMMENT'
p6387
NsS'QM_DOCUMENT_URL'
p6388
NsS'QM_DOCUMENT_DATE'
p6389
NsS'QM_DOCUMENT_TITLE'
p6390
NsS'QT_TYPE'
p6391
VOff-site intercomparison
p6392
sS'OR_CODE'
p6393
VDE43O
p6394
sS'QM_START'
p6395
g15
(S'\x07\xe3\n\x07\x00\x00\x00\x00\x00\x00'
p6396
tp6397
Rp6398
sS'QM_END'
p6399
g15
(S'\x07\xe3\n\x0b\x00\x00\x00\x00\x00\x00'
p6400
tp6401
Rp6402
sS'QM_ID'
p6403
g6385
sS'SYSTIME'
p6404
g2
(g25
g26
(lp6405
g15
(S'\x07\xde\x05\x01\x00\x00\x00\x00\x00\x00'
p6406
tp6407
Rp6408
aNatp6409
Rp6410
(dp6411
g34
S'[)'
p6412
sbsS'QM_DESC'
p6413
VIntercomparison of Condensation Particle Counter
p6414
stp6415
Rp6416
sVWCCAP-AP-2019-1c+d
p6417
g2
(g3
g4
(dp6418
S'QM_COMMENT'
p6419
NsS'QM_DOCUMENT_URL'
p6420
NsS'QM_DOCUMENT_DATE'
p6421
NsS'QM_DOCUMENT_TITLE'
p6422
NsS'QT_TYPE'
p6423
VOff-site intercomparison
p6424
sS'OR_CODE'
p6425
VDE43O
p6426
sS'QM_START'
p6427
g15
(S'\x07\xe3\x01\x15\x00\x00\x00\x00\x00\x00'
p6428
tp6429
Rp6430
sS'QM_END'
p6431
g15
(S'\x07\xe3\x01\x17\x00\x00\x00\x00\x00\x00'
p6432
tp6433
Rp6434
sS'QM_ID'
p6435
g6417
sS'SYSTIME'
p6436
g2
(g25
g26
(lp6437
g15
(S'\x07\xde\x05\x01\x00\x00\x00\x00\x00\x00'
p6438
tp6439
Rp6440
aNatp6441
Rp6442
(dp6443
g34
S'[)'
p6444
sbsS'QM_DESC'
p6445
VIntercomparison of Absorption Photometer
p6446
stp6447
Rp6448
sVEMEP42
p6449
g2
(g3
g4
(dp6450
S'QM_COMMENT'
p6451
NsS'QM_DOCUMENT_URL'
p6452
Vhttps://emep-ccc.nilu.no/static/qameasure/emep42.pdf
p6453
sS'QM_DOCUMENT_DATE'
p6454
g15
(S'\x07\xe9\x01\x19\x00\x00\x00\x00\x00\x00'
p6455
tp6456
Rp6457
sS'QM_DOCUMENT_TITLE'
p6458
VSummary statistics EMEP laboratory intercalibration Round 42
p6459
sS'QT_TYPE'
p6460
VInterlaboratory comparison
p6461
sS'OR_CODE'
p6462
VNO03O
p6463
sS'QM_START'
p6464
g15
(S'\x07\xe8\n\x01\x00\x00\x00\x00\x00\x00'
p6465
tp6466
Rp6467
sS'QM_END'
p6468
g15
(S'\x07\xe9\x01\x19\x00\x00\x00\x00\x00\x00'
p6469
tp6470
Rp6471
sS'QM_ID'
p6472
g6449
sS'SYSTIME'
p6473
g2
(g25
g26
(lp6474
g15
(S'\x07\xe9\x03\x05\x0e:%\x02\x80\xf6'
p6475
tp6476
Rp6477
aNatp6478
Rp6479
(dp6480
g34
S'[)'
p6481
sbsS'QM_DESC'
p6482
V42th EMEP laboratory intercomparison
p6483
stp6484
Rp6485
sVWCCAP-CPC-2019-3
p6486
g2
(g3
g4
(dp6487
S'QM_COMMENT'
p6488
NsS'QM_DOCUMENT_URL'
p6489
NsS'QM_DOCUMENT_DATE'
p6490
NsS'QM_DOCUMENT_TITLE'
p6491
NsS'QT_TYPE'
p6492
VOff-site intercomparison
p6493
sS'OR_CODE'
p6494
VDE43O
p6495
sS'QM_START'
p6496
g15
(S'\x07\xe3\x06\x03\x00\x00\x00\x00\x00\x00'
p6497
tp6498
Rp6499
sS'QM_END'
p6500
g15
(S'\x07\xe3\x06\x07\x00\x00\x00\x00\x00\x00'
p6501
tp6502
Rp6503
sS'QM_ID'
p6504
g6486
sS'SYSTIME'
p6505
g2
(g25
g26
(lp6506
g15
(S'\x07\xde\x05\x01\x00\x00\x00\x00\x00\x00'
p6507
tp6508
Rp6509
aNatp6510
Rp6511
(dp6512
g34
S'[)'
p6513
sbsS'QM_DESC'
p6514
VIntercomparison of Condensation Particle Counter
p6515
stp6516
Rp6517
sVWCCAP-CPC-2019-2
p6518
g2
(g3
g4
(dp6519
S'QM_COMMENT'
p6520
NsS'QM_DOCUMENT_URL'
p6521
NsS'QM_DOCUMENT_DATE'
p6522
NsS'QM_DOCUMENT_TITLE'
p6523
NsS'QT_TYPE'
p6524
VOff-site intercomparison
p6525
sS'OR_CODE'
p6526
VDE43O
p6527
sS'QM_START'
p6528
g15
(S'\x07\xe3\x05\x14\x00\x00\x00\x00\x00\x00'
p6529
tp6530
Rp6531
sS'QM_END'
p6532
g15
(S'\x07\xe3\x05\x18\x00\x00\x00\x00\x00\x00'
p6533
tp6534
Rp6535
sS'QM_ID'
p6536
g6518
sS'SYSTIME'
p6537
g2
(g25
g26
(lp6538
g15
(S'\x07\xde\x05\x01\x00\x00\x00\x00\x00\x00'
p6539
tp6540
Rp6541
aNatp6542
Rp6543
(dp6544
g34
S'[)'
p6545
sbsS'QM_DESC'
p6546
VIntercomparison of Condensation Particle Counter
p6547
stp6548
Rp6549
sVWCCAP-MPSS-2020-2
p6550
g2
(g3
g4
(dp6551
S'QM_COMMENT'
p6552
NsS'QM_DOCUMENT_URL'
p6553
NsS'QM_DOCUMENT_DATE'
p6554
NsS'QM_DOCUMENT_TITLE'
p6555
NsS'QT_TYPE'
p6556
VOff-site intercomparison
p6557
sS'OR_CODE'
p6558
VDE43O
p6559
sS'QM_START'
p6560
g15
(S'\x07\xe4\x02\x1c\x00\x00\x00\x00\x00\x00'
p6561
tp6562
Rp6563
sS'QM_END'
p6564
g15
(S'\x07\xe4\x04\x01\x00\x00\x00\x00\x00\x00'
p6565
tp6566
Rp6567
sS'QM_ID'
p6568
g6550
sS'SYSTIME'
p6569
g2
(g25
g26
(lp6570
g15
(S'\x07\xde\x05\x01\x00\x00\x00\x00\x00\x00'
p6571
tp6572
Rp6573
aNatp6574
Rp6575
(dp6576
g34
S'[)'
p6577
sbsS'QM_DESC'
p6578
VIntercomparison of Mobility Particle Size Spectrometer
p6579
stp6580
Rp6581
sVHU01L_reference_calibration_20161113
p6582
g2
(g3
g4
(dp6583
S'QM_COMMENT'
p6584
NsS'QM_DOCUMENT_URL'
p6585
NsS'QM_DOCUMENT_DATE'
p6586
NsS'QM_DOCUMENT_TITLE'
p6587
NsS'QT_TYPE'
p6588
VOff-site intercomparison
p6589
sS'OR_CODE'
p6590
VHU01L
p6591
sS'QM_START'
p6592
g15
(S'\x07\xe0\x0b\r\x00\x00\x00\x00\x00\x00'
p6593
tp6594
Rp6595
sS'QM_END'
p6596
NsS'QM_ID'
p6597
g6582
sS'SYSTIME'
p6598
g2
(g25
g26
(lp6599
g15
(S'\x07\xde\x05\x01\x00\x00\x00\x00\x00\x00'
p6600
tp6601
Rp6602
aNatp6603
Rp6604
(dp6605
g34
S'[)'
p6606
sbsS'QM_DESC'
p6607
Nstp6608
Rp6609
sVAMOHA 3
p6610
g2
(g3
g4
(dp6611
S'QM_COMMENT'
p6612
NsS'QM_DOCUMENT_URL'
p6613
Vhttps://doi.org/10.1029/2001JD001357
p6614
sS'QM_DOCUMENT_DATE'
p6615
g15
(S'\x07\xd2\n\x0f\x00\x00\x00\x00\x00\x00'
p6616
tp6617
Rp6618
sS'QM_DOCUMENT_TITLE'
p6619
VAccurate Measurements of Hydrocarbons in the Atmosphere (AMOHA): Three European intercomparisons
p6620
sS'QT_TYPE'
p6621
VInterlaboratory comparison
p6622
sS'OR_CODE'
p6623
VGB15L
p6624
sS'QM_START'
p6625
g15
(S'\x07\xce\x0c\x01\x00\x00\x00\x00\x00\x00'
p6626
tp6627
Rp6628
sS'QM_END'
p6629
g15
(S'\x07\xcf\n\x01\x00\x00\x00\x00\x00\x00'
p6630
tp6631
Rp6632
sS'QM_ID'
p6633
g6610
sS'SYSTIME'
p6634
g2
(g25
g26
(lp6635
g15
(S'\x07\xde\x05\x01\x00\x00\x00\x00\x00\x00'
p6636
tp6637
Rp6638
aNatp6639
Rp6640
(dp6641
g34
S'[)'
p6642
sbsS'QM_DESC'
p6643
VInternational intercomparison to evaluate the analytical performance of European laboratories making frequent ambient NMHC measurements
p6644
stp6645
Rp6646
sVUS06L_reference_calibration_20210414
p6647
g2
(g3
g4
(dp6648
S'QM_COMMENT'
p6649
NsS'QM_DOCUMENT_URL'
p6650
NsS'QM_DOCUMENT_DATE'
p6651
NsS'QM_DOCUMENT_TITLE'
p6652
NsS'QT_TYPE'
p6653
VOff-site intercomparison
p6654
sS'OR_CODE'
p6655
VUS06L
p6656
sS'QM_START'
p6657
g15
(S'\x07\xe5\x04\x0e\x00\x00\x00\x00\x00\x00'
p6658
tp6659
Rp6660
sS'QM_END'
p6661
NsS'QM_ID'
p6662
g6647
sS'SYSTIME'
p6663
g2
(g25
g26
(lp6664
g15
(S'\x07\xe9\t\x13\x070&\n\x84\xda'
p6665
tp6666
Rp6667
aNatp6668
Rp6669
(dp6670
g34
S'[)'
p6671
sbsS'QM_DESC'
p6672
Nstp6673
Rp6674
sVUS06L_reference_calibration_20210415
p6675
g2
(g3
g4
(dp6676
S'QM_COMMENT'
p6677
NsS'QM_DOCUMENT_URL'
p6678
NsS'QM_DOCUMENT_DATE'
p6679
NsS'QM_DOCUMENT_TITLE'
p6680
NsS'QT_TYPE'
p6681
VOff-site intercomparison
p6682
sS'OR_CODE'
p6683
VUS06L
p6684
sS'QM_START'
p6685
g15
(S'\x07\xe5\x04\x0f\x00\x00\x00\x00\x00\x00'
p6686
tp6687
Rp6688
sS'QM_END'
p6689
NsS'QM_ID'
p6690
g6675
sS'SYSTIME'
p6691
g2
(g25
g26
(lp6692
g15
(S'\x07\xe8\x01\x1a\r\x1a\x1a\x05\xc0g'
p6693
tp6694
Rp6695
aNatp6696
Rp6697
(dp6698
g34
S'[)'
p6699
sbsS'QM_DESC'
p6700
Nstp6701
Rp6702
sVAT03L_reference_calibration_20050329
p6703
g2
(g3
g4
(dp6704
S'QM_COMMENT'
p6705
NsS'QM_DOCUMENT_URL'
p6706
NsS'QM_DOCUMENT_DATE'
p6707
NsS'QM_DOCUMENT_TITLE'
p6708
NsS'QT_TYPE'
p6709
VOff-site intercomparison
p6710
sS'OR_CODE'
p6711
VAT03L
p6712
sS'QM_START'
p6713
g15
(S'\x07\xd5\x03\x1d\x00\x00\x00\x00\x00\x00'
p6714
tp6715
Rp6716
sS'QM_END'
p6717
NsS'QM_ID'
p6718
g6703
sS'SYSTIME'
p6719
g2
(g25
g26
(lp6720
g15
(S'\x07\xde\x05\x01\x00\x00\x00\x00\x00\x00'
p6721
tp6722
Rp6723
aNatp6724
Rp6725
(dp6726
g34
S'[)'
p6727
sbsS'QM_DESC'
p6728
Nstp6729
Rp6730
sVJP02L_reference_calibration_20211110
p6731
g2
(g3
g4
(dp6732
S'QM_COMMENT'
p6733
NsS'QM_DOCUMENT_URL'
p6734
NsS'QM_DOCUMENT_DATE'
p6735
NsS'QM_DOCUMENT_TITLE'
p6736
NsS'QT_TYPE'
p6737
VOff-site intercomparison
p6738
sS'OR_CODE'
p6739
VJP02L
p6740
sS'QM_START'
p6741
g15
(S'\x07\xe5\x0b\n\x00\x00\x00\x00\x00\x00'
p6742
tp6743
Rp6744
sS'QM_END'
p6745
NsS'QM_ID'
p6746
g6731
sS'SYSTIME'
p6747
g2
(g25
g26
(lp6748
g15
(S'\x07\xe7\x0c\x12\x0c\x0f:\x0bW\x93'
p6749
tp6750
Rp6751
aNatp6752
Rp6753
(dp6754
g34
S'[)'
p6755
sbsS'QM_DESC'
p6756
Nstp6757
Rp6758
sVJP02L_reference_calibration_20160929
p6759
g2
(g3
g4
(dp6760
S'QM_COMMENT'
p6761
NsS'QM_DOCUMENT_URL'
p6762
NsS'QM_DOCUMENT_DATE'
p6763
NsS'QM_DOCUMENT_TITLE'
p6764
NsS'QT_TYPE'
p6765
VOff-site intercomparison
p6766
sS'OR_CODE'
p6767
VJP02L
p6768
sS'QM_START'
p6769
g15
(S'\x07\xe0\t\x1d\x00\x00\x00\x00\x00\x00'
p6770
tp6771
Rp6772
sS'QM_END'
p6773
NsS'QM_ID'
p6774
g6759
sS'SYSTIME'
p6775
g2
(g25
g26
(lp6776
g15
(S'\x07\xde\x05\x01\x00\x00\x00\x00\x00\x00'
p6777
tp6778
Rp6779
aNatp6780
Rp6781
(dp6782
g34
S'[)'
p6783
sbsS'QM_DESC'
p6784
Nstp6785
Rp6786
sVJP02L_reference_calibration_20170922
p6787
g2
(g3
g4
(dp6788
S'QM_COMMENT'
p6789
NsS'QM_DOCUMENT_URL'
p6790
NsS'QM_DOCUMENT_DATE'
p6791
NsS'QM_DOCUMENT_TITLE'
p6792
NsS'QT_TYPE'
p6793
VOff-site intercomparison
p6794
sS'OR_CODE'
p6795
VJP02L
p6796
sS'QM_START'
p6797
g15
(S'\x07\xe1\t\x16\x00\x00\x00\x00\x00\x00'
p6798
tp6799
Rp6800
sS'QM_END'
p6801
NsS'QM_ID'
p6802
g6787
sS'SYSTIME'
p6803
g2
(g25
g26
(lp6804
g15
(S'\x07\xde\x05\x01\x00\x00\x00\x00\x00\x00'
p6805
tp6806
Rp6807
aNatp6808
Rp6809
(dp6810
g34
S'[)'
p6811
sbsS'QM_DESC'
p6812
Nstp6813
Rp6814
sVAT03L_reference_calibration_20011017
p6815
g2
(g3
g4
(dp6816
S'QM_COMMENT'
p6817
NsS'QM_DOCUMENT_URL'
p6818
NsS'QM_DOCUMENT_DATE'
p6819
NsS'QM_DOCUMENT_TITLE'
p6820
NsS'QT_TYPE'
p6821
VOff-site intercomparison
p6822
sS'OR_CODE'
p6823
VAT03L
p6824
sS'QM_START'
p6825
g15
(S'\x07\xd1\n\x11\x00\x00\x00\x00\x00\x00'
p6826
tp6827
Rp6828
sS'QM_END'
p6829
NsS'QM_ID'
p6830
g6815
sS'SYSTIME'
p6831
g2
(g25
g26
(lp6832
g15
(S'\x07\xde\x05\x01\x00\x00\x00\x00\x00\x00'
p6833
tp6834
Rp6835
aNatp6836
Rp6837
(dp6838
g34
S'[)'
p6839
sbsS'QM_DESC'
p6840
Nstp6841
Rp6842
sVAT03L_reference_calibration_20090415
p6843
g2
(g3
g4
(dp6844
S'QM_COMMENT'
p6845
NsS'QM_DOCUMENT_URL'
p6846
NsS'QM_DOCUMENT_DATE'
p6847
NsS'QM_DOCUMENT_TITLE'
p6848
NsS'QT_TYPE'
p6849
VOff-site intercomparison
p6850
sS'OR_CODE'
p6851
VAT03L
p6852
sS'QM_START'
p6853
g15
(S'\x07\xd9\x04\x0f\x00\x00\x00\x00\x00\x00'
p6854
tp6855
Rp6856
sS'QM_END'
p6857
NsS'QM_ID'
p6858
g6843
sS'SYSTIME'
p6859
g2
(g25
g26
(lp6860
g15
(S'\x07\xde\x05\x01\x00\x00\x00\x00\x00\x00'
p6861
tp6862
Rp6863
aNatp6864
Rp6865
(dp6866
g34
S'[)'
p6867
sbsS'QM_DESC'
p6868
Nstp6869
Rp6870
sVJP02L_reference_calibration_20200827
p6871
g2
(g3
g4
(dp6872
S'QM_COMMENT'
p6873
NsS'QM_DOCUMENT_URL'
p6874
NsS'QM_DOCUMENT_DATE'
p6875
NsS'QM_DOCUMENT_TITLE'
p6876
NsS'QT_TYPE'
p6877
VOff-site intercomparison
p6878
sS'OR_CODE'
p6879
VJP02L
p6880
sS'QM_START'
p6881
g15
(S'\x07\xe4\x08\x1b\x00\x00\x00\x00\x00\x00'
p6882
tp6883
Rp6884
sS'QM_END'
p6885
NsS'QM_ID'
p6886
g6871
sS'SYSTIME'
p6887
g2
(g25
g26
(lp6888
g15
(S'\x07\xe6\x0c\x01\x0f\x047\x07`I'
p6889
tp6890
Rp6891
aNatp6892
Rp6893
(dp6894
g34
S'[)'
p6895
sbsS'QM_DESC'
p6896
Nstp6897
Rp6898
sVJP02L_reference_calibration_20170921
p6899
g2
(g3
g4
(dp6900
S'QM_COMMENT'
p6901
NsS'QM_DOCUMENT_URL'
p6902
NsS'QM_DOCUMENT_DATE'
p6903
NsS'QM_DOCUMENT_TITLE'
p6904
NsS'QT_TYPE'
p6905
VOff-site intercomparison
p6906
sS'OR_CODE'
p6907
VJP02L
p6908
sS'QM_START'
p6909
g15
(S'\x07\xe1\t\x15\x00\x00\x00\x00\x00\x00'
p6910
tp6911
Rp6912
sS'QM_END'
p6913
NsS'QM_ID'
p6914
g6899
sS'SYSTIME'
p6915
g2
(g25
g26
(lp6916
g15
(S'\x07\xde\x05\x01\x00\x00\x00\x00\x00\x00'
p6917
tp6918
Rp6919
aNatp6920
Rp6921
(dp6922
g34
S'[)'
p6923
sbsS'QM_DESC'
p6924
Nstp6925
Rp6926
sVAT03L_reference_calibration_20190108
p6927
g2
(g3
g4
(dp6928
S'QM_COMMENT'
p6929
NsS'QM_DOCUMENT_URL'
p6930
NsS'QM_DOCUMENT_DATE'
p6931
NsS'QM_DOCUMENT_TITLE'
p6932
NsS'QT_TYPE'
p6933
VOff-site intercomparison
p6934
sS'OR_CODE'
p6935
VAT03L
p6936
sS'QM_START'
p6937
g15
(S'\x07\xe2\x01\x10\x00\x00\x00\x00\x00\x00'
p6938
tp6939
Rp6940
sS'QM_END'
p6941
NsS'QM_ID'
p6942
g6927
sS'SYSTIME'
p6943
g2
(g25
g26
(lp6944
g15
(S'\x07\xde\x05\x01\x00\x00\x00\x00\x00\x00'
p6945
tp6946
Rp6947
aNatp6948
Rp6949
(dp6950
g34
S'[)'
p6951
sbsS'QM_DESC'
p6952
Nstp6953
Rp6954
sVAT03L_reference_calibration_20100120
p6955
g2
(g3
g4
(dp6956
S'QM_COMMENT'
p6957
NsS'QM_DOCUMENT_URL'
p6958
NsS'QM_DOCUMENT_DATE'
p6959
NsS'QM_DOCUMENT_TITLE'
p6960
NsS'QT_TYPE'
p6961
VOff-site intercomparison
p6962
sS'OR_CODE'
p6963
VAT03L
p6964
sS'QM_START'
p6965
g15
(S'\x07\xda\x01\x14\x00\x00\x00\x00\x00\x00'
p6966
tp6967
Rp6968
sS'QM_END'
p6969
NsS'QM_ID'
p6970
g6955
sS'SYSTIME'
p6971
g2
(g25
g26
(lp6972
g15
(S'\x07\xde\x05\x01\x00\x00\x00\x00\x00\x00'
p6973
tp6974
Rp6975
aNatp6976
Rp6977
(dp6978
g34
S'[)'
p6979
sbsS'QM_DESC'
p6980
Nstp6981
Rp6982
sVJP02L_reference_calibration_20210521
p6983
g2
(g3
g4
(dp6984
S'QM_COMMENT'
p6985
NsS'QM_DOCUMENT_URL'
p6986
NsS'QM_DOCUMENT_DATE'
p6987
NsS'QM_DOCUMENT_TITLE'
p6988
NsS'QT_TYPE'
p6989
VOff-site intercomparison
p6990
sS'OR_CODE'
p6991
VJP02L
p6992
sS'QM_START'
p6993
g15
(S'\x07\xe5\x05\x15\x00\x00\x00\x00\x00\x00'
p6994
tp6995
Rp6996
sS'QM_END'
p6997
NsS'QM_ID'
p6998
g6983
sS'SYSTIME'
p6999
g2
(g25
g26
(lp7000
g15
(S'\x07\xe6\x0c\x01\x0e7\x0c\x03i\xf2'
p7001
tp7002
Rp7003
aNatp7004
Rp7005
(dp7006
g34
S'[)'
p7007
sbsS'QM_DESC'
p7008
Nstp7009
Rp7010
sVWCCAP-AP-2020-1
p7011
g2
(g3
g4
(dp7012
S'QM_COMMENT'
p7013
NsS'QM_DOCUMENT_URL'
p7014
NsS'QM_DOCUMENT_DATE'
p7015
NsS'QM_DOCUMENT_TITLE'
p7016
NsS'QT_TYPE'
p7017
VOff-site intercomparison
p7018
sS'OR_CODE'
p7019
VDE43O
p7020
sS'QM_START'
p7021
g15
(S'\x07\xe4\x01\x1b\x00\x00\x00\x00\x00\x00'
p7022
tp7023
Rp7024
sS'QM_END'
p7025
g15
(S'\x07\xe4\x01\x1f\x00\x00\x00\x00\x00\x00'
p7026
tp7027
Rp7028
sS'QM_ID'
p7029
g7011
sS'SYSTIME'
p7030
g2
(g25
g26
(lp7031
g15
(S'\x07\xde\x05\x01\x00\x00\x00\x00\x00\x00'
p7032
tp7033
Rp7034
aNatp7035
Rp7036
(dp7037
g34
S'[)'
p7038
sbsS'QM_DESC'
p7039
VIntercomparison of Absorption Photometer
p7040
stp7041
Rp7042
sVJP02L_reference_calibration_20210428
p7043
g2
(g3
g4
(dp7044
S'QM_COMMENT'
p7045
NsS'QM_DOCUMENT_URL'
p7046
NsS'QM_DOCUMENT_DATE'
p7047
NsS'QM_DOCUMENT_TITLE'
p7048
NsS'QT_TYPE'
p7049
VOff-site intercomparison
p7050
sS'OR_CODE'
p7051
VJP02L
p7052
sS'QM_START'
p7053
g15
(S'\x07\xe5\x04\x1c\x00\x00\x00\x00\x00\x00'
p7054
tp7055
Rp7056
sS'QM_END'
p7057
NsS'QM_ID'
p7058
g7043
sS'SYSTIME'
p7059
g2
(g25
g26
(lp7060
g15
(S"\x07\xe6\x0c\x01\x0e1'\x03\xf4\xe7"
p7061
tp7062
Rp7063
aNatp7064
Rp7065
(dp7066
g34
S'[)'
p7067
sbsS'QM_DESC'
p7068
Nstp7069
Rp7070
sVWCCAP-AP-2020-3
p7071
g2
(g3
g4
(dp7072
S'QM_COMMENT'
p7073
NsS'QM_DOCUMENT_URL'
p7074
NsS'QM_DOCUMENT_DATE'
p7075
NsS'QM_DOCUMENT_TITLE'
p7076
NsS'QT_TYPE'
p7077
VOff-site intercomparison
p7078
sS'OR_CODE'
p7079
VDE43O
p7080
sS'QM_START'
p7081
g15
(S'\x07\xe4\n\x17\x00\x00\x00\x00\x00\x00'
p7082
tp7083
Rp7084
sS'QM_END'
p7085
g15
(S'\x07\xe4\n\x1e\x00\x00\x00\x00\x00\x00'
p7086
tp7087
Rp7088
sS'QM_ID'
p7089
g7071
sS'SYSTIME'
p7090
g2
(g25
g26
(lp7091
g15
(S'\x07\xde\x05\x01\x00\x00\x00\x00\x00\x00'
p7092
tp7093
Rp7094
aNatp7095
Rp7096
(dp7097
g34
S'[)'
p7098
sbsS'QM_DESC'
p7099
VIntercomparison of Absorption Photometer
p7100
stp7101
Rp7102
sVWCCAP-AP-2020-2
p7103
g2
(g3
g4
(dp7104
S'QM_COMMENT'
p7105
NsS'QM_DOCUMENT_URL'
p7106
NsS'QM_DOCUMENT_DATE'
p7107
NsS'QM_DOCUMENT_TITLE'
p7108
NsS'QT_TYPE'
p7109
VOff-site intercomparison
p7110
sS'OR_CODE'
p7111
VDE43O
p7112
sS'QM_START'
p7113
g15
(S'\x07\xe4\x06\x1d\x00\x00\x00\x00\x00\x00'
p7114
tp7115
Rp7116
sS'QM_END'
p7117
g15
(S'\x07\xe4\x07\x03\x00\x00\x00\x00\x00\x00'
p7118
tp7119
Rp7120
sS'QM_ID'
p7121
g7103
sS'SYSTIME'
p7122
g2
(g25
g26
(lp7123
g15
(S'\x07\xde\x05\x01\x00\x00\x00\x00\x00\x00'
p7124
tp7125
Rp7126
aNatp7127
Rp7128
(dp7129
g34
S'[)'
p7130
sbsS'QM_DESC'
p7131
VIntercomparison of Absorption Photometer
p7132
stp7133
Rp7134
sVAT03L_reference_calibration_20001205
p7135
g2
(g3
g4
(dp7136
S'QM_COMMENT'
p7137
NsS'QM_DOCUMENT_URL'
p7138
NsS'QM_DOCUMENT_DATE'
p7139
NsS'QM_DOCUMENT_TITLE'
p7140
NsS'QT_TYPE'
p7141
VOff-site intercomparison
p7142
sS'OR_CODE'
p7143
VAT03L
p7144
sS'QM_START'
p7145
g15
(S'\x07\xd0\x0c\x05\x00\x00\x00\x00\x00\x00'
p7146
tp7147
Rp7148
sS'QM_END'
p7149
NsS'QM_ID'
p7150
g7135
sS'SYSTIME'
p7151
g2
(g25
g26
(lp7152
g15
(S'\x07\xde\x05\x01\x00\x00\x00\x00\x00\x00'
p7153
tp7154
Rp7155
aNatp7156
Rp7157
(dp7158
g34
S'[)'
p7159
sbsS'QM_DESC'
p7160
Nstp7161
Rp7162
sVJP02L_reference_calibration_20190522
p7163
g2
(g3
g4
(dp7164
S'QM_COMMENT'
p7165
NsS'QM_DOCUMENT_URL'
p7166
NsS'QM_DOCUMENT_DATE'
p7167
NsS'QM_DOCUMENT_TITLE'
p7168
NsS'QT_TYPE'
p7169
VOff-site intercomparison
p7170
sS'OR_CODE'
p7171
VJP02L
p7172
sS'QM_START'
p7173
g15
(S'\x07\xe3\x05\x16\x00\x00\x00\x00\x00\x00'
p7174
tp7175
Rp7176
sS'QM_END'
p7177
NsS'QM_ID'
p7178
g7163
sS'SYSTIME'
p7179
g2
(g25
g26
(lp7180
g15
(S'\x07\xde\x05\x01\x00\x00\x00\x00\x00\x00'
p7181
tp7182
Rp7183
aNatp7184
Rp7185
(dp7186
g34
S'[)'
p7187
sbsS'QM_DESC'
p7188
Nstp7189
Rp7190
sVUS06L_reference_calibration_20150101
p7191
g2
(g3
g4
(dp7192
S'QM_COMMENT'
p7193
NsS'QM_DOCUMENT_URL'
p7194
NsS'QM_DOCUMENT_DATE'
p7195
NsS'QM_DOCUMENT_TITLE'
p7196
NsS'QT_TYPE'
p7197
VOn-site intercomparison
p7198
sS'OR_CODE'
p7199
VJP02L
p7200
sS'QM_START'
p7201
g15
(S'\x07\xdf\x01\x01\x00\x00\x00\x00\x00\x00'
p7202
tp7203
Rp7204
sS'QM_END'
p7205
NsS'QM_ID'
p7206
g7191
sS'SYSTIME'
p7207
g2
(g25
g26
(lp7208
g15
(S'\x07\xde\x05\x01\x00\x00\x00\x00\x00\x00'
p7209
tp7210
Rp7211
aNatp7212
Rp7213
(dp7214
g34
S'[)'
p7215
sbsS'QM_DESC'
p7216
Nstp7217
Rp7218
sVUS06L_reference_calibration_20151217
p7219
g2
(g3
g4
(dp7220
S'QM_COMMENT'
p7221
NsS'QM_DOCUMENT_URL'
p7222
NsS'QM_DOCUMENT_DATE'
p7223
NsS'QM_DOCUMENT_TITLE'
p7224
NsS'QT_TYPE'
p7225
VOn-site intercomparison
p7226
sS'OR_CODE'
p7227
VUS06L
p7228
sS'QM_START'
p7229
g15
(S'\x07\xdf\x0c\x11\x00\x00\x00\x00\x00\x00'
p7230
tp7231
Rp7232
sS'QM_END'
p7233
NsS'QM_ID'
p7234
g7219
sS'SYSTIME'
p7235
g2
(g25
g26
(lp7236
g15
(S'\x07\xde\x05\x01\x00\x00\x00\x00\x00\x00'
p7237
tp7238
Rp7239
aNatp7240
Rp7241
(dp7242
g34
S'[)'
p7243
sbsS'QM_DESC'
p7244
Nstp7245
Rp7246
sVJP02L_reference_calibration_20210303
p7247
g2
(g3
g4
(dp7248
S'QM_COMMENT'
p7249
NsS'QM_DOCUMENT_URL'
p7250
NsS'QM_DOCUMENT_DATE'
p7251
NsS'QM_DOCUMENT_TITLE'
p7252
NsS'QT_TYPE'
p7253
VOff-site intercomparison
p7254
sS'OR_CODE'
p7255
VJP02L
p7256
sS'QM_START'
p7257
g15
(S'\x07\xe5\x03\x03\x00\x00\x00\x00\x00\x00'
p7258
tp7259
Rp7260
sS'QM_END'
p7261
NsS'QM_ID'
p7262
g7247
sS'SYSTIME'
p7263
g2
(g25
g26
(lp7264
g15
(S'\x07\xe7\x0c\x12\x0c$5\x06\xe9~'
p7265
tp7266
Rp7267
aNatp7268
Rp7269
(dp7270
g34
S'[)'
p7271
sbsS'QM_DESC'
p7272
Nstp7273
Rp7274
sVJP02L_reference_calibration_20210907
p7275
g2
(g3
g4
(dp7276
S'QM_COMMENT'
p7277
NsS'QM_DOCUMENT_URL'
p7278
NsS'QM_DOCUMENT_DATE'
p7279
NsS'QM_DOCUMENT_TITLE'
p7280
NsS'QT_TYPE'
p7281
VOff-site intercomparison
p7282
sS'OR_CODE'
p7283
VJP02L
p7284
sS'QM_START'
p7285
g15
(S'\x07\xe5\t\x07\x00\x00\x00\x00\x00\x00'
p7286
tp7287
Rp7288
sS'QM_END'
p7289
NsS'QM_ID'
p7290
g7275
sS'SYSTIME'
p7291
g2
(g25
g26
(lp7292
g15
(S'\x07\xe8\x01\x08\x0b5\x1c\x0c\x0fA'
p7293
tp7294
Rp7295
aNatp7296
Rp7297
(dp7298
g34
S'[)'
p7299
sbsS'QM_DESC'
p7300
Nstp7301
Rp7302
sVECAC-OCEC-2023-1
p7303
g2
(g3
g4
(dp7304
S'QM_COMMENT'
p7305
NsS'QM_DOCUMENT_URL'
p7306
NsS'QM_DOCUMENT_DATE'
p7307
NsS'QM_DOCUMENT_TITLE'
p7308
VResults of the inter-laboratory comparison exercise for TC and EC measurements (ref.: OCEC-2023-1)
p7309
sS'QT_TYPE'
p7310
VInterlaboratory comparison
p7311
sS'OR_CODE'
p7312
VIT14O
p7313
sS'QM_START'
p7314
g15
(S'\x07\xe7\x02\x11\x00\x00\x00\x00\x00\x00'
p7315
tp7316
Rp7317
sS'QM_END'
p7318
g15
(S'\x07\xe7\x04\x01\x00\x00\x00\x00\x00\x00'
p7319
tp7320
Rp7321
sS'QM_ID'
p7322
g7303
sS'SYSTIME'
p7323
g2
(g25
g26
(lp7324
g15
(S'\x07\xe8\x0b\r\x0f9\x1d\x02\x80\xda'
p7325
tp7326
Rp7327
aNatp7328
Rp7329
(dp7330
g34
S'[)'
p7331
sbsS'QM_DESC'
p7332
VECAC Inter-laboratory comparison exercise for TC and EC measurements
p7333
stp7334
Rp7335
sVJP02L_reference_calibration_20240513
p7336
g2
(g3
g4
(dp7337
S'QM_COMMENT'
p7338
NsS'QM_DOCUMENT_URL'
p7339
NsS'QM_DOCUMENT_DATE'
p7340
NsS'QM_DOCUMENT_TITLE'
p7341
NsS'QT_TYPE'
p7342
VOff-site intercomparison
p7343
sS'OR_CODE'
p7344
VJP02L
p7345
sS'QM_START'
p7346
g15
(S'\x07\xe8\x05\r\x00\x00\x00\x00\x00\x00'
p7347
tp7348
Rp7349
sS'QM_END'
p7350
NsS'QM_ID'
p7351
g7336
sS'SYSTIME'
p7352
g2
(g25
g26
(lp7353
g15
(S'\x07\xe9\x01\n\x0b\x07\x01\x0b\x9a\\'
p7354
tp7355
Rp7356
aNatp7357
Rp7358
(dp7359
g34
S'[)'
p7360
sbsS'QM_DESC'
p7361
Nstp7362
Rp7363
sVUS06L_reference_calibration_20151218
p7364
g2
(g3
g4
(dp7365
S'QM_COMMENT'
p7366
NsS'QM_DOCUMENT_URL'
p7367
NsS'QM_DOCUMENT_DATE'
p7368
NsS'QM_DOCUMENT_TITLE'
p7369
NsS'QT_TYPE'
p7370
VOff-site intercomparison
p7371
sS'OR_CODE'
p7372
VUS06L
p7373
sS'QM_START'
p7374
g15
(S'\x07\xdf\x0c\x12\x00\x00\x00\x00\x00\x00'
p7375
tp7376
Rp7377
sS'QM_END'
p7378
NsS'QM_ID'
p7379
g7364
sS'SYSTIME'
p7380
g2
(g25
g26
(lp7381
g15
(S'\x07\xe9\x0c\x03\r\x020\x05\xc6\xdc'
p7382
tp7383
Rp7384
aNatp7385
Rp7386
(dp7387
g34
S'[)'
p7388
sbsS'QM_DESC'
p7389
Nstp7390
Rp7391
sVAT03L_reference_calibration_20110519
p7392
g2
(g3
g4
(dp7393
S'QM_COMMENT'
p7394
NsS'QM_DOCUMENT_URL'
p7395
NsS'QM_DOCUMENT_DATE'
p7396
NsS'QM_DOCUMENT_TITLE'
p7397
NsS'QT_TYPE'
p7398
VOff-site intercomparison
p7399
sS'OR_CODE'
p7400
VAT03L
p7401
sS'QM_START'
p7402
g15
(S'\x07\xdb\x05\x13\x00\x00\x00\x00\x00\x00'
p7403
tp7404
Rp7405
sS'QM_END'
p7406
NsS'QM_ID'
p7407
g7392
sS'SYSTIME'
p7408
g2
(g25
g26
(lp7409
g15
(S'\x07\xde\x05\x01\x00\x00\x00\x00\x00\x00'
p7410
tp7411
Rp7412
aNatp7413
Rp7414
(dp7415
g34
S'[)'
p7416
sbsS'QM_DESC'
p7417
Nstp7418
Rp7419
sVEMEP33
p7420
g2
(g3
g4
(dp7421
S'QM_COMMENT'
p7422
NsS'QM_DOCUMENT_URL'
p7423
Vhttp://www.nilu.no/projects/ccc/qameasure/emep33.pdf
p7424
sS'QM_DOCUMENT_DATE'
p7425
g15
(S'\x07\xe0\x03\x08\x00\x00\x00\x00\x00\x00'
p7426
tp7427
Rp7428
sS'QM_DOCUMENT_TITLE'
p7429
VSummary statistics EMEP laboratory intercalibration Round 33
p7430
sS'QT_TYPE'
p7431
VInterlaboratory comparison
p7432
sS'OR_CODE'
p7433
VNO03O
p7434
sS'QM_START'
p7435
g15
(S'\x07\xdf\x08\x01\x00\x00\x00\x00\x00\x00'
p7436
tp7437
Rp7438
sS'QM_END'
p7439
g15
(S'\x07\xe0\x01\x01\x00\x00\x00\x00\x00\x00'
p7440
tp7441
Rp7442
sS'QM_ID'
p7443
g7420
sS'SYSTIME'
p7444
g2
(g25
g26
(lp7445
g15
(S'\x07\xe8\t\x13\x08 (\x03"\xf8'
p7446
tp7447
Rp7448
aNatp7449
Rp7450
(dp7451
g34
S'[)'
p7452
sbsS'QM_DESC'
p7453
V33rd EMEP laboratory intercomparison
p7454
stp7455
Rp7456
sVWCCAP-OSIA-2017-2
p7457
g2
(g3
g4
(dp7458
S'QM_COMMENT'
p7459
NsS'QM_DOCUMENT_URL'
p7460
NsS'QM_DOCUMENT_DATE'
p7461
NsS'QM_DOCUMENT_TITLE'
p7462
NsS'QT_TYPE'
p7463
VOn-site intercomparison
p7464
sS'OR_CODE'
p7465
VDE43O
p7466
sS'QM_START'
p7467
g15
(S'\x07\xe1\x07\x01\x00\x00\x00\x00\x00\x00'
p7468
tp7469
Rp7470
sS'QM_END'
p7471
g15
(S'\x07\xe2\x01\x01\x00\x00\x00\x00\x00\x00'
p7472
tp7473
Rp7474
sS'QM_ID'
p7475
g7457
sS'SYSTIME'
p7476
g2
(g25
g26
(lp7477
g15
(S'\x07\xde\x05\x01\x00\x00\x00\x00\x00\x00'
p7478
tp7479
Rp7480
aNatp7481
Rp7482
(dp7483
g34
S'[)'
p7484
sbsS'QM_DESC'
p7485
VOn-site Intercomparison & Audit
p7486
stp7487
Rp7488
sVIT04L_reference_calibration_20170209
p7489
g2
(g3
g4
(dp7490
S'QM_COMMENT'
p7491
NsS'QM_DOCUMENT_URL'
p7492
NsS'QM_DOCUMENT_DATE'
p7493
NsS'QM_DOCUMENT_TITLE'
p7494
NsS'QT_TYPE'
p7495
VOff-site intercomparison
p7496
sS'OR_CODE'
p7497
VIT04L
p7498
sS'QM_START'
p7499
g15
(S'\x07\xe1\x02\t\x00\x00\x00\x00\x00\x00'
p7500
tp7501
Rp7502
sS'QM_END'
p7503
NsS'QM_ID'
p7504
g7489
sS'SYSTIME'
p7505
g2
(g25
g26
(lp7506
g15
(S'\x07\xde\x05\x01\x00\x00\x00\x00\x00\x00'
p7507
tp7508
Rp7509
aNatp7510
Rp7511
(dp7512
g34
S'[)'
p7513
sbsS'QM_DESC'
p7514
Nstp7515
Rp7516
sVJP02L_reference_calibration_20230327
p7517
g2
(g3
g4
(dp7518
S'QM_COMMENT'
p7519
NsS'QM_DOCUMENT_URL'
p7520
NsS'QM_DOCUMENT_DATE'
p7521
NsS'QM_DOCUMENT_TITLE'
p7522
NsS'QT_TYPE'
p7523
VOff-site intercomparison
p7524
sS'OR_CODE'
p7525
VJP02L
p7526
sS'QM_START'
p7527
g15
(S'\x07\xe7\x03\x1b\x00\x00\x00\x00\x00\x00'
p7528
tp7529
Rp7530
sS'QM_END'
p7531
NsS'QM_ID'
p7532
g7517
sS'SYSTIME'
p7533
g2
(g25
g26
(lp7534
g15
(S'\x07\xe9\x01\n\x0b\x07\x01\x0bS\x1b'
p7535
tp7536
Rp7537
aNatp7538
Rp7539
(dp7540
g34
S'[)'
p7541
sbsS'QM_DESC'
p7542
Nstp7543
Rp7544
sVJP02L_reference_calibration_20200908
p7545
g2
(g3
g4
(dp7546
S'QM_COMMENT'
p7547
NsS'QM_DOCUMENT_URL'
p7548
NsS'QM_DOCUMENT_DATE'
p7549
NsS'QM_DOCUMENT_TITLE'
p7550
NsS'QT_TYPE'
p7551
VOff-site intercomparison
p7552
sS'OR_CODE'
p7553
VJP02L
p7554
sS'QM_START'
p7555
g15
(S'\x07\xe4\t\x08\x00\x00\x00\x00\x00\x00'
p7556
tp7557
Rp7558
sS'QM_END'
p7559
NsS'QM_ID'
p7560
g7545
sS'SYSTIME'
p7561
g2
(g25
g26
(lp7562
g15
(S'\x07\xde\x05\x01\x00\x00\x00\x00\x00\x00'
p7563
tp7564
Rp7565
aNatp7566
Rp7567
(dp7568
g34
S'[)'
p7569
sbsS'QM_DESC'
p7570
Nstp7571
Rp7572
sVAT03L_reference_calibration_20130813
p7573
g2
(g3
g4
(dp7574
S'QM_COMMENT'
p7575
NsS'QM_DOCUMENT_URL'
p7576
NsS'QM_DOCUMENT_DATE'
p7577
NsS'QM_DOCUMENT_TITLE'
p7578
NsS'QT_TYPE'
p7579
VOff-site intercomparison
p7580
sS'OR_CODE'
p7581
VAT03L
p7582
sS'QM_START'
p7583
g15
(S'\x07\xdd\x08\r\x00\x00\x00\x00\x00\x00'
p7584
tp7585
Rp7586
sS'QM_END'
p7587
NsS'QM_ID'
p7588
g7573
sS'SYSTIME'
p7589
g2
(g25
g26
(lp7590
g15
(S'\x07\xde\x05\x01\x00\x00\x00\x00\x00\x00'
p7591
tp7592
Rp7593
aNatp7594
Rp7595
(dp7596
g34
S'[)'
p7597
sbsS'QM_DESC'
p7598
Nstp7599
Rp7600
sVUS06L_reference_calibration_20070630
p7601
g2
(g3
g4
(dp7602
S'QM_COMMENT'
p7603
NsS'QM_DOCUMENT_URL'
p7604
NsS'QM_DOCUMENT_DATE'
p7605
NsS'QM_DOCUMENT_TITLE'
p7606
NsS'QT_TYPE'
p7607
VOn-site intercomparison
p7608
sS'OR_CODE'
p7609
VUS06L
p7610
sS'QM_START'
p7611
g15
(S'\x07\xd7\x06\x1e\x00\x00\x00\x00\x00\x00'
p7612
tp7613
Rp7614
sS'QM_END'
p7615
NsS'QM_ID'
p7616
g7601
sS'SYSTIME'
p7617
g2
(g25
g26
(lp7618
g15
(S'\x07\xde\x05\x01\x00\x00\x00\x00\x00\x00'
p7619
tp7620
Rp7621
aNatp7622
Rp7623
(dp7624
g34
S'[)'
p7625
sbsS'QM_DESC'
p7626
Nstp7627
Rp7628
sVJP02L_reference_calibration_20230807
p7629
g2
(g3
g4
(dp7630
S'QM_COMMENT'
p7631
NsS'QM_DOCUMENT_URL'
p7632
NsS'QM_DOCUMENT_DATE'
p7633
NsS'QM_DOCUMENT_TITLE'
p7634
NsS'QT_TYPE'
p7635
VOff-site intercomparison
p7636
sS'OR_CODE'
p7637
VJP02L
p7638
sS'QM_START'
p7639
g15
(S'\x07\xe7\x08\x07\x00\x00\x00\x00\x00\x00'
p7640
tp7641
Rp7642
sS'QM_END'
p7643
NsS'QM_ID'
p7644
g7629
sS'SYSTIME'
p7645
g2
(g25
g26
(lp7646
g15
(S'\x07\xe9\x01\n\x0b\x07\x01\x0bi\xc3'
p7647
tp7648
Rp7649
aNatp7650
Rp7651
(dp7652
g34
S'[)'
p7653
sbsS'QM_DESC'
p7654
Nstp7655
Rp7656
sVAT03L_reference_calibration_20140114
p7657
g2
(g3
g4
(dp7658
S'QM_COMMENT'
p7659
NsS'QM_DOCUMENT_URL'
p7660
NsS'QM_DOCUMENT_DATE'
p7661
NsS'QM_DOCUMENT_TITLE'
p7662
NsS'QT_TYPE'
p7663
VOff-site intercomparison
p7664
sS'OR_CODE'
p7665
VAT03L
p7666
sS'QM_START'
p7667
g15
(S'\x07\xde\x01\x0e\x00\x00\x00\x00\x00\x00'
p7668
tp7669
Rp7670
sS'QM_END'
p7671
NsS'QM_ID'
p7672
g7657
sS'SYSTIME'
p7673
g2
(g25
g26
(lp7674
g15
(S'\x07\xde\x05\x01\x00\x00\x00\x00\x00\x00'
p7675
tp7676
Rp7677
aNatp7678
Rp7679
(dp7680
g34
S'[)'
p7681
sbsS'QM_DESC'
p7682
Nstp7683
Rp7684
sVJP02L_reference_calibration_20180423
p7685
g2
(g3
g4
(dp7686
S'QM_COMMENT'
p7687
NsS'QM_DOCUMENT_URL'
p7688
NsS'QM_DOCUMENT_DATE'
p7689
NsS'QM_DOCUMENT_TITLE'
p7690
NsS'QT_TYPE'
p7691
VOff-site intercomparison
p7692
sS'OR_CODE'
p7693
VJP02L
p7694
sS'QM_START'
p7695
g15
(S'\x07\xe2\x04\x17\x00\x00\x00\x00\x00\x00'
p7696
tp7697
Rp7698
sS'QM_END'
p7699
NsS'QM_ID'
p7700
g7685
sS'SYSTIME'
p7701
g2
(g25
g26
(lp7702
g15
(S'\x07\xde\x05\x01\x00\x00\x00\x00\x00\x00'
p7703
tp7704
Rp7705
aNatp7706
Rp7707
(dp7708
g34
S'[)'
p7709
sbsS'QM_DESC'
p7710
Nstp7711
Rp7712
sVECAC-OCEC-2022-1
p7713
g2
(g3
g4
(dp7714
S'QM_COMMENT'
p7715
NsS'QM_DOCUMENT_URL'
p7716
NsS'QM_DOCUMENT_DATE'
p7717
NsS'QM_DOCUMENT_TITLE'
p7718
NsS'QT_TYPE'
p7719
VInterlaboratory comparison
p7720
sS'OR_CODE'
p7721
VIT14O
p7722
sS'QM_START'
p7723
g15
(S'\x07\xe6\x03\x01\x00\x00\x00\x00\x00\x00'
p7724
tp7725
Rp7726
sS'QM_END'
p7727
g15
(S'\x07\xe7\x04\x01\x00\x00\x00\x00\x00\x00'
p7728
tp7729
Rp7730
sS'QM_ID'
p7731
g7713
sS'SYSTIME'
p7732
g2
(g25
g26
(lp7733
g15
(S'\x07\xe7\n\x17\r#\x03\x07"\xe8'
p7734
tp7735
Rp7736
aNatp7737
Rp7738
(dp7739
g34
S'[)'
p7740
sbsS'QM_DESC'
p7741
VECAC Inter-laboratory comparison exercise for TC and EC measurements
p7742
stp7743
Rp7744
sVWCCAP-OSIA-2018-2
p7745
g2
(g3
g4
(dp7746
S'QM_COMMENT'
p7747
NsS'QM_DOCUMENT_URL'
p7748
NsS'QM_DOCUMENT_DATE'
p7749
NsS'QM_DOCUMENT_TITLE'
p7750
NsS'QT_TYPE'
p7751
VOn-site intercomparison
p7752
sS'OR_CODE'
p7753
VDE43O
p7754
sS'QM_START'
p7755
g15
(S'\x07\xe2\x07\x01\x00\x00\x00\x00\x00\x00'
p7756
tp7757
Rp7758
sS'QM_END'
p7759
g15
(S'\x07\xe3\x0c\x1f\x00\x00\x00\x00\x00\x00'
p7760
tp7761
Rp7762
sS'QM_ID'
p7763
g7745
sS'SYSTIME'
p7764
g2
(g25
g26
(lp7765
g15
(S'\x07\xde\x05\x01\x00\x00\x00\x00\x00\x00'
p7766
tp7767
Rp7768
aNatp7769
Rp7770
(dp7771
g34
S'[)'
p7772
sbsS'QM_DESC'
p7773
VOn-site Intercomparison & Audit
p7774
stp7775
Rp7776
sVWCCAP-OSIA-2018-1
p7777
g2
(g3
g4
(dp7778
S'QM_COMMENT'
p7779
NsS'QM_DOCUMENT_URL'
p7780
NsS'QM_DOCUMENT_DATE'
p7781
NsS'QM_DOCUMENT_TITLE'
p7782
NsS'QT_TYPE'
p7783
VOn-site intercomparison
p7784
sS'OR_CODE'
p7785
VDE43O
p7786
sS'QM_START'
p7787
g15
(S'\x07\xe2\x01\x01\x00\x00\x00\x00\x00\x00'
p7788
tp7789
Rp7790
sS'QM_END'
p7791
g15
(S'\x07\xe2\x07\x01\x00\x00\x00\x00\x00\x00'
p7792
tp7793
Rp7794
sS'QM_ID'
p7795
g7777
sS'SYSTIME'
p7796
g2
(g25
g26
(lp7797
g15
(S'\x07\xde\x05\x01\x00\x00\x00\x00\x00\x00'
p7798
tp7799
Rp7800
aNatp7801
Rp7802
(dp7803
g34
S'[)'
p7804
sbsS'QM_DESC'
p7805
VOn-site Intercomparison & Audit
p7806
stp7807
Rp7808
sVJP02L_reference_calibration_20220830
p7809
g2
(g3
g4
(dp7810
S'QM_COMMENT'
p7811
NsS'QM_DOCUMENT_URL'
p7812
NsS'QM_DOCUMENT_DATE'
p7813
NsS'QM_DOCUMENT_TITLE'
p7814
NsS'QT_TYPE'
p7815
VOff-site intercomparison
p7816
sS'OR_CODE'
p7817
VJP02L
p7818
sS'QM_START'
p7819
g15
(S'\x07\xe6\x08\x1e\x00\x00\x00\x00\x00\x00'
p7820
tp7821
Rp7822
sS'QM_END'
p7823
NsS'QM_ID'
p7824
g7809
sS'SYSTIME'
p7825
g2
(g25
g26
(lp7826
g15
(S'\x07\xe9\x01\n\x0b\x07\x01\x0b#m'
p7827
tp7828
Rp7829
aNatp7830
Rp7831
(dp7832
g34
S'[)'
p7833
sbsS'QM_DESC'
p7834
Nstp7835
Rp7836
sVEMEP41
p7837
g2
(g3
g4
(dp7838
S'QM_COMMENT'
p7839
NsS'QM_DOCUMENT_URL'
p7840
Vhttp://www.nilu.no/projects/ccc/qameasure/emep41.pdf
p7841
sS'QM_DOCUMENT_DATE'
p7842
g15
(S'\x07\xe8\x02\x13\x00\x00\x00\x00\x00\x00'
p7843
tp7844
Rp7845
sS'QM_DOCUMENT_TITLE'
p7846
VSummary statistics EMEP laboratory intercalibration Round 41
p7847
sS'QT_TYPE'
p7848
VInterlaboratory comparison
p7849
sS'OR_CODE'
p7850
VNO03O
p7851
sS'QM_START'
p7852
g15
(S'\x07\xe7\t\x01\x00\x00\x00\x00\x00\x00'
p7853
tp7854
Rp7855
sS'QM_END'
p7856
g15
(S'\x07\xe8\x02\x14\x00\x00\x00\x00\x00\x00'
p7857
tp7858
Rp7859
sS'QM_ID'
p7860
g7837
sS'SYSTIME'
p7861
g2
(g25
g26
(lp7862
g15
(S'\x07\xe9\x07\x02\x0c%,\x06Y\xd9'
p7863
tp7864
Rp7865
aNatp7866
Rp7867
(dp7868
g34
S'[)'
p7869
sbsS'QM_DESC'
p7870
V41th EMEP laboratory intercomparison
p7871
stp7872
Rp7873
sVEMEP40
p7874
g2
(g3
g4
(dp7875
S'QM_COMMENT'
p7876
NsS'QM_DOCUMENT_URL'
p7877
Vhttp://www.nilu.no/projects/ccc/qameasure/emep40.pdf
p7878
sS'QM_DOCUMENT_DATE'
p7879
g15
(S'\x07\xe7\x03\x01\x00\x00\x00\x00\x00\x00'
p7880
tp7881
Rp7882
sS'QM_DOCUMENT_TITLE'
p7883
VSummary statistics EMEP laboratory intercalibration Round 40
p7884
sS'QT_TYPE'
p7885
VInterlaboratory comparison
p7886
sS'OR_CODE'
p7887
VNO03O
p7888
sS'QM_START'
p7889
g15
(S'\x07\xe6\t\x01\x00\x00\x00\x00\x00\x00'
p7890
tp7891
Rp7892
sS'QM_END'
p7893
g15
(S'\x07\xe7\x03\x01\x00\x00\x00\x00\x00\x00'
p7894
tp7895
Rp7896
sS'QM_ID'
p7897
g7874
sS'SYSTIME'
p7898
g2
(g25
g26
(lp7899
g15
(S'\x07\xe8\t\x13\x08!\x11\x0b8\xe5'
p7900
tp7901
Rp7902
aNatp7903
Rp7904
(dp7905
g34
S'[)'
p7906
sbsS'QM_DESC'
p7907
V40th EMEP laboratory intercomparison
p7908
stp7909
Rp7910
sVJP02L_reference_calibration_20210915
p7911
g2
(g3
g4
(dp7912
S'QM_COMMENT'
p7913
NsS'QM_DOCUMENT_URL'
p7914
NsS'QM_DOCUMENT_DATE'
p7915
NsS'QM_DOCUMENT_TITLE'
p7916
NsS'QT_TYPE'
p7917
VOff-site intercomparison
p7918
sS'OR_CODE'
p7919
VJP02L
p7920
sS'QM_START'
p7921
g15
(S'\x07\xe5\t\x0f\x00\x00\x00\x00\x00\x00'
p7922
tp7923
Rp7924
sS'QM_END'
p7925
NsS'QM_ID'
p7926
g7911
sS'SYSTIME'
p7927
g2
(g25
g26
(lp7928
g15
(S'\x07\xe8\x01\x08\x0b2;\x05\xa4_'
p7929
tp7930
Rp7931
aNatp7932
Rp7933
(dp7934
g34
S'[)'
p7935
sbsS'QM_DESC'
p7936
Nstp7937
Rp7938
sVECAC-OCEC-2021-1
p7939
g2
(g3
g4
(dp7940
S'QM_COMMENT'
p7941
NsS'QM_DOCUMENT_URL'
p7942
NsS'QM_DOCUMENT_DATE'
p7943
NsS'QM_DOCUMENT_TITLE'
p7944
NsS'QT_TYPE'
p7945
VInterlaboratory comparison
p7946
sS'OR_CODE'
p7947
VIT14O
p7948
sS'QM_START'
p7949
g15
(S'\x07\xe5\x01\x01\x00\x00\x00\x00\x00\x00'
p7950
tp7951
Rp7952
sS'QM_END'
p7953
g15
(S'\x07\xe5\x07\x01\x00\x00\x00\x00\x00\x00'
p7954
tp7955
Rp7956
sS'QM_ID'
p7957
g7939
sS'SYSTIME'
p7958
g2
(g25
g26
(lp7959
g15
(S'\x07\xde\x05\x01\x00\x00\x00\x00\x00\x00'
p7960
tp7961
Rp7962
aNatp7963
Rp7964
(dp7965
g34
S'[)'
p7966
sbsS'QM_DESC'
p7967
Nstp7968
Rp7969
sVWCCAP-MPSS-2019-3
p7970
g2
(g3
g4
(dp7971
S'QM_COMMENT'
p7972
NsS'QM_DOCUMENT_URL'
p7973
NsS'QM_DOCUMENT_DATE'
p7974
NsS'QM_DOCUMENT_TITLE'
p7975
NsS'QT_TYPE'
p7976
VOff-site intercomparison
p7977
sS'OR_CODE'
p7978
VDE43O
p7979
sS'QM_START'
p7980
g15
(S'\x07\xe3\x06\x03\x00\x00\x00\x00\x00\x00'
p7981
tp7982
Rp7983
sS'QM_END'
p7984
g15
(S'\x07\xe3\x06\x07\x00\x00\x00\x00\x00\x00'
p7985
tp7986
Rp7987
sS'QM_ID'
p7988
g7970
sS'SYSTIME'
p7989
g2
(g25
g26
(lp7990
g15
(S'\x07\xde\x05\x01\x00\x00\x00\x00\x00\x00'
p7991
tp7992
Rp7993
aNatp7994
Rp7995
(dp7996
g34
S'[)'
p7997
sbsS'QM_DESC'
p7998
VIntercomparison of Mobility Particle Size Spectrometer
p7999
stp8000
Rp8001
sVWCCAP-MPSS-2018-2
p8002
g2
(g3
g4
(dp8003
S'QM_COMMENT'
p8004
NsS'QM_DOCUMENT_URL'
p8005
NsS'QM_DOCUMENT_DATE'
p8006
NsS'QM_DOCUMENT_TITLE'
p8007
NsS'QT_TYPE'
p8008
VOff-site intercomparison
p8009
sS'OR_CODE'
p8010
VDE43O
p8011
sS'QM_START'
p8012
g15
(S'\x07\xe2\x03\x0c\x00\x00\x00\x00\x00\x00'
p8013
tp8014
Rp8015
sS'QM_END'
p8016
g15
(S'\x07\xe2\x03\x10\x00\x00\x00\x00\x00\x00'
p8017
tp8018
Rp8019
sS'QM_ID'
p8020
g8002
sS'SYSTIME'
p8021
g2
(g25
g26
(lp8022
g15
(S'\x07\xde\x05\x01\x00\x00\x00\x00\x00\x00'
p8023
tp8024
Rp8025
aNatp8026
Rp8027
(dp8028
g34
S'[)'
p8029
sbsS'QM_DESC'
p8030
VIntercomparison of Mobility Particle Size Spectrometer
p8031
stp8032
Rp8033
sVWCCAP-MPSS-2019-5
p8034
g2
(g3
g4
(dp8035
S'QM_COMMENT'
p8036
NsS'QM_DOCUMENT_URL'
p8037
NsS'QM_DOCUMENT_DATE'
p8038
NsS'QM_DOCUMENT_TITLE'
p8039
NsS'QT_TYPE'
p8040
VOff-site intercomparison
p8041
sS'OR_CODE'
p8042
VDE43O
p8043
sS'QM_START'
p8044
g15
(S'\x07\xe3\n\x07\x00\x00\x00\x00\x00\x00'
p8045
tp8046
Rp8047
sS'QM_END'
p8048
g15
(S'\x07\xe3\n\x0b\x00\x00\x00\x00\x00\x00'
p8049
tp8050
Rp8051
sS'QM_ID'
p8052
g8034
sS'SYSTIME'
p8053
g2
(g25
g26
(lp8054
g15
(S'\x07\xde\x05\x01\x00\x00\x00\x00\x00\x00'
p8055
tp8056
Rp8057
aNatp8058
Rp8059
(dp8060
g34
S'[)'
p8061
sbsS'QM_DESC'
p8062
VIntercomparison of Mobility Particle Size Spectrometer
p8063
stp8064
Rp8065
sVWCCAP-MPSS-2019-4
p8066
g2
(g3
g4
(dp8067
S'QM_COMMENT'
p8068
NsS'QM_DOCUMENT_URL'
p8069
NsS'QM_DOCUMENT_DATE'
p8070
NsS'QM_DOCUMENT_TITLE'
p8071
NsS'QT_TYPE'
p8072
VOff-site intercomparison
p8073
sS'OR_CODE'
p8074
VDE43O
p8075
sS'QM_START'
p8076
g15
(S'\x07\xe3\t\n\x00\x00\x00\x00\x00\x00'
p8077
tp8078
Rp8079
sS'QM_END'
p8080
g15
(S'\x07\xe3\t\x10\x00\x00\x00\x00\x00\x00'
p8081
tp8082
Rp8083
sS'QM_ID'
p8084
g8066
sS'SYSTIME'
p8085
g2
(g25
g26
(lp8086
g15
(S'\x07\xde\x05\x01\x00\x00\x00\x00\x00\x00'
p8087
tp8088
Rp8089
aNatp8090
Rp8091
(dp8092
g34
S'[)'
p8093
sbsS'QM_DESC'
p8094
VIntercomparison of Mobility Particle Size Spectrometer
p8095
stp8096
Rp8097
sVJP02L_reference_calibration_20201119
p8098
g2
(g3
g4
(dp8099
S'QM_COMMENT'
p8100
NsS'QM_DOCUMENT_URL'
p8101
NsS'QM_DOCUMENT_DATE'
p8102
NsS'QM_DOCUMENT_TITLE'
p8103
NsS'QT_TYPE'
p8104
VOff-site intercomparison
p8105
sS'OR_CODE'
p8106
VJP02L
p8107
sS'QM_START'
p8108
g15
(S'\x07\xe4\x0b\x13\x00\x00\x00\x00\x00\x00'
p8109
tp8110
Rp8111
sS'QM_END'
p8112
NsS'QM_ID'
p8113
g8098
sS'SYSTIME'
p8114
g2
(g25
g26
(lp8115
g15
(S'\x07\xe7\x0c\x12\x0c\x0f:\n\xab_'
p8116
tp8117
Rp8118
aNatp8119
Rp8120
(dp8121
g34
S'[)'
p8122
sbsS'QM_DESC'
p8123
Nstp8124
Rp8125
sVAT03L_reference_calibration_20050914
p8126
g2
(g3
g4
(dp8127
S'QM_COMMENT'
p8128
NsS'QM_DOCUMENT_URL'
p8129
NsS'QM_DOCUMENT_DATE'
p8130
NsS'QM_DOCUMENT_TITLE'
p8131
NsS'QT_TYPE'
p8132
VOff-site intercomparison
p8133
sS'OR_CODE'
p8134
VAT03L
p8135
sS'QM_START'
p8136
g15
(S'\x07\xd5\t\x0e\x00\x00\x00\x00\x00\x00'
p8137
tp8138
Rp8139
sS'QM_END'
p8140
NsS'QM_ID'
p8141
g8126
sS'SYSTIME'
p8142
g2
(g25
g26
(lp8143
g15
(S'\x07\xde\x05\x01\x00\x00\x00\x00\x00\x00'
p8144
tp8145
Rp8146
aNatp8147
Rp8148
(dp8149
g34
S'[)'
p8150
sbsS'QM_DESC'
p8151
Nstp8152
Rp8153
sVJP02L_reference_calibration_20191223
p8154
g2
(g3
g4
(dp8155
S'QM_COMMENT'
p8156
NsS'QM_DOCUMENT_URL'
p8157
NsS'QM_DOCUMENT_DATE'
p8158
NsS'QM_DOCUMENT_TITLE'
p8159
NsS'QT_TYPE'
p8160
VOff-site intercomparison
p8161
sS'OR_CODE'
p8162
VJP02L
p8163
sS'QM_START'
p8164
g15
(S'\x07\xe3\x0c\x17\x00\x00\x00\x00\x00\x00'
p8165
tp8166
Rp8167
sS'QM_END'
p8168
NsS'QM_ID'
p8169
g8154
sS'SYSTIME'
p8170
g2
(g25
g26
(lp8171
g15
(S'\x07\xde\x05\x01\x00\x00\x00\x00\x00\x00'
p8172
tp8173
Rp8174
aNatp8175
Rp8176
(dp8177
g34
S'[)'
p8178
sbsS'QM_DESC'
p8179
Nstp8180
Rp8181
sVWCC Empa Site Audit
p8182
g2
(g3
g4
(dp8183
S'QM_COMMENT'
p8184
NsS'QM_DOCUMENT_URL'
p8185
NsS'QM_DOCUMENT_DATE'
p8186
NsS'QM_DOCUMENT_TITLE'
p8187
NsS'QT_TYPE'
p8188
VOn site audit
p8189
sS'OR_CODE'
p8190
VCH06O
p8191
sS'QM_START'
p8192
g15
(S'\x07\xcb\x01\x01\x00\x00\x00\x00\x00\x00'
p8193
tp8194
Rp8195
sS'QM_END'
p8196
g15
(S'\x084\x01\x01\x00\x00\x00\x00\x00\x00'
p8197
tp8198
Rp8199
sS'QM_ID'
p8200
g8182
sS'SYSTIME'
p8201
g2
(g25
g26
(lp8202
g15
(S'\x07\xde\x05\x01\x00\x00\x00\x00\x00\x00'
p8203
tp8204
Rp8205
aNatp8206
Rp8207
(dp8208
g34
S'[)'
p8209
sbsS'QM_DESC'
p8210
VWorld Calibration Centre (WCC-Empa) for Surface Ozone, Carbon Monoxide, Methane and Carbon Dioxide Site Audit
p8211
stp8212
Rp8213
sVAT03L_reference_calibration_20051123
p8214
g2
(g3
g4
(dp8215
S'QM_COMMENT'
p8216
NsS'QM_DOCUMENT_URL'
p8217
NsS'QM_DOCUMENT_DATE'
p8218
NsS'QM_DOCUMENT_TITLE'
p8219
NsS'QT_TYPE'
p8220
VOff-site intercomparison
p8221
sS'OR_CODE'
p8222
VAT03L
p8223
sS'QM_START'
p8224
g15
(S'\x07\xd5\x0b\x17\x00\x00\x00\x00\x00\x00'
p8225
tp8226
Rp8227
sS'QM_END'
p8228
NsS'QM_ID'
p8229
g8214
sS'SYSTIME'
p8230
g2
(g25
g26
(lp8231
g15
(S'\x07\xde\x05\x01\x00\x00\x00\x00\x00\x00'
p8232
tp8233
Rp8234
aNatp8235
Rp8236
(dp8237
g34
S'[)'
p8238
sbsS'QM_DESC'
p8239
Nstp8240
Rp8241
sVECAC-OCEC-2017-1
p8242
g2
(g3
g4
(dp8243
S'QM_COMMENT'
p8244
NsS'QM_DOCUMENT_URL'
p8245
Vhttp://www.actris-ecac.eu/files/ECAC-report-OCEC-2017-1.pdf
p8246
sS'QM_DOCUMENT_DATE'
p8247
NsS'QM_DOCUMENT_TITLE'
p8248
VResults of the inter-laboratory comparison exercise for TC and EC measurements (ref.: OCEC-2017-1)
p8249
sS'QT_TYPE'
p8250
VInterlaboratory comparison
p8251
sS'OR_CODE'
p8252
VIT14O
p8253
sS'QM_START'
p8254
g15
(S'\x07\xe1\x01\x01\x00\x00\x00\x00\x00\x00'
p8255
tp8256
Rp8257
sS'QM_END'
p8258
g15
(S'\x07\xe1\x04\x01\x00\x00\x00\x00\x00\x00'
p8259
tp8260
Rp8261
sS'QM_ID'
p8262
g8242
sS'SYSTIME'
p8263
g2
(g25
g26
(lp8264
g15
(S'\x07\xde\x05\x01\x00\x00\x00\x00\x00\x00'
p8265
tp8266
Rp8267
aNatp8268
Rp8269
(dp8270
g34
S'[)'
p8271
sbsS'QM_DESC'
p8272
VECAC Inter-laboratory comparison exercise for TC and EC measurements
p8273
stp8274
Rp8275
sVJP02L_reference_calibration_20170420
p8276
g2
(g3
g4
(dp8277
S'QM_COMMENT'
p8278
NsS'QM_DOCUMENT_URL'
p8279
NsS'QM_DOCUMENT_DATE'
p8280
NsS'QM_DOCUMENT_TITLE'
p8281
NsS'QT_TYPE'
p8282
VOff-site intercomparison
p8283
sS'OR_CODE'
p8284
VJP02L
p8285
sS'QM_START'
p8286
g15
(S'\x07\xe1\x04\x14\x00\x00\x00\x00\x00\x00'
p8287
tp8288
Rp8289
sS'QM_END'
p8290
NsS'QM_ID'
p8291
g8276
sS'SYSTIME'
p8292
g2
(g25
g26
(lp8293
g15
(S'\x07\xde\x05\x01\x00\x00\x00\x00\x00\x00'
p8294
tp8295
Rp8296
aNatp8297
Rp8298
(dp8299
g34
S'[)'
p8300
sbsS'QM_DESC'
p8301
Nstp8302
Rp8303
sVECAC-OCEC-2017-2
p8304
g2
(g3
g4
(dp8305
S'QM_COMMENT'
p8306
NsS'QM_DOCUMENT_URL'
p8307
Vhttp://www.actris-ecac.eu/files/OCEC-2017-2-REPORT.pdf
p8308
sS'QM_DOCUMENT_DATE'
p8309
NsS'QM_DOCUMENT_TITLE'
p8310
VResults of the inter-laboratory comparison exercise for TC and EC measurements (ref.: OCEC-2017-2)
p8311
sS'QT_TYPE'
p8312
VInterlaboratory comparison
p8313
sS'OR_CODE'
p8314
VIT14O
p8315
sS'QM_START'
p8316
g15
(S'\x07\xe1\x07\x01\x00\x00\x00\x00\x00\x00'
p8317
tp8318
Rp8319
sS'QM_END'
p8320
g15
(S'\x07\xe1\n\x01\x00\x00\x00\x00\x00\x00'
p8321
tp8322
Rp8323
sS'QM_ID'
p8324
g8304
sS'SYSTIME'
p8325
g2
(g25
g26
(lp8326
g15
(S'\x07\xde\x05\x01\x00\x00\x00\x00\x00\x00'
p8327
tp8328
Rp8329
aNatp8330
Rp8331
(dp8332
g34
S'[)'
p8333
sbsS'QM_DESC'
p8334
VECAC Inter-laboratory comparison exercise for TC and EC measurements
p8335
stp8336
Rp8337
sVAT03L_reference_calibration_20060124
p8338
g2
(g3
g4
(dp8339
S'QM_COMMENT'
p8340
NsS'QM_DOCUMENT_URL'
p8341
NsS'QM_DOCUMENT_DATE'
p8342
NsS'QM_DOCUMENT_TITLE'
p8343
NsS'QT_TYPE'
p8344
VOff-site intercomparison
p8345
sS'OR_CODE'
p8346
VAT03L
p8347
sS'QM_START'
p8348
g15
(S'\x07\xd6\x01\x18\x00\x00\x00\x00\x00\x00'
p8349
tp8350
Rp8351
sS'QM_END'
p8352
NsS'QM_ID'
p8353
g8338
sS'SYSTIME'
p8354
g2
(g25
g26
(lp8355
g15
(S'\x07\xde\x05\x01\x00\x00\x00\x00\x00\x00'
p8356
tp8357
Rp8358
aNatp8359
Rp8360
(dp8361
g34
S'[)'
p8362
sbsS'QM_DESC'
p8363
Nstp8364
Rp8365
sVJP02L_reference_calibration_20180220
p8366
g2
(g3
g4
(dp8367
S'QM_COMMENT'
p8368
NsS'QM_DOCUMENT_URL'
p8369
NsS'QM_DOCUMENT_DATE'
p8370
NsS'QM_DOCUMENT_TITLE'
p8371
NsS'QT_TYPE'
p8372
VOff-site intercomparison
p8373
sS'OR_CODE'
p8374
VJP02L
p8375
sS'QM_START'
p8376
g15
(S'\x07\xe2\x02\x14\x00\x00\x00\x00\x00\x00'
p8377
tp8378
Rp8379
sS'QM_END'
p8380
NsS'QM_ID'
p8381
g8366
sS'SYSTIME'
p8382
g2
(g25
g26
(lp8383
g15
(S'\x07\xde\x05\x01\x00\x00\x00\x00\x00\x00'
p8384
tp8385
Rp8386
aNatp8387
Rp8388
(dp8389
g34
S'[)'
p8390
sbsS'QM_DESC'
p8391
Nstp8392
Rp8393
sVWCCAP-CPC-2016-2
p8394
g2
(g3
g4
(dp8395
S'QM_COMMENT'
p8396
NsS'QM_DOCUMENT_URL'
p8397
NsS'QM_DOCUMENT_DATE'
p8398
NsS'QM_DOCUMENT_TITLE'
p8399
NsS'QT_TYPE'
p8400
VOff-site intercomparison
p8401
sS'OR_CODE'
p8402
VDE43O
p8403
sS'QM_START'
p8404
g15
(S'\x07\xe0\x04\x04\x00\x00\x00\x00\x00\x00'
p8405
tp8406
Rp8407
sS'QM_END'
p8408
g15
(S'\x07\xe0\x04\x08\x00\x00\x00\x00\x00\x00'
p8409
tp8410
Rp8411
sS'QM_ID'
p8412
g8394
sS'SYSTIME'
p8413
g2
(g25
g26
(lp8414
g15
(S'\x07\xde\x05\x01\x00\x00\x00\x00\x00\x00'
p8415
tp8416
Rp8417
aNatp8418
Rp8419
(dp8420
g34
S'[)'
p8421
sbsS'QM_DESC'
p8422
VIntercomparison of Condensation Particle Counter
p8423
stp8424
Rp8425
sVWCCAP-CPC-2016-3
p8426
g2
(g3
g4
(dp8427
S'QM_COMMENT'
p8428
NsS'QM_DOCUMENT_URL'
p8429
NsS'QM_DOCUMENT_DATE'
p8430
NsS'QM_DOCUMENT_TITLE'
p8431
NsS'QT_TYPE'
p8432
VOff-site intercomparison
p8433
sS'OR_CODE'
p8434
VDE43O
p8435
sS'QM_START'
p8436
g15
(S'\x07\xe0\x04\x19\x00\x00\x00\x00\x00\x00'
p8437
tp8438
Rp8439
sS'QM_END'
p8440
g15
(S'\x07\xe0\x04\x1d\x00\x00\x00\x00\x00\x00'
p8441
tp8442
Rp8443
sS'QM_ID'
p8444
g8426
sS'SYSTIME'
p8445
g2
(g25
g26
(lp8446
g15
(S'\x07\xde\x05\x01\x00\x00\x00\x00\x00\x00'
p8447
tp8448
Rp8449
aNatp8450
Rp8451
(dp8452
g34
S'[)'
p8453
sbsS'QM_DESC'
p8454
VIntercomparison of Condensation Particle Counter
p8455
stp8456
Rp8457
sVWCCAP-CPC-2016-1
p8458
g2
(g3
g4
(dp8459
S'QM_COMMENT'
p8460
NsS'QM_DOCUMENT_URL'
p8461
NsS'QM_DOCUMENT_DATE'
p8462
NsS'QM_DOCUMENT_TITLE'
p8463
NsS'QT_TYPE'
p8464
VOff-site intercomparison
p8465
sS'OR_CODE'
p8466
VDE43O
p8467
sS'QM_START'
p8468
g15
(S'\x07\xe0\x01\x19\x00\x00\x00\x00\x00\x00'
p8469
tp8470
Rp8471
sS'QM_END'
p8472
g15
(S'\x07\xe0\x01\x1d\x00\x00\x00\x00\x00\x00'
p8473
tp8474
Rp8475
sS'QM_ID'
p8476
g8458
sS'SYSTIME'
p8477
g2
(g25
g26
(lp8478
g15
(S'\x07\xde\x05\x01\x00\x00\x00\x00\x00\x00'
p8479
tp8480
Rp8481
aNatp8482
Rp8483
(dp8484
g34
S'[)'
p8485
sbsS'QM_DESC'
p8486
VIntercomparison of Condensation Particle Counter
p8487
stp8488
Rp8489
sVAT03L_reference_calibration_20101117
p8490
g2
(g3
g4
(dp8491
S'QM_COMMENT'
p8492
NsS'QM_DOCUMENT_URL'
p8493
NsS'QM_DOCUMENT_DATE'
p8494
NsS'QM_DOCUMENT_TITLE'
p8495
NsS'QT_TYPE'
p8496
VOff-site intercomparison
p8497
sS'OR_CODE'
p8498
VAT03L
p8499
sS'QM_START'
p8500
g15
(S'\x07\xda\x0b\x11\x00\x00\x00\x00\x00\x00'
p8501
tp8502
Rp8503
sS'QM_END'
p8504
NsS'QM_ID'
p8505
g8490
sS'SYSTIME'
p8506
g2
(g25
g26
(lp8507
g15
(S'\x07\xde\x05\x01\x00\x00\x00\x00\x00\x00'
p8508
tp8509
Rp8510
aNatp8511
Rp8512
(dp8513
g34
S'[)'
p8514
sbsS'QM_DESC'
p8515
Nstp8516
Rp8517
sVWCCAP-CPC-2016-4
p8518
g2
(g3
g4
(dp8519
S'QM_COMMENT'
p8520
NsS'QM_DOCUMENT_URL'
p8521
NsS'QM_DOCUMENT_DATE'
p8522
NsS'QM_DOCUMENT_TITLE'
p8523
NsS'QT_TYPE'
p8524
VOff-site intercomparison
p8525
sS'OR_CODE'
p8526
VDE43O
p8527
sS'QM_START'
p8528
g15
(S'\x07\xe0\x05\x1e\x00\x00\x00\x00\x00\x00'
p8529
tp8530
Rp8531
sS'QM_END'
p8532
g15
(S'\x07\xe0\x06\x03\x00\x00\x00\x00\x00\x00'
p8533
tp8534
Rp8535
sS'QM_ID'
p8536
g8518
sS'SYSTIME'
p8537
g2
(g25
g26
(lp8538
g15
(S'\x07\xde\x05\x01\x00\x00\x00\x00\x00\x00'
p8539
tp8540
Rp8541
aNatp8542
Rp8543
(dp8544
g34
S'[)'
p8545
sbsS'QM_DESC'
p8546
VIntercomparison of Condensation Particle Counter
p8547
stp8548
Rp8549
sVWCCAP-CPC-2016-5
p8550
g2
(g3
g4
(dp8551
S'QM_COMMENT'
p8552
NsS'QM_DOCUMENT_URL'
p8553
NsS'QM_DOCUMENT_DATE'
p8554
NsS'QM_DOCUMENT_TITLE'
p8555
NsS'QT_TYPE'
p8556
VOff-site intercomparison
p8557
sS'OR_CODE'
p8558
VDE43O
p8559
sS'QM_START'
p8560
g15
(S'\x07\xe0\t\x1a\x00\x00\x00\x00\x00\x00'
p8561
tp8562
Rp8563
sS'QM_END'
p8564
g15
(S'\x07\xe0\t\x1e\x00\x00\x00\x00\x00\x00'
p8565
tp8566
Rp8567
sS'QM_ID'
p8568
g8550
sS'SYSTIME'
p8569
g2
(g25
g26
(lp8570
g15
(S'\x07\xde\x05\x01\x00\x00\x00\x00\x00\x00'
p8571
tp8572
Rp8573
aNatp8574
Rp8575
(dp8576
g34
S'[)'
p8577
sbsS'QM_DESC'
p8578
VIntercomparison of Condensation Particle Counter
p8579
stp8580
Rp8581
sVWCCAP-AP-2015-1
p8582
g2
(g3
g4
(dp8583
S'QM_COMMENT'
p8584
NsS'QM_DOCUMENT_URL'
p8585
NsS'QM_DOCUMENT_DATE'
p8586
NsS'QM_DOCUMENT_TITLE'
p8587
NsS'QT_TYPE'
p8588
VOff-site intercomparison
p8589
sS'OR_CODE'
p8590
VDE43O
p8591
sS'QM_START'
p8592
g15
(S'\x07\xdf\t\x15\x00\x00\x00\x00\x00\x00'
p8593
tp8594
Rp8595
sS'QM_END'
p8596
g15
(S'\x07\xdf\t\x19\x00\x00\x00\x00\x00\x00'
p8597
tp8598
Rp8599
sS'QM_ID'
p8600
g8582
sS'SYSTIME'
p8601
g2
(g25
g26
(lp8602
g15
(S'\x07\xde\x05\x01\x00\x00\x00\x00\x00\x00'
p8603
tp8604
Rp8605
aNatp8606
Rp8607
(dp8608
g34
S'[)'
p8609
sbsS'QM_DESC'
p8610
VIntercomparison of Absorption Photometer
p8611
stp8612
Rp8613
sVJP02L_reference_calibration_20170915
p8614
g2
(g3
g4
(dp8615
S'QM_COMMENT'
p8616
NsS'QM_DOCUMENT_URL'
p8617
NsS'QM_DOCUMENT_DATE'
p8618
NsS'QM_DOCUMENT_TITLE'
p8619
NsS'QT_TYPE'
p8620
VOff-site intercomparison
p8621
sS'OR_CODE'
p8622
VJP02L
p8623
sS'QM_START'
p8624
g15
(S'\x07\xe1\t\x0f\x00\x00\x00\x00\x00\x00'
p8625
tp8626
Rp8627
sS'QM_END'
p8628
NsS'QM_ID'
p8629
g8614
sS'SYSTIME'
p8630
g2
(g25
g26
(lp8631
g15
(S'\x07\xde\x05\x01\x00\x00\x00\x00\x00\x00'
p8632
tp8633
Rp8634
aNatp8635
Rp8636
(dp8637
g34
S'[)'
p8638
sbsS'QM_DESC'
p8639
Nstp8640
Rp8641
sVAT03L_reference_calibration_20110118
p8642
g2
(g3
g4
(dp8643
S'QM_COMMENT'
p8644
NsS'QM_DOCUMENT_URL'
p8645
NsS'QM_DOCUMENT_DATE'
p8646
NsS'QM_DOCUMENT_TITLE'
p8647
NsS'QT_TYPE'
p8648
VOff-site intercomparison
p8649
sS'OR_CODE'
p8650
VAT03L
p8651
sS'QM_START'
p8652
g15
(S'\x07\xdb\x01\x12\x00\x00\x00\x00\x00\x00'
p8653
tp8654
Rp8655
sS'QM_END'
p8656
NsS'QM_ID'
p8657
g8642
sS'SYSTIME'
p8658
g2
(g25
g26
(lp8659
g15
(S'\x07\xde\x05\x01\x00\x00\x00\x00\x00\x00'
p8660
tp8661
Rp8662
aNatp8663
Rp8664
(dp8665
g34
S'[)'
p8666
sbsS'QM_DESC'
p8667
Nstp8668
Rp8669
sVWCCAP-AP-2016-2
p8670
g2
(g3
g4
(dp8671
S'QM_COMMENT'
p8672
NsS'QM_DOCUMENT_URL'
p8673
NsS'QM_DOCUMENT_DATE'
p8674
NsS'QM_DOCUMENT_TITLE'
p8675
NsS'QT_TYPE'
p8676
VOff-site intercomparison
p8677
sS'OR_CODE'
p8678
VDE43O
p8679
sS'QM_START'
p8680
g15
(S'\x07\xe0\t\x1a\x00\x00\x00\x00\x00\x00'
p8681
tp8682
Rp8683
sS'QM_END'
p8684
g15
(S'\x07\xe0\t\x1e\x00\x00\x00\x00\x00\x00'
p8685
tp8686
Rp8687
sS'QM_ID'
p8688
g8670
sS'SYSTIME'
p8689
g2
(g25
g26
(lp8690
g15
(S'\x07\xde\x05\x01\x00\x00\x00\x00\x00\x00'
p8691
tp8692
Rp8693
aNatp8694
Rp8695
(dp8696
g34
S'[)'
p8697
sbsS'QM_DESC'
p8698
VIntercomparison of Absorption Photometer
p8699
stp8700
Rp8701
sVWCCAP-AP-2016-3
p8702
g2
(g3
g4
(dp8703
S'QM_COMMENT'
p8704
NsS'QM_DOCUMENT_URL'
p8705
NsS'QM_DOCUMENT_DATE'
p8706
NsS'QM_DOCUMENT_TITLE'
p8707
NsS'QT_TYPE'
p8708
VOff-site intercomparison
p8709
sS'OR_CODE'
p8710
VDE43O
p8711
sS'QM_START'
p8712
g15
(S'\x07\xe0\x0c\x05\x00\x00\x00\x00\x00\x00'
p8713
tp8714
Rp8715
sS'QM_END'
p8716
g15
(S'\x07\xe0\x0c\t\x00\x00\x00\x00\x00\x00'
p8717
tp8718
Rp8719
sS'QM_ID'
p8720
g8702
sS'SYSTIME'
p8721
g2
(g25
g26
(lp8722
g15
(S'\x07\xde\x05\x01\x00\x00\x00\x00\x00\x00'
p8723
tp8724
Rp8725
aNatp8726
Rp8727
(dp8728
g34
S'[)'
p8729
sbsS'QM_DESC'
p8730
VIntercomparison of Absorption Photometer
p8731
stp8732
Rp8733
sVJP02L_reference_calibration_20170427
p8734
g2
(g3
g4
(dp8735
S'QM_COMMENT'
p8736
NsS'QM_DOCUMENT_URL'
p8737
NsS'QM_DOCUMENT_DATE'
p8738
NsS'QM_DOCUMENT_TITLE'
p8739
NsS'QT_TYPE'
p8740
VOff-site intercomparison
p8741
sS'OR_CODE'
p8742
VJP02L
p8743
sS'QM_START'
p8744
g15
(S'\x07\xe1\x04\x1b\x00\x00\x00\x00\x00\x00'
p8745
tp8746
Rp8747
sS'QM_END'
p8748
NsS'QM_ID'
p8749
g8734
sS'SYSTIME'
p8750
g2
(g25
g26
(lp8751
g15
(S'\x07\xde\x05\x01\x00\x00\x00\x00\x00\x00'
p8752
tp8753
Rp8754
aNatp8755
Rp8756
(dp8757
g34
S'[)'
p8758
sbsS'QM_DESC'
p8759
Nstp8760
Rp8761
sVJP02L_reference_calibration_20240117
p8762
g2
(g3
g4
(dp8763
S'QM_COMMENT'
p8764
NsS'QM_DOCUMENT_URL'
p8765
NsS'QM_DOCUMENT_DATE'
p8766
NsS'QM_DOCUMENT_TITLE'
p8767
NsS'QT_TYPE'
p8768
VOff-site intercomparison
p8769
sS'OR_CODE'
p8770
VJP02L
p8771
sS'QM_START'
p8772
g15
(S'\x07\xe8\x01\x11\x00\x00\x00\x00\x00\x00'
p8773
tp8774
Rp8775
sS'QM_END'
p8776
NsS'QM_ID'
p8777
g8762
sS'SYSTIME'
p8778
g2
(g25
g26
(lp8779
g15
(S'\x07\xe8\t\t\t\x17\x15\x0c\x05\x9b'
p8780
tp8781
Rp8782
aNatp8783
Rp8784
(dp8785
g34
S'[)'
p8786
sbsS'QM_DESC'
p8787
Nstp8788
Rp8789
sVJP02L_reference_calibration_20200427
p8790
g2
(g3
g4
(dp8791
S'QM_COMMENT'
p8792
NsS'QM_DOCUMENT_URL'
p8793
NsS'QM_DOCUMENT_DATE'
p8794
NsS'QM_DOCUMENT_TITLE'
p8795
NsS'QT_TYPE'
p8796
VOff-site intercomparison
p8797
sS'OR_CODE'
p8798
VJP02L
p8799
sS'QM_START'
p8800
g15
(S'\x07\xe4\x04\x1b\x00\x00\x00\x00\x00\x00'
p8801
tp8802
Rp8803
sS'QM_END'
p8804
NsS'QM_ID'
p8805
g8790
sS'SYSTIME'
p8806
g2
(g25
g26
(lp8807
g15
(S'\x07\xde\x05\x01\x00\x00\x00\x00\x00\x00'
p8808
tp8809
Rp8810
aNatp8811
Rp8812
(dp8813
g34
S'[)'
p8814
sbsS'QM_DESC'
p8815
Nstp8816
Rp8817
s.