(dp0
Vpass
p1
ccopy_reg
_reconstructor
p2
(cnilutility.datatypes
DataObject
p3
c__builtin__
dict
p4
(dp5
S'QO_QUALITYASSURANCE_OUTCOME'
p6
g1
sS'QO_DESC'
p7
NsS'QO_COMMENT'
p8
NsS'SYSTIME'
p9
g2
(cnilutility.datetime_helper
DatetimeInterval
p10
c__builtin__
list
p11
(lp12
cdatetime
datetime
p13
(S'\x07\xde\x05\x01\x00\x00\x00\x00\x00\x00'
p14
tp15
Rp16
aNatp17
Rp18
(dp19
S'bounds'
p20
S'[)'
p21
sbstp22
Rp23
sVnot participated
p24
g2
(g3
g4
(dp25
S'QO_QUALITYASSURANCE_OUTCOME'
p26
g24
sS'QO_DESC'
p27
NsS'QO_COMMENT'
p28
NsS'SYSTIME'
p29
g2
(g10
g11
(lp30
g13
(S'\x07\xde\x05\x01\x00\x00\x00\x00\x00\x00'
p31
tp32
Rp33
aNatp34
Rp35
(dp36
g20
S'[)'
p37
sbstp38
Rp39
sVno pass
p40
g2
(g3
g4
(dp41
S'QO_QUALITYASSURANCE_OUTCOME'
p42
g40
sS'QO_DESC'
p43
NsS'QO_COMMENT'
p44
NsS'SYSTIME'
p45
g2
(g10
g11
(lp46
g13
(S'\x07\xde\x05\x01\x00\x00\x00\x00\x00\x00'
p47
tp48
Rp49
aNatp50
Rp51
(dp52
g20
S'[)'
p53
sbstp54
Rp55
s.