(dp0
Varithmetic mean
p1
ccopy_reg
_reconstructor
p2
(cnilutility.datatypes
DataObject
p3
c__builtin__
dict
p4
(dp5
S'SC_STATISTIC_CODE'
p6
g1
sS'SC_UNIT'
p7
NsS'SC_CFUNIT'
p8
NsS'SC_COMMENT'
p9
NsS'SYSTIME'
p10
g2
(cnilutility.datetime_helper
DatetimeInterval
p11
c__builtin__
list
p12
(lp13
cdatetime
datetime
p14
(S'\x07\xde\x05\x01\x00\x00\x00\x00\x00\x00'
p15
tp16
Rp17
aNatp18
Rp19
(dp20
S'bounds'
p21
S'[)'
p22
sbsS'SC_CFNAME'
p23
NsS'SC_DESC'
p24
Nstp25
Rp26
sV68.27% upper confidence bound
p27
g2
(g3
g4
(dp28
S'SC_STATISTIC_CODE'
p29
g27
sS'SC_UNIT'
p30
NsS'SC_CFUNIT'
p31
NsS'SC_COMMENT'
p32
NsS'SYSTIME'
p33
g2
(g11
g12
(lp34
g14
(S'\x07\xde\x05\x01\x00\x00\x00\x00\x00\x00'
p35
tp36
Rp37
aNatp38
Rp39
(dp40
g21
S'[)'
p41
sbsS'SC_CFNAME'
p42
NsS'SC_DESC'
p43
Nstp44
Rp45
sVpercentile:84.13
p46
g2
(g3
g4
(dp47
S'SC_STATISTIC_CODE'
p48
g46
sS'SC_UNIT'
p49
NsS'SC_CFUNIT'
p50
NsS'SC_COMMENT'
p51
NsS'SYSTIME'
p52
g2
(g11
g12
(lp53
g14
(S'\x07\xde\x05\x01\x00\x00\x00\x00\x00\x00'
p54
tp55
Rp56
aNatp57
Rp58
(dp59
g21
S'[)'
p60
sbsS'SC_CFNAME'
p61
NsS'SC_DESC'
p62
Nstp63
Rp64
sVmaximum
p65
g2
(g3
g4
(dp66
S'SC_STATISTIC_CODE'
p67
g65
sS'SC_UNIT'
p68
NsS'SC_CFUNIT'
p69
NsS'SC_COMMENT'
p70
NsS'SYSTIME'
p71
g2
(g11
g12
(lp72
g14
(S'\x07\xde\x05\x01\x00\x00\x00\x00\x00\x00'
p73
tp74
Rp75
aNatp76
Rp77
(dp78
g21
S'[)'
p79
sbsS'SC_CFNAME'
p80
NsS'SC_DESC'
p81
Nstp82
Rp83
sVmedian
p84
g2
(g3
g4
(dp85
S'SC_STATISTIC_CODE'
p86
g84
sS'SC_UNIT'
p87
NsS'SC_CFUNIT'
p88
NsS'SC_COMMENT'
p89
NsS'SYSTIME'
p90
g2
(g11
g12
(lp91
g14
(S'\x07\xde\x05\x01\x00\x00\x00\x00\x00\x00'
p92
tp93
Rp94
aNatp95
Rp96
(dp97
g21
S'[)'
p98
sbsS'SC_CFNAME'
p99
NsS'SC_DESC'
p100
Nstp101
Rp102
sVsample count
p103
g2
(g3
g4
(dp104
S'SC_STATISTIC_CODE'
p105
g103
sS'SC_UNIT'
p106
Vno unit
p107
sS'SC_CFUNIT'
p108
V1
p109
sS'SC_COMMENT'
p110
NsS'SYSTIME'
p111
g2
(g11
g12
(lp112
g14
(S'\x07\xde\x05\x01\x00\x00\x00\x00\x00\x00'
p113
tp114
Rp115
aNatp116
Rp117
(dp118
g21
S'[)'
p119
sbsS'SC_CFNAME'
p120
Vsample_count
p121
sS'SC_DESC'
p122
Nstp123
Rp124
sVgeometric mean
p125
g2
(g3
g4
(dp126
S'SC_STATISTIC_CODE'
p127
g125
sS'SC_UNIT'
p128
NsS'SC_CFUNIT'
p129
NsS'SC_COMMENT'
p130
NsS'SYSTIME'
p131
g2
(g11
g12
(lp132
g14
(S'\x07\xde\x05\x01\x00\x00\x00\x00\x00\x00'
p133
tp134
Rp135
aNatp136
Rp137
(dp138
g21
S'[)'
p139
sbsS'SC_CFNAME'
p140
NsS'SC_DESC'
p141
Nstp142
Rp143
sVexpanded uncertainty 2sigma
p144
g2
(g3
g4
(dp145
S'SC_STATISTIC_CODE'
p146
g144
sS'SC_UNIT'
p147
NsS'SC_CFUNIT'
p148
NsS'SC_COMMENT'
p149
NsS'SYSTIME'
p150
g2
(g11
g12
(lp151
g14
(S'\x07\xde\x05\x01\x00\x00\x00\x00\x00\x00'
p152
tp153
Rp154
aNatp155
Rp156
(dp157
g21
S'[)'
p158
sbsS'SC_CFNAME'
p159
NsS'SC_DESC'
p160
Nstp161
Rp162
sVexpanded uncertainty 3sigma
p163
g2
(g3
g4
(dp164
S'SC_STATISTIC_CODE'
p165
g163
sS'SC_UNIT'
p166
NsS'SC_CFUNIT'
p167
NsS'SC_COMMENT'
p168
NsS'SYSTIME'
p169
g2
(g11
g12
(lp170
g14
(S'\x07\xde\x05\x01\x00\x00\x00\x00\x00\x00'
p171
tp172
Rp173
aNatp174
Rp175
(dp176
g21
S'[)'
p177
sbsS'SC_CFNAME'
p178
NsS'SC_DESC'
p179
Nstp180
Rp181
sVdetection limit
p182
g2
(g3
g4
(dp183
S'SC_STATISTIC_CODE'
p184
g182
sS'SC_UNIT'
p185
NsS'SC_CFUNIT'
p186
NsS'SC_COMMENT'
p187
NsS'SYSTIME'
p188
g2
(g11
g12
(lp189
g14
(S'\x07\xde\x05\x01\x00\x00\x00\x00\x00\x00'
p190
tp191
Rp192
aNatp193
Rp194
(dp195
g21
S'[)'
p196
sbsS'SC_CFNAME'
p197
NsS'SC_DESC'
p198
Nstp199
Rp200
sVpercentile:15.87
p201
g2
(g3
g4
(dp202
S'SC_STATISTIC_CODE'
p203
g201
sS'SC_UNIT'
p204
NsS'SC_CFUNIT'
p205
NsS'SC_COMMENT'
p206
NsS'SYSTIME'
p207
g2
(g11
g12
(lp208
g14
(S'\x07\xde\x05\x01\x00\x00\x00\x00\x00\x00'
p209
tp210
Rp211
aNatp212
Rp213
(dp214
g21
S'[)'
p215
sbsS'SC_CFNAME'
p216
NsS'SC_DESC'
p217
Nstp218
Rp219
sV68.27% lower confidence bound
p220
g2
(g3
g4
(dp221
S'SC_STATISTIC_CODE'
p222
g220
sS'SC_UNIT'
p223
NsS'SC_CFUNIT'
p224
NsS'SC_COMMENT'
p225
NsS'SYSTIME'
p226
g2
(g11
g12
(lp227
g14
(S'\x07\xde\x05\x01\x00\x00\x00\x00\x00\x00'
p228
tp229
Rp230
aNatp231
Rp232
(dp233
g21
S'[)'
p234
sbsS'SC_CFNAME'
p235
NsS'SC_DESC'
p236
Nstp237
Rp238
sVminimum
p239
g2
(g3
g4
(dp240
S'SC_STATISTIC_CODE'
p241
g239
sS'SC_UNIT'
p242
NsS'SC_CFUNIT'
p243
NsS'SC_COMMENT'
p244
NsS'SYSTIME'
p245
g2
(g11
g12
(lp246
g14
(S'\x07\xde\x05\x01\x00\x00\x00\x00\x00\x00'
p247
tp248
Rp249
aNatp250
Rp251
(dp252
g21
S'[)'
p253
sbsS'SC_CFNAME'
p254
NsS'SC_DESC'
p255
Nstp256
Rp257
sVprecision
p258
g2
(g3
g4
(dp259
S'SC_STATISTIC_CODE'
p260
g258
sS'SC_UNIT'
p261
NsS'SC_CFUNIT'
p262
NsS'SC_COMMENT'
p263
NsS'SYSTIME'
p264
g2
(g11
g12
(lp265
g14
(S'\x07\xde\x05\x01\x00\x00\x00\x00\x00\x00'
p266
tp267
Rp268
aNatp269
Rp270
(dp271
g21
S'[)'
p272
sbsS'SC_CFNAME'
p273
NsS'SC_DESC'
p274
Nstp275
Rp276
sVuncertainty
p277
g2
(g3
g4
(dp278
S'SC_STATISTIC_CODE'
p279
g277
sS'SC_UNIT'
p280
NsS'SC_CFUNIT'
p281
NsS'SC_COMMENT'
p282
NsS'SYSTIME'
p283
g2
(g11
g12
(lp284
g14
(S'\x07\xde\x05\x01\x00\x00\x00\x00\x00\x00'
p285
tp286
Rp287
aNatp288
Rp289
(dp290
g21
S'[)'
p291
sbsS'SC_CFNAME'
p292
NsS'SC_DESC'
p293
Nstp294
Rp295
sVabsolute error
p296
g2
(g3
g4
(dp297
S'SC_STATISTIC_CODE'
p298
g296
sS'SC_UNIT'
p299
NsS'SC_CFUNIT'
p300
NsS'SC_COMMENT'
p301
NsS'SYSTIME'
p302
g2
(g11
g12
(lp303
g14
(S'\x07\xde\x05\x01\x00\x00\x00\x00\x00\x00'
p304
tp305
Rp306
aNatp307
Rp308
(dp309
g21
S'[)'
p310
sbsS'SC_CFNAME'
p311
NsS'SC_DESC'
p312
Nstp313
Rp314
sVstddev
p315
g2
(g3
g4
(dp316
S'SC_STATISTIC_CODE'
p317
g315
sS'SC_UNIT'
p318
NsS'SC_CFUNIT'
p319
NsS'SC_COMMENT'
p320
NsS'SYSTIME'
p321
g2
(g11
g12
(lp322
g14
(S'\x07\xde\x05\x01\x00\x00\x00\x00\x00\x00'
p323
tp324
Rp325
aNatp326
Rp327
(dp328
g21
S'[)'
p329
sbsS'SC_CFNAME'
p330
NsS'SC_DESC'
p331
Nstp332
Rp333
sVaccuracy
p334
g2
(g3
g4
(dp335
S'SC_STATISTIC_CODE'
p336
g334
sS'SC_UNIT'
p337
NsS'SC_CFUNIT'
p338
NsS'SC_COMMENT'
p339
NsS'SYSTIME'
p340
g2
(g11
g12
(lp341
g14
(S'\x07\xde\x05\x01\x00\x00\x00\x00\x00\x00'
p342
tp343
Rp344
aNatp345
Rp346
(dp347
g21
S'[)'
p348
sbsS'SC_CFNAME'
p349
NsS'SC_DESC'
p350
Nstp351
Rp352
s.