(dp0
VThermal desorption
p1
ccopy_reg
_reconstructor
p2
(cnilutility.datatypes
DataObject
p3
c__builtin__
dict
p4
(dp5
S'SP_DESC'
p6
NsS'SP_SAMPLE_PREPARATION'
p7
g1
sS'SYSTIME'
p8
g2
(cnilutility.datetime_helper
DatetimeInterval
p9
c__builtin__
list
p10
(lp11
cdatetime
datetime
p12
(S'\x07\xde\x05\x01\x00\x00\x00\x00\x00\x00'
p13
tp14
Rp15
aNatp16
Rp17
(dp18
S'bounds'
p19
S'[)'
p20
sbsS'SP_COMMENT'
p21
Nstp22
Rp23
sVASE+Hexane+13C
p24
g2
(g3
g4
(dp25
S'SP_DESC'
p26
NsS'SP_SAMPLE_PREPARATION'
p27
g24
sS'SYSTIME'
p28
g2
(g9
g10
(lp29
g12
(S'\x07\xe9\x0b\x13\x0c\x0e!\x01\t<'
p30
tp31
Rp32
aNatp33
Rp34
(dp35
g19
S'[)'
p36
sbsS'SP_COMMENT'
p37
Nstp38
Rp39
sVFiltration
p40
g2
(g3
g4
(dp41
S'SP_DESC'
p42
NsS'SP_SAMPLE_PREPARATION'
p43
g40
sS'SYSTIME'
p44
g2
(g9
g10
(lp45
g12
(S'\x07\xde\x05\x01\x00\x00\x00\x00\x00\x00'
p46
tp47
Rp48
aNatp49
Rp50
(dp51
g19
S'[)'
p52
sbsS'SP_COMMENT'
p53
Nstp54
Rp55
sVASE extraction
p56
g2
(g3
g4
(dp57
S'SP_DESC'
p58
NsS'SP_SAMPLE_PREPARATION'
p59
g56
sS'SYSTIME'
p60
g2
(g9
g10
(lp61
g12
(S'\x07\xde\x05\x01\x00\x00\x00\x00\x00\x00'
p62
tp63
Rp64
aNatp65
Rp66
(dp67
g19
S'[)'
p68
sbsS'SP_COMMENT'
p69
Nstp70
Rp71
sVSoxhlet+Di-ethyl ether/Hexane+No+Silica
p72
g2
(g3
g4
(dp73
S'SP_DESC'
p74
NsS'SP_SAMPLE_PREPARATION'
p75
g72
sS'SYSTIME'
p76
g2
(g9
g10
(lp77
g12
(S'\x07\xde\x05\x01\x00\x00\x00\x00\x00\x00'
p78
tp79
Rp80
aNatp81
Rp82
(dp83
g19
S'[)'
p84
sbsS'SP_COMMENT'
p85
Nstp86
Rp87
sVSoxhlet+Dichloromethane+13C+Silica/acid
p88
g2
(g3
g4
(dp89
S'SP_DESC'
p90
NsS'SP_SAMPLE_PREPARATION'
p91
g88
sS'SYSTIME'
p92
g2
(g9
g10
(lp93
g12
(S'\x07\xde\x05\x01\x00\x00\x00\x00\x00\x00'
p94
tp95
Rp96
aNatp97
Rp98
(dp99
g19
S'[)'
p100
sbsS'SP_COMMENT'
p101
Nstp102
Rp103
sVTemperature and humidity equilibration
p104
g2
(g3
g4
(dp105
S'SP_DESC'
p106
NsS'SP_SAMPLE_PREPARATION'
p107
g104
sS'SYSTIME'
p108
g2
(g9
g10
(lp109
g12
(S'\x07\xde\x05\x01\x00\x00\x00\x00\x00\x00'
p110
tp111
Rp112
aNatp113
Rp114
(dp115
g19
S'[)'
p116
sbsS'SP_COMMENT'
p117
Nstp118
Rp119
sVSoxhlet+Hexane+Acetone+13C+Silica
p120
g2
(g3
g4
(dp121
S'SP_DESC'
p122
NsS'SP_SAMPLE_PREPARATION'
p123
g120
sS'SYSTIME'
p124
g2
(g9
g10
(lp125
g12
(S'\x07\xe7\x01\x0c\n-\x10\x02,\x19'
p126
tp127
Rp128
aNatp129
Rp130
(dp131
g19
S'[)'
p132
sbsS'SP_COMMENT'
p133
Nstp134
Rp135
sVWater extraction
p136
g2
(g3
g4
(dp137
S'SP_DESC'
p138
NsS'SP_SAMPLE_PREPARATION'
p139
g136
sS'SYSTIME'
p140
g2
(g9
g10
(lp141
g12
(S'\x07\xde\x05\x01\x00\x00\x00\x00\x00\x00'
p142
tp143
Rp144
aNatp145
Rp146
(dp147
g19
S'[)'
p148
sbsS'SP_COMMENT'
p149
Nstp150
Rp151
sVASE+Methanol+13C
p152
g2
(g3
g4
(dp153
S'SP_DESC'
p154
NsS'SP_SAMPLE_PREPARATION'
p155
g152
sS'SYSTIME'
p156
g2
(g9
g10
(lp157
g12
(S'\x07\xe9\x0c\x05\x0f\x02\x0b\x00H5'
p158
tp159
Rp160
aNatp161
Rp162
(dp163
g19
S'[)'
p164
sbsS'SP_COMMENT'
p165
Nstp166
Rp167
sVliquid_extraction+Dichloromethane
p168
g2
(g3
g4
(dp169
S'SP_DESC'
p170
NsS'SP_SAMPLE_PREPARATION'
p171
g168
sS'SYSTIME'
p172
g2
(g9
g10
(lp173
g12
(S'\x07\xde\x05\x01\x00\x00\x00\x00\x00\x00'
p174
tp175
Rp176
aNatp177
Rp178
(dp179
g19
S'[)'
p180
sbsS'SP_COMMENT'
p181
Nstp182
Rp183
sVWater+base extraction
p184
g2
(g3
g4
(dp185
S'SP_DESC'
p186
NsS'SP_SAMPLE_PREPARATION'
p187
g184
sS'SYSTIME'
p188
g2
(g9
g10
(lp189
g12
(S'\x07\xde\x05\x01\x00\x00\x00\x00\x00\x00'
p190
tp191
Rp192
aNatp193
Rp194
(dp195
g19
S'[)'
p196
sbsS'SP_COMMENT'
p197
Nstp198
Rp199
sVSoxhlet+Di-ethyl ether/Hexane+13C+Silica
p200
g2
(g3
g4
(dp201
S'SP_DESC'
p202
NsS'SP_SAMPLE_PREPARATION'
p203
g200
sS'SYSTIME'
p204
g2
(g9
g10
(lp205
g12
(S'\x07\xde\x05\x01\x00\x00\x00\x00\x00\x00'
p206
tp207
Rp208
aNatp209
Rp210
(dp211
g19
S'[)'
p212
sbsS'SP_COMMENT'
p213
Nstp214
Rp215
sVSoxhlet+Hexane+13C+Silica
p216
g2
(g3
g4
(dp217
S'SP_DESC'
p218
NsS'SP_SAMPLE_PREPARATION'
p219
g216
sS'SYSTIME'
p220
g2
(g9
g10
(lp221
g12
(S'\x07\xde\x05\x01\x00\x00\x00\x00\x00\x00'
p222
tp223
Rp224
aNatp225
Rp226
(dp227
g19
S'[)'
p228
sbsS'SP_COMMENT'
p229
Nstp230
Rp231
sVliquid_extraction+cyclo-hexane+13C+Silica
p232
g2
(g3
g4
(dp233
S'SP_DESC'
p234
NsS'SP_SAMPLE_PREPARATION'
p235
g232
sS'SYSTIME'
p236
g2
(g9
g10
(lp237
g12
(S'\x07\xde\x05\x01\x00\x00\x00\x00\x00\x00'
p238
tp239
Rp240
aNatp241
Rp242
(dp243
g19
S'[)'
p244
sbsS'SP_COMMENT'
p245
Nstp246
Rp247
sVUltrasonication+Di-ethyl ether/Hexane+13C+Silica
p248
g2
(g3
g4
(dp249
S'SP_DESC'
p250
NsS'SP_SAMPLE_PREPARATION'
p251
g248
sS'SYSTIME'
p252
g2
(g9
g10
(lp253
g12
(S'\x07\xde\x05\x01\x00\x00\x00\x00\x00\x00'
p254
tp255
Rp256
aNatp257
Rp258
(dp259
g19
S'[)'
p260
sbsS'SP_COMMENT'
p261
Nstp262
Rp263
sVTotal digestion
p264
g2
(g3
g4
(dp265
S'SP_DESC'
p266
NsS'SP_SAMPLE_PREPARATION'
p267
g264
sS'SYSTIME'
p268
g2
(g9
g10
(lp269
g12
(S'\x07\xde\x05\x01\x00\x00\x00\x00\x00\x00'
p270
tp271
Rp272
aNatp273
Rp274
(dp275
g19
S'[)'
p276
sbsS'SP_COMMENT'
p277
Nstp278
Rp279
sVWater+H2O2 extraction
p280
g2
(g3
g4
(dp281
S'SP_DESC'
p282
NsS'SP_SAMPLE_PREPARATION'
p283
g280
sS'SYSTIME'
p284
g2
(g9
g10
(lp285
g12
(S'\x07\xde\x05\x01\x00\x00\x00\x00\x00\x00'
p286
tp287
Rp288
aNatp289
Rp290
(dp291
g19
S'[)'
p292
sbsS'SP_COMMENT'
p293
Nstp294
Rp295
sVmicrowave+Di-ethyl ether/Hexane+No+Silica
p296
g2
(g3
g4
(dp297
S'SP_DESC'
p298
NsS'SP_SAMPLE_PREPARATION'
p299
g296
sS'SYSTIME'
p300
g2
(g9
g10
(lp301
g12
(S'\x07\xde\x05\x01\x00\x00\x00\x00\x00\x00'
p302
tp303
Rp304
aNatp305
Rp306
(dp307
g19
S'[)'
p308
sbsS'SP_COMMENT'
p309
Nstp310
Rp311
sVASE+Hexane
p312
g2
(g3
g4
(dp313
S'SP_DESC'
p314
NsS'SP_SAMPLE_PREPARATION'
p315
g312
sS'SYSTIME'
p316
g2
(g9
g10
(lp317
g12
(S'\x07\xe9\x0b\x13\x0c\x0e!\x00\xfdH'
p318
tp319
Rp320
aNatp321
Rp322
(dp323
g19
S'[)'
p324
sbsS'SP_COMMENT'
p325
Nstp326
Rp327
sVNone
p328
g2
(g3
g4
(dp329
S'SP_DESC'
p330
NsS'SP_SAMPLE_PREPARATION'
p331
g328
sS'SYSTIME'
p332
g2
(g9
g10
(lp333
g12
(S'\x07\xde\x05\x01\x00\x00\x00\x00\x00\x00'
p334
tp335
Rp336
aNatp337
Rp338
(dp339
g19
S'[)'
p340
sbsS'SP_COMMENT'
p341
Nstp342
Rp343
sVSoxhlet+Di-ethyl ether/Hexane
p344
g2
(g3
g4
(dp345
S'SP_DESC'
p346
NsS'SP_SAMPLE_PREPARATION'
p347
g344
sS'SYSTIME'
p348
g2
(g9
g10
(lp349
g12
(S'\x07\xde\x05\x01\x00\x00\x00\x00\x00\x00'
p350
tp351
Rp352
aNatp353
Rp354
(dp355
g19
S'[)'
p356
sbsS'SP_COMMENT'
p357
Nstp358
Rp359
sVWater+acid extraction
p360
g2
(g3
g4
(dp361
S'SP_DESC'
p362
NsS'SP_SAMPLE_PREPARATION'
p363
g360
sS'SYSTIME'
p364
g2
(g9
g10
(lp365
g12
(S'\x07\xde\x05\x01\x00\x00\x00\x00\x00\x00'
p366
tp367
Rp368
aNatp369
Rp370
(dp371
g19
S'[)'
p372
sbsS'SP_COMMENT'
p373
Nstp374
Rp375
sVSoxhlet+Dichloromethane+No+Silica/acid
p376
g2
(g3
g4
(dp377
S'SP_DESC'
p378
NsS'SP_SAMPLE_PREPARATION'
p379
g376
sS'SYSTIME'
p380
g2
(g9
g10
(lp381
g12
(S'\x07\xde\x05\x01\x00\x00\x00\x00\x00\x00'
p382
tp383
Rp384
aNatp385
Rp386
(dp387
g19
S'[)'
p388
sbsS'SP_COMMENT'
p389
Nstp390
Rp391
sVSoxhlet+Dichloromethane+13C+Silica
p392
g2
(g3
g4
(dp393
S'SP_DESC'
p394
NsS'SP_SAMPLE_PREPARATION'
p395
g392
sS'SYSTIME'
p396
g2
(g9
g10
(lp397
g12
(S'\x07\xde\x05\x01\x00\x00\x00\x00\x00\x00'
p398
tp399
Rp400
aNatp401
Rp402
(dp403
g19
S'[)'
p404
sbsS'SP_COMMENT'
p405
Nstp406
Rp407
sVAcid digestion
p408
g2
(g3
g4
(dp409
S'SP_DESC'
p410
NsS'SP_SAMPLE_PREPARATION'
p411
g408
sS'SYSTIME'
p412
g2
(g9
g10
(lp413
g12
(S'\x07\xde\x05\x01\x00\x00\x00\x00\x00\x00'
p414
tp415
Rp416
aNatp417
Rp418
(dp419
g19
S'[)'
p420
sbsS'SP_COMMENT'
p421
Nstp422
Rp423
sVSoxhlet+Hexane+No+Silica
p424
g2
(g3
g4
(dp425
S'SP_DESC'
p426
NsS'SP_SAMPLE_PREPARATION'
p427
g424
sS'SYSTIME'
p428
g2
(g9
g10
(lp429
g12
(S'\x07\xde\x05\x01\x00\x00\x00\x00\x00\x00'
p430
tp431
Rp432
aNatp433
Rp434
(dp435
g19
S'[)'
p436
sbsS'SP_COMMENT'
p437
Nstp438
Rp439
sVBrCl digestion
p440
g2
(g3
g4
(dp441
S'SP_DESC'
p442
NsS'SP_SAMPLE_PREPARATION'
p443
g440
sS'SYSTIME'
p444
g2
(g9
g10
(lp445
g12
(S'\x07\xde\x05\x01\x00\x00\x00\x00\x00\x00'
p446
tp447
Rp448
aNatp449
Rp450
(dp451
g19
S'[)'
p452
sbsS'SP_COMMENT'
p453
Nstp454
Rp455
sVSoxhlet+Hexane+Acetone+13C+Silica+Al2O3
p456
g2
(g3
g4
(dp457
S'SP_DESC'
p458
NsS'SP_SAMPLE_PREPARATION'
p459
g456
sS'SYSTIME'
p460
g2
(g9
g10
(lp461
g12
(S'\x07\xde\x05\x01\x00\x00\x00\x00\x00\x00'
p462
tp463
Rp464
aNatp465
Rp466
(dp467
g19
S'[)'
p468
sbsS'SP_COMMENT'
p469
Nstp470
Rp471
sVSoxhlet+Hexane/Toluene+13C+Silica
p472
g2
(g3
g4
(dp473
S'SP_DESC'
p474
NsS'SP_SAMPLE_PREPARATION'
p475
g472
sS'SYSTIME'
p476
g2
(g9
g10
(lp477
g12
(S'\x07\xde\x05\x01\x00\x00\x00\x00\x00\x00'
p478
tp479
Rp480
aNatp481
Rp482
(dp483
g19
S'[)'
p484
sbsS'SP_COMMENT'
p485
Nstp486
Rp487
sVOrganic extraction
p488
g2
(g3
g4
(dp489
S'SP_DESC'
p490
NsS'SP_SAMPLE_PREPARATION'
p491
g488
sS'SYSTIME'
p492
g2
(g9
g10
(lp493
g12
(S'\x07\xde\x05\x01\x00\x00\x00\x00\x00\x00'
p494
tp495
Rp496
aNatp497
Rp498
(dp499
g19
S'[)'
p500
sbsS'SP_COMMENT'
p501
Nstp502
Rp503
sVAcid extraction
p504
g2
(g3
g4
(dp505
S'SP_DESC'
p506
NsS'SP_SAMPLE_PREPARATION'
p507
g504
sS'SYSTIME'
p508
g2
(g9
g10
(lp509
g12
(S'\x07\xde\x05\x01\x00\x00\x00\x00\x00\x00'
p510
tp511
Rp512
aNatp513
Rp514
(dp515
g19
S'[)'
p516
sbsS'SP_COMMENT'
p517
Nstp518
Rp519
sVH2O2 extraction
p520
g2
(g3
g4
(dp521
S'SP_DESC'
p522
NsS'SP_SAMPLE_PREPARATION'
p523
g520
sS'SYSTIME'
p524
g2
(g9
g10
(lp525
g12
(S'\x07\xde\x05\x01\x00\x00\x00\x00\x00\x00'
p526
tp527
Rp528
aNatp529
Rp530
(dp531
g19
S'[)'
p532
sbsS'SP_COMMENT'
p533
Nstp534
Rp535
sVExtraction with nitric acid by Ultraclave
p536
g2
(g3
g4
(dp537
S'SP_DESC'
p538
NsS'SP_SAMPLE_PREPARATION'
p539
g536
sS'SYSTIME'
p540
g2
(g9
g10
(lp541
g12
(S'\x07\xde\x05\x01\x00\x00\x00\x00\x00\x00'
p542
tp543
Rp544
aNatp545
Rp546
(dp547
g19
S'[)'
p548
sbsS'SP_COMMENT'
p549
Nstp550
Rp551
sVSoxhlet+Hexane/Toluene+13C+SPE/Silica
p552
g2
(g3
g4
(dp553
S'SP_DESC'
p554
NsS'SP_SAMPLE_PREPARATION'
p555
g552
sS'SYSTIME'
p556
g2
(g9
g10
(lp557
g12
(S'\x07\xde\x05\x01\x00\x00\x00\x00\x00\x00'
p558
tp559
Rp560
aNatp561
Rp562
(dp563
g19
S'[)'
p564
sbsS'SP_COMMENT'
p565
Nstp566
Rp567
sVSoxhlet+Dichloromethane+No+Silica
p568
g2
(g3
g4
(dp569
S'SP_DESC'
p570
NsS'SP_SAMPLE_PREPARATION'
p571
g568
sS'SYSTIME'
p572
g2
(g9
g10
(lp573
g12
(S'\x07\xde\x05\x01\x00\x00\x00\x00\x00\x00'
p574
tp575
Rp576
aNatp577
Rp578
(dp579
g19
S'[)'
p580
sbsS'SP_COMMENT'
p581
Nstp582
Rp583
sVSoxhlet+Di-ethyl ether/Hexane+13C+Silica/acid
p584
g2
(g3
g4
(dp585
S'SP_DESC'
p586
NsS'SP_SAMPLE_PREPARATION'
p587
g584
sS'SYSTIME'
p588
g2
(g9
g10
(lp589
g12
(S'\x07\xde\x05\x01\x00\x00\x00\x00\x00\x00'
p590
tp591
Rp592
aNatp593
Rp594
(dp595
g19
S'[)'
p596
sbsS'SP_COMMENT'
p597
Nstp598
Rp599
sVSPE+Dichloromethane/methanol+D-PAH+No
p600
g2
(g3
g4
(dp601
S'SP_DESC'
p602
NsS'SP_SAMPLE_PREPARATION'
p603
g600
sS'SYSTIME'
p604
g2
(g9
g10
(lp605
g12
(S'\x07\xde\x05\x01\x00\x00\x00\x00\x00\x00'
p606
tp607
Rp608
aNatp609
Rp610
(dp611
g19
S'[)'
p612
sbsS'SP_COMMENT'
p613
Nstp614
Rp615
sVSoxhlet+Di-ethyl ether/Cyclohexane
p616
g2
(g3
g4
(dp617
S'SP_DESC'
p618
NsS'SP_SAMPLE_PREPARATION'
p619
g616
sS'SYSTIME'
p620
g2
(g9
g10
(lp621
g12
(S'\x07\xe9\x0c\t\x0b\x13-\x0ev\x89'
p622
tp623
Rp624
aNatp625
Rp626
(dp627
g19
S'[)'
p628
sbsS'SP_COMMENT'
p629
Nstp630
Rp631
sVFractionation by sequential extraction
p632
g2
(g3
g4
(dp633
S'SP_DESC'
p634
NsS'SP_SAMPLE_PREPARATION'
p635
g632
sS'SYSTIME'
p636
g2
(g9
g10
(lp637
g12
(S'\x07\xde\x05\x01\x00\x00\x00\x00\x00\x00'
p638
tp639
Rp640
aNatp641
Rp642
(dp643
g19
S'[)'
p644
sbsS'SP_COMMENT'
p645
Nstp646
Rp647
sVWater extraction after ultrasonic treatment
p648
g2
(g3
g4
(dp649
S'SP_DESC'
p650
NsS'SP_SAMPLE_PREPARATION'
p651
g648
sS'SYSTIME'
p652
g2
(g9
g10
(lp653
g12
(S'\x07\xde\x05\x01\x00\x00\x00\x00\x00\x00'
p654
tp655
Rp656
aNatp657
Rp658
(dp659
g19
S'[)'
p660
sbsS'SP_COMMENT'
p661
Nstp662
Rp663
sVBase extraction
p664
g2
(g3
g4
(dp665
S'SP_DESC'
p666
NsS'SP_SAMPLE_PREPARATION'
p667
g664
sS'SYSTIME'
p668
g2
(g9
g10
(lp669
g12
(S'\x07\xde\x05\x01\x00\x00\x00\x00\x00\x00'
p670
tp671
Rp672
aNatp673
Rp674
(dp675
g19
S'[)'
p676
sbsS'SP_COMMENT'
p677
Nstp678
Rp679
sVDCM extraction by ASE
p680
g2
(g3
g4
(dp681
S'SP_DESC'
p682
NsS'SP_SAMPLE_PREPARATION'
p683
g680
sS'SYSTIME'
p684
g2
(g9
g10
(lp685
g12
(S'\x07\xde\x05\x01\x00\x00\x00\x00\x00\x00'
p686
tp687
Rp688
aNatp689
Rp690
(dp691
g19
S'[)'
p692
sbsS'SP_COMMENT'
p693
Nstp694
Rp695
sVSoxhlet+Di-ethyl ether/Hexane+No+Silica/acid
p696
g2
(g3
g4
(dp697
S'SP_DESC'
p698
NsS'SP_SAMPLE_PREPARATION'
p699
g696
sS'SYSTIME'
p700
g2
(g9
g10
(lp701
g12
(S'\x07\xde\x05\x01\x00\x00\x00\x00\x00\x00'
p702
tp703
Rp704
aNatp705
Rp706
(dp707
g19
S'[)'
p708
sbsS'SP_COMMENT'
p709
Nstp710
Rp711
sVUltrasonication+Di-ethyl ether/Hexane+No+Silica
p712
g2
(g3
g4
(dp713
S'SP_DESC'
p714
NsS'SP_SAMPLE_PREPARATION'
p715
g712
sS'SYSTIME'
p716
g2
(g9
g10
(lp717
g12
(S'\x07\xde\x05\x01\x00\x00\x00\x00\x00\x00'
p718
tp719
Rp720
aNatp721
Rp722
(dp723
g19
S'[)'
p724
sbsS'SP_COMMENT'
p725
Nstp726
Rp727
s.