(dp0
I1
ccopy_reg
_reconstructor
p1
(cnilutility.datatypes
DataObject
p2
c__builtin__
dict
p3
(dp4
S'SW_STATION_WMO_REGION'
p5
I1
sS'SW_COMMENT'
p6
NsS'SYSTIME'
p7
g1
(cnilutility.datetime_helper
DatetimeInterval
p8
c__builtin__
list
p9
(lp10
cdatetime
datetime
p11
(S'\x07\xde\x05\x01\x00\x00\x00\x00\x00\x00'
p12
tp13
Rp14
aNatp15
Rp16
(dp17
S'bounds'
p18
S'[)'
p19
sbsS'SW_DESC'
p20
VAfrica
p21
stp22
Rp23
sI2
g1
(g2
g3
(dp24
S'SW_STATION_WMO_REGION'
p25
I2
sS'SW_COMMENT'
p26
NsS'SYSTIME'
p27
g1
(g8
g9
(lp28
g11
(S'\x07\xde\x05\x01\x00\x00\x00\x00\x00\x00'
p29
tp30
Rp31
aNatp32
Rp33
(dp34
g18
S'[)'
p35
sbsS'SW_DESC'
p36
VAsia
p37
stp38
Rp39
sI3
g1
(g2
g3
(dp40
S'SW_STATION_WMO_REGION'
p41
I3
sS'SW_COMMENT'
p42
NsS'SYSTIME'
p43
g1
(g8
g9
(lp44
g11
(S'\x07\xde\x05\x01\x00\x00\x00\x00\x00\x00'
p45
tp46
Rp47
aNatp48
Rp49
(dp50
g18
S'[)'
p51
sbsS'SW_DESC'
p52
VSouth America
p53
stp54
Rp55
sI4
g1
(g2
g3
(dp56
S'SW_STATION_WMO_REGION'
p57
I4
sS'SW_COMMENT'
p58
NsS'SYSTIME'
p59
g1
(g8
g9
(lp60
g11
(S'\x07\xde\x05\x01\x00\x00\x00\x00\x00\x00'
p61
tp62
Rp63
aNatp64
Rp65
(dp66
g18
S'[)'
p67
sbsS'SW_DESC'
p68
VNorth and Central America
p69
stp70
Rp71
sI5
g1
(g2
g3
(dp72
S'SW_STATION_WMO_REGION'
p73
I5
sS'SW_COMMENT'
p74
NsS'SYSTIME'
p75
g1
(g8
g9
(lp76
g11
(S'\x07\xde\x05\x01\x00\x00\x00\x00\x00\x00'
p77
tp78
Rp79
aNatp80
Rp81
(dp82
g18
S'[)'
p83
sbsS'SW_DESC'
p84
VSouth-West Pacific
p85
stp86
Rp87
sI6
g1
(g2
g3
(dp88
S'SW_STATION_WMO_REGION'
p89
I6
sS'SW_COMMENT'
p90
NsS'SYSTIME'
p91
g1
(g8
g9
(lp92
g11
(S'\x07\xde\x05\x01\x00\x00\x00\x00\x00\x00'
p93
tp94
Rp95
aNatp96
Rp97
(dp98
g18
S'[)'
p99
sbsS'SW_DESC'
p100
VEurope
p101
stp102
Rp103
sI7
g1
(g2
g3
(dp104
S'SW_STATION_WMO_REGION'
p105
I7
sS'SW_COMMENT'
p106
NsS'SYSTIME'
p107
g1
(g8
g9
(lp108
g11
(S'\x07\xde\x05\x01\x00\x00\x00\x00\x00\x00'
p109
tp110
Rp111
aNatp112
Rp113
(dp114
g18
S'[)'
p115
sbsS'SW_DESC'
p116
VAntarctica
p117
stp118
Rp119
s.