(dp0
Vinstrument internal
p1
ccopy_reg
_reconstructor
p2
(cnilutility.datatypes
DataObject
p3
c__builtin__
dict
p4
(dp5
S'SYSTIME'
p6
g2
(cnilutility.datetime_helper
DatetimeInterval
p7
c__builtin__
list
p8
(lp9
cdatetime
datetime
p10
(S'\x07\xde\x05\x01\x00\x00\x00\x00\x00\x00'
p11
tp12
Rp13
aNatp14
Rp15
(dp16
S'bounds'
p17
S'[)'
p18
sbsS'VP_DESC'
p19
NsS'VP_COMMENT'
p20
NsS'VP_VOLUME_STD_PRESS'
p21
g1
stp22
Rp23
sVambient
p24
g2
(g3
g4
(dp25
S'SYSTIME'
p26
g2
(g7
g8
(lp27
g10
(S'\x07\xde\x05\x01\x00\x00\x00\x00\x00\x00'
p28
tp29
Rp30
aNatp31
Rp32
(dp33
g17
S'[)'
p34
sbsS'VP_DESC'
p35
NsS'VP_COMMENT'
p36
NsS'VP_VOLUME_STD_PRESS'
p37
g24
stp38
Rp39
s.